
Debug/bin\R2C2 Reprap.elf:     file format elf32-littlearm


Disassembly of section .text:

00000000 <g_pfnVectors>:
       0:	5c 46 00 20 ad 70 00 00 11 71 00 00 7b 54 00 00     \F. .p...q..{T..
      10:	11 71 00 00 11 71 00 00 11 71 00 00 00 00 00 00     .q...q...q......
	...
      2c:	11 71 00 00 11 71 00 00 00 00 00 00 e9 5d 00 00     .q...q.......]..
      3c:	75 71 00 00                                         uq..

00000040 <HandleUsbReset>:
      40:	b480      	push	{r7}
      42:	b083      	sub	sp, #12
      44:	af00      	add	r7, sp, #0
      46:	4603      	mov	r3, r0
      48:	71fb      	strb	r3, [r7, #7]
      4a:	f107 070c 	add.w	r7, r7, #12
      4e:	46bd      	mov	sp, r7
      50:	bc80      	pop	{r7}
      52:	4770      	bx	lr

00000054 <USBInit>:
      54:	b580      	push	{r7, lr}
      56:	af00      	add	r7, sp, #0
      58:	f006 fd04 	bl	6a64 <USBHwInit>
      5c:	4811      	ldr	r0, [pc, #68]	; (a4 <USBInit+0x50>)
      5e:	f006 fb77 	bl	6750 <USBHwRegisterDevIntHandler>
      62:	f04f 0000 	mov.w	r0, #0
      66:	4910      	ldr	r1, [pc, #64]	; (a8 <USBInit+0x54>)
      68:	f006 fb36 	bl	66d8 <USBHwRegisterEPIntHandler>
      6c:	f04f 0080 	mov.w	r0, #128	; 0x80
      70:	490d      	ldr	r1, [pc, #52]	; (a8 <USBInit+0x54>)
      72:	f006 fb31 	bl	66d8 <USBHwRegisterEPIntHandler>
      76:	f04f 0000 	mov.w	r0, #0
      7a:	f04f 0140 	mov.w	r1, #64	; 0x40
      7e:	f006 fb09 	bl	6694 <USBHwEPConfig>
      82:	f04f 0080 	mov.w	r0, #128	; 0x80
      86:	f04f 0140 	mov.w	r1, #64	; 0x40
      8a:	f006 fb03 	bl	6694 <USBHwEPConfig>
      8e:	f04f 0000 	mov.w	r0, #0
      92:	4906      	ldr	r1, [pc, #24]	; (ac <USBInit+0x58>)
      94:	4a06      	ldr	r2, [pc, #24]	; (b0 <USBInit+0x5c>)
      96:	f002 fa95 	bl	25c4 <USBRegisterRequestHandler>
      9a:	f04f 0301 	mov.w	r3, #1
      9e:	4618      	mov	r0, r3
      a0:	bd80      	pop	{r7, pc}
      a2:	bf00      	nop
      a4:	00000041 	.word	0x00000041
      a8:	00002451 	.word	0x00002451
      ac:	00005d35 	.word	0x00005d35
      b0:	20000080 	.word	0x20000080

000000b4 <plug_holes>:
      b4:	b480      	push	{r7}
      b6:	b085      	sub	sp, #20
      b8:	af00      	add	r7, sp, #0
      ba:	6078      	str	r0, [r7, #4]
      bc:	4b2d      	ldr	r3, [pc, #180]	; (174 <plug_holes+0xc0>)
      be:	681b      	ldr	r3, [r3, #0]
      c0:	461a      	mov	r2, r3
      c2:	687b      	ldr	r3, [r7, #4]
      c4:	881b      	ldrh	r3, [r3, #0]
      c6:	18d3      	adds	r3, r2, r3
      c8:	60fb      	str	r3, [r7, #12]
      ca:	687a      	ldr	r2, [r7, #4]
      cc:	68fb      	ldr	r3, [r7, #12]
      ce:	429a      	cmp	r2, r3
      d0:	d022      	beq.n	118 <plug_holes+0x64>
      d2:	68fb      	ldr	r3, [r7, #12]
      d4:	791b      	ldrb	r3, [r3, #4]
      d6:	2b00      	cmp	r3, #0
      d8:	d11e      	bne.n	118 <plug_holes+0x64>
      da:	68fa      	ldr	r2, [r7, #12]
      dc:	4b26      	ldr	r3, [pc, #152]	; (178 <plug_holes+0xc4>)
      de:	681b      	ldr	r3, [r3, #0]
      e0:	429a      	cmp	r2, r3
      e2:	d019      	beq.n	118 <plug_holes+0x64>
      e4:	4b25      	ldr	r3, [pc, #148]	; (17c <plug_holes+0xc8>)
      e6:	681a      	ldr	r2, [r3, #0]
      e8:	68fb      	ldr	r3, [r7, #12]
      ea:	429a      	cmp	r2, r3
      ec:	d102      	bne.n	f4 <plug_holes+0x40>
      ee:	4b23      	ldr	r3, [pc, #140]	; (17c <plug_holes+0xc8>)
      f0:	687a      	ldr	r2, [r7, #4]
      f2:	601a      	str	r2, [r3, #0]
      f4:	68fb      	ldr	r3, [r7, #12]
      f6:	881a      	ldrh	r2, [r3, #0]
      f8:	687b      	ldr	r3, [r7, #4]
      fa:	801a      	strh	r2, [r3, #0]
      fc:	4b1d      	ldr	r3, [pc, #116]	; (174 <plug_holes+0xc0>)
      fe:	681b      	ldr	r3, [r3, #0]
     100:	461a      	mov	r2, r3
     102:	68fb      	ldr	r3, [r7, #12]
     104:	881b      	ldrh	r3, [r3, #0]
     106:	18d3      	adds	r3, r2, r3
     108:	687a      	ldr	r2, [r7, #4]
     10a:	b291      	uxth	r1, r2
     10c:	4a19      	ldr	r2, [pc, #100]	; (174 <plug_holes+0xc0>)
     10e:	6812      	ldr	r2, [r2, #0]
     110:	b292      	uxth	r2, r2
     112:	1a8a      	subs	r2, r1, r2
     114:	b292      	uxth	r2, r2
     116:	805a      	strh	r2, [r3, #2]
     118:	4b16      	ldr	r3, [pc, #88]	; (174 <plug_holes+0xc0>)
     11a:	681b      	ldr	r3, [r3, #0]
     11c:	461a      	mov	r2, r3
     11e:	687b      	ldr	r3, [r7, #4]
     120:	885b      	ldrh	r3, [r3, #2]
     122:	18d3      	adds	r3, r2, r3
     124:	60bb      	str	r3, [r7, #8]
     126:	68ba      	ldr	r2, [r7, #8]
     128:	687b      	ldr	r3, [r7, #4]
     12a:	429a      	cmp	r2, r3
     12c:	d01d      	beq.n	16a <plug_holes+0xb6>
     12e:	68bb      	ldr	r3, [r7, #8]
     130:	791b      	ldrb	r3, [r3, #4]
     132:	2b00      	cmp	r3, #0
     134:	d119      	bne.n	16a <plug_holes+0xb6>
     136:	4b11      	ldr	r3, [pc, #68]	; (17c <plug_holes+0xc8>)
     138:	681a      	ldr	r2, [r3, #0]
     13a:	687b      	ldr	r3, [r7, #4]
     13c:	429a      	cmp	r2, r3
     13e:	d102      	bne.n	146 <plug_holes+0x92>
     140:	4b0e      	ldr	r3, [pc, #56]	; (17c <plug_holes+0xc8>)
     142:	68ba      	ldr	r2, [r7, #8]
     144:	601a      	str	r2, [r3, #0]
     146:	687b      	ldr	r3, [r7, #4]
     148:	881a      	ldrh	r2, [r3, #0]
     14a:	68bb      	ldr	r3, [r7, #8]
     14c:	801a      	strh	r2, [r3, #0]
     14e:	4b09      	ldr	r3, [pc, #36]	; (174 <plug_holes+0xc0>)
     150:	681b      	ldr	r3, [r3, #0]
     152:	461a      	mov	r2, r3
     154:	687b      	ldr	r3, [r7, #4]
     156:	881b      	ldrh	r3, [r3, #0]
     158:	18d3      	adds	r3, r2, r3
     15a:	68ba      	ldr	r2, [r7, #8]
     15c:	b291      	uxth	r1, r2
     15e:	4a05      	ldr	r2, [pc, #20]	; (174 <plug_holes+0xc0>)
     160:	6812      	ldr	r2, [r2, #0]
     162:	b292      	uxth	r2, r2
     164:	1a8a      	subs	r2, r1, r2
     166:	b292      	uxth	r2, r2
     168:	805a      	strh	r2, [r3, #2]
     16a:	f107 0714 	add.w	r7, r7, #20
     16e:	46bd      	mov	sp, r7
     170:	bc80      	pop	{r7}
     172:	4770      	bx	lr
     174:	2000089c 	.word	0x2000089c
     178:	200008a0 	.word	0x200008a0
     17c:	200008a4 	.word	0x200008a4

00000180 <mem_free>:
     180:	b580      	push	{r7, lr}
     182:	b084      	sub	sp, #16
     184:	af00      	add	r7, sp, #0
     186:	6078      	str	r0, [r7, #4]
     188:	687b      	ldr	r3, [r7, #4]
     18a:	2b00      	cmp	r3, #0
     18c:	d103      	bne.n	196 <mem_free+0x16>
     18e:	482d      	ldr	r0, [pc, #180]	; (244 <mem_free+0xc4>)
     190:	f005 fbb4 	bl	58fc <DebugPrintf>
     194:	e052      	b.n	23c <mem_free+0xbc>
     196:	687a      	ldr	r2, [r7, #4]
     198:	4b2b      	ldr	r3, [pc, #172]	; (248 <mem_free+0xc8>)
     19a:	681b      	ldr	r3, [r3, #0]
     19c:	429a      	cmp	r2, r3
     19e:	687a      	ldr	r2, [r7, #4]
     1a0:	4b29      	ldr	r3, [pc, #164]	; (248 <mem_free+0xc8>)
     1a2:	681b      	ldr	r3, [r3, #0]
     1a4:	429a      	cmp	r2, r3
     1a6:	d304      	bcc.n	1b2 <mem_free+0x32>
     1a8:	687a      	ldr	r2, [r7, #4]
     1aa:	4b28      	ldr	r3, [pc, #160]	; (24c <mem_free+0xcc>)
     1ac:	681b      	ldr	r3, [r3, #0]
     1ae:	429a      	cmp	r2, r3
     1b0:	d312      	bcc.n	1d8 <mem_free+0x58>
     1b2:	4827      	ldr	r0, [pc, #156]	; (250 <mem_free+0xd0>)
     1b4:	f005 fba2 	bl	58fc <DebugPrintf>
     1b8:	f005 fb8e 	bl	58d8 <sys_arch_protect>
     1bc:	60b8      	str	r0, [r7, #8]
     1be:	4b25      	ldr	r3, [pc, #148]	; (254 <mem_free+0xd4>)
     1c0:	f8b3 3098 	ldrh.w	r3, [r3, #152]	; 0x98
     1c4:	f103 0301 	add.w	r3, r3, #1
     1c8:	b29a      	uxth	r2, r3
     1ca:	4b22      	ldr	r3, [pc, #136]	; (254 <mem_free+0xd4>)
     1cc:	f8a3 2098 	strh.w	r2, [r3, #152]	; 0x98
     1d0:	68b8      	ldr	r0, [r7, #8]
     1d2:	f005 fb89 	bl	58e8 <sys_arch_unprotect>
     1d6:	e031      	b.n	23c <mem_free+0xbc>
     1d8:	4b1f      	ldr	r3, [pc, #124]	; (258 <mem_free+0xd8>)
     1da:	781b      	ldrb	r3, [r3, #0]
     1dc:	4618      	mov	r0, r3
     1de:	f04f 0100 	mov.w	r1, #0
     1e2:	f005 fa7f 	bl	56e4 <sys_arch_sem_wait>
     1e6:	687b      	ldr	r3, [r7, #4]
     1e8:	f1a3 0308 	sub.w	r3, r3, #8
     1ec:	60fb      	str	r3, [r7, #12]
     1ee:	68fb      	ldr	r3, [r7, #12]
     1f0:	f04f 0200 	mov.w	r2, #0
     1f4:	711a      	strb	r2, [r3, #4]
     1f6:	4b19      	ldr	r3, [pc, #100]	; (25c <mem_free+0xdc>)
     1f8:	681b      	ldr	r3, [r3, #0]
     1fa:	68fa      	ldr	r2, [r7, #12]
     1fc:	429a      	cmp	r2, r3
     1fe:	d202      	bcs.n	206 <mem_free+0x86>
     200:	4b16      	ldr	r3, [pc, #88]	; (25c <mem_free+0xdc>)
     202:	68fa      	ldr	r2, [r7, #12]
     204:	601a      	str	r2, [r3, #0]
     206:	4b13      	ldr	r3, [pc, #76]	; (254 <mem_free+0xd4>)
     208:	f8b3 2092 	ldrh.w	r2, [r3, #146]	; 0x92
     20c:	68fb      	ldr	r3, [r7, #12]
     20e:	b299      	uxth	r1, r3
     210:	4b0d      	ldr	r3, [pc, #52]	; (248 <mem_free+0xc8>)
     212:	681b      	ldr	r3, [r3, #0]
     214:	b29b      	uxth	r3, r3
     216:	1acb      	subs	r3, r1, r3
     218:	b299      	uxth	r1, r3
     21a:	68fb      	ldr	r3, [r7, #12]
     21c:	881b      	ldrh	r3, [r3, #0]
     21e:	1acb      	subs	r3, r1, r3
     220:	b29b      	uxth	r3, r3
     222:	18d3      	adds	r3, r2, r3
     224:	b29a      	uxth	r2, r3
     226:	4b0b      	ldr	r3, [pc, #44]	; (254 <mem_free+0xd4>)
     228:	f8a3 2092 	strh.w	r2, [r3, #146]	; 0x92
     22c:	68f8      	ldr	r0, [r7, #12]
     22e:	f7ff ff41 	bl	b4 <plug_holes>
     232:	4b09      	ldr	r3, [pc, #36]	; (258 <mem_free+0xd8>)
     234:	781b      	ldrb	r3, [r3, #0]
     236:	4618      	mov	r0, r3
     238:	f005 faaa 	bl	5790 <sys_sem_signal>
     23c:	f107 0710 	add.w	r7, r7, #16
     240:	46bd      	mov	sp, r7
     242:	bd80      	pop	{r7, pc}
     244:	00009080 	.word	0x00009080
     248:	2000089c 	.word	0x2000089c
     24c:	200008a0 	.word	0x200008a0
     250:	000090a4 	.word	0x000090a4
     254:	20004128 	.word	0x20004128
     258:	200008a8 	.word	0x200008a8
     25c:	200008a4 	.word	0x200008a4

00000260 <mem_malloc>:
     260:	b580      	push	{r7, lr}
     262:	b086      	sub	sp, #24
     264:	af00      	add	r7, sp, #0
     266:	4603      	mov	r3, r0
     268:	80fb      	strh	r3, [r7, #6]
     26a:	88fb      	ldrh	r3, [r7, #6]
     26c:	2b00      	cmp	r3, #0
     26e:	d102      	bne.n	276 <mem_malloc+0x16>
     270:	f04f 0300 	mov.w	r3, #0
     274:	e0fd      	b.n	472 <mem_malloc+0x212>
     276:	88fb      	ldrh	r3, [r7, #6]
     278:	f103 0303 	add.w	r3, r3, #3
     27c:	b29b      	uxth	r3, r3
     27e:	f023 0303 	bic.w	r3, r3, #3
     282:	80fb      	strh	r3, [r7, #6]
     284:	88fb      	ldrh	r3, [r7, #6]
     286:	2b0b      	cmp	r3, #11
     288:	d802      	bhi.n	290 <mem_malloc+0x30>
     28a:	f04f 030c 	mov.w	r3, #12
     28e:	80fb      	strh	r3, [r7, #6]
     290:	88fb      	ldrh	r3, [r7, #6]
     292:	f5b3 6f00 	cmp.w	r3, #2048	; 0x800
     296:	d902      	bls.n	29e <mem_malloc+0x3e>
     298:	f04f 0300 	mov.w	r3, #0
     29c:	e0e9      	b.n	472 <mem_malloc+0x212>
     29e:	4b77      	ldr	r3, [pc, #476]	; (47c <mem_malloc+0x21c>)
     2a0:	781b      	ldrb	r3, [r3, #0]
     2a2:	4618      	mov	r0, r3
     2a4:	f04f 0100 	mov.w	r1, #0
     2a8:	f005 fa1c 	bl	56e4 <sys_arch_sem_wait>
     2ac:	4b74      	ldr	r3, [pc, #464]	; (480 <mem_malloc+0x220>)
     2ae:	681b      	ldr	r3, [r3, #0]
     2b0:	b29a      	uxth	r2, r3
     2b2:	4b74      	ldr	r3, [pc, #464]	; (484 <mem_malloc+0x224>)
     2b4:	681b      	ldr	r3, [r3, #0]
     2b6:	b29b      	uxth	r3, r3
     2b8:	1ad3      	subs	r3, r2, r3
     2ba:	82fb      	strh	r3, [r7, #22]
     2bc:	e0bc      	b.n	438 <mem_malloc+0x1d8>
     2be:	4b71      	ldr	r3, [pc, #452]	; (484 <mem_malloc+0x224>)
     2c0:	681b      	ldr	r3, [r3, #0]
     2c2:	461a      	mov	r2, r3
     2c4:	8afb      	ldrh	r3, [r7, #22]
     2c6:	18d3      	adds	r3, r2, r3
     2c8:	613b      	str	r3, [r7, #16]
     2ca:	693b      	ldr	r3, [r7, #16]
     2cc:	791b      	ldrb	r3, [r3, #4]
     2ce:	2b00      	cmp	r3, #0
     2d0:	f040 80ab 	bne.w	42a <mem_malloc+0x1ca>
     2d4:	693b      	ldr	r3, [r7, #16]
     2d6:	881b      	ldrh	r3, [r3, #0]
     2d8:	461a      	mov	r2, r3
     2da:	8afb      	ldrh	r3, [r7, #22]
     2dc:	1ad3      	subs	r3, r2, r3
     2de:	f1a3 0208 	sub.w	r2, r3, #8
     2e2:	88fb      	ldrh	r3, [r7, #6]
     2e4:	429a      	cmp	r2, r3
     2e6:	f0c0 80a0 	bcc.w	42a <mem_malloc+0x1ca>
     2ea:	693b      	ldr	r3, [r7, #16]
     2ec:	881b      	ldrh	r3, [r3, #0]
     2ee:	461a      	mov	r2, r3
     2f0:	8afb      	ldrh	r3, [r7, #22]
     2f2:	1ad3      	subs	r3, r2, r3
     2f4:	f1a3 0208 	sub.w	r2, r3, #8
     2f8:	88fb      	ldrh	r3, [r7, #6]
     2fa:	f103 0314 	add.w	r3, r3, #20
     2fe:	429a      	cmp	r2, r3
     300:	d346      	bcc.n	390 <mem_malloc+0x130>
     302:	8afa      	ldrh	r2, [r7, #22]
     304:	88fb      	ldrh	r3, [r7, #6]
     306:	18d3      	adds	r3, r2, r3
     308:	b29b      	uxth	r3, r3
     30a:	f103 0308 	add.w	r3, r3, #8
     30e:	81fb      	strh	r3, [r7, #14]
     310:	4b5c      	ldr	r3, [pc, #368]	; (484 <mem_malloc+0x224>)
     312:	681b      	ldr	r3, [r3, #0]
     314:	461a      	mov	r2, r3
     316:	89fb      	ldrh	r3, [r7, #14]
     318:	18d3      	adds	r3, r2, r3
     31a:	60bb      	str	r3, [r7, #8]
     31c:	68bb      	ldr	r3, [r7, #8]
     31e:	f04f 0200 	mov.w	r2, #0
     322:	711a      	strb	r2, [r3, #4]
     324:	693b      	ldr	r3, [r7, #16]
     326:	881a      	ldrh	r2, [r3, #0]
     328:	68bb      	ldr	r3, [r7, #8]
     32a:	801a      	strh	r2, [r3, #0]
     32c:	68bb      	ldr	r3, [r7, #8]
     32e:	8afa      	ldrh	r2, [r7, #22]
     330:	805a      	strh	r2, [r3, #2]
     332:	693b      	ldr	r3, [r7, #16]
     334:	89fa      	ldrh	r2, [r7, #14]
     336:	801a      	strh	r2, [r3, #0]
     338:	693b      	ldr	r3, [r7, #16]
     33a:	f04f 0201 	mov.w	r2, #1
     33e:	711a      	strb	r2, [r3, #4]
     340:	68bb      	ldr	r3, [r7, #8]
     342:	881b      	ldrh	r3, [r3, #0]
     344:	f5b3 6f00 	cmp.w	r3, #2048	; 0x800
     348:	d007      	beq.n	35a <mem_malloc+0xfa>
     34a:	4b4e      	ldr	r3, [pc, #312]	; (484 <mem_malloc+0x224>)
     34c:	681b      	ldr	r3, [r3, #0]
     34e:	461a      	mov	r2, r3
     350:	68bb      	ldr	r3, [r7, #8]
     352:	881b      	ldrh	r3, [r3, #0]
     354:	18d3      	adds	r3, r2, r3
     356:	89fa      	ldrh	r2, [r7, #14]
     358:	805a      	strh	r2, [r3, #2]
     35a:	4b4b      	ldr	r3, [pc, #300]	; (488 <mem_malloc+0x228>)
     35c:	f8b3 2092 	ldrh.w	r2, [r3, #146]	; 0x92
     360:	88fb      	ldrh	r3, [r7, #6]
     362:	18d3      	adds	r3, r2, r3
     364:	b29b      	uxth	r3, r3
     366:	f103 0308 	add.w	r3, r3, #8
     36a:	b29a      	uxth	r2, r3
     36c:	4b46      	ldr	r3, [pc, #280]	; (488 <mem_malloc+0x228>)
     36e:	f8a3 2092 	strh.w	r2, [r3, #146]	; 0x92
     372:	4b45      	ldr	r3, [pc, #276]	; (488 <mem_malloc+0x228>)
     374:	f8b3 2094 	ldrh.w	r2, [r3, #148]	; 0x94
     378:	4b43      	ldr	r3, [pc, #268]	; (488 <mem_malloc+0x228>)
     37a:	f8b3 3092 	ldrh.w	r3, [r3, #146]	; 0x92
     37e:	429a      	cmp	r2, r3
     380:	d22b      	bcs.n	3da <mem_malloc+0x17a>
     382:	4b41      	ldr	r3, [pc, #260]	; (488 <mem_malloc+0x228>)
     384:	f8b3 2092 	ldrh.w	r2, [r3, #146]	; 0x92
     388:	4b3f      	ldr	r3, [pc, #252]	; (488 <mem_malloc+0x228>)
     38a:	f8a3 2094 	strh.w	r2, [r3, #148]	; 0x94
     38e:	e024      	b.n	3da <mem_malloc+0x17a>
     390:	693b      	ldr	r3, [r7, #16]
     392:	f04f 0201 	mov.w	r2, #1
     396:	711a      	strb	r2, [r3, #4]
     398:	4b3b      	ldr	r3, [pc, #236]	; (488 <mem_malloc+0x228>)
     39a:	f8b3 2092 	ldrh.w	r2, [r3, #146]	; 0x92
     39e:	693b      	ldr	r3, [r7, #16]
     3a0:	8819      	ldrh	r1, [r3, #0]
     3a2:	4b38      	ldr	r3, [pc, #224]	; (484 <mem_malloc+0x224>)
     3a4:	681b      	ldr	r3, [r3, #0]
     3a6:	b298      	uxth	r0, r3
     3a8:	693b      	ldr	r3, [r7, #16]
     3aa:	b29b      	uxth	r3, r3
     3ac:	1ac3      	subs	r3, r0, r3
     3ae:	b29b      	uxth	r3, r3
     3b0:	18cb      	adds	r3, r1, r3
     3b2:	b29b      	uxth	r3, r3
     3b4:	18d3      	adds	r3, r2, r3
     3b6:	b29a      	uxth	r2, r3
     3b8:	4b33      	ldr	r3, [pc, #204]	; (488 <mem_malloc+0x228>)
     3ba:	f8a3 2092 	strh.w	r2, [r3, #146]	; 0x92
     3be:	4b32      	ldr	r3, [pc, #200]	; (488 <mem_malloc+0x228>)
     3c0:	f8b3 2094 	ldrh.w	r2, [r3, #148]	; 0x94
     3c4:	4b30      	ldr	r3, [pc, #192]	; (488 <mem_malloc+0x228>)
     3c6:	f8b3 3092 	ldrh.w	r3, [r3, #146]	; 0x92
     3ca:	429a      	cmp	r2, r3
     3cc:	d205      	bcs.n	3da <mem_malloc+0x17a>
     3ce:	4b2e      	ldr	r3, [pc, #184]	; (488 <mem_malloc+0x228>)
     3d0:	f8b3 2092 	ldrh.w	r2, [r3, #146]	; 0x92
     3d4:	4b2c      	ldr	r3, [pc, #176]	; (488 <mem_malloc+0x228>)
     3d6:	f8a3 2094 	strh.w	r2, [r3, #148]	; 0x94
     3da:	4b29      	ldr	r3, [pc, #164]	; (480 <mem_malloc+0x220>)
     3dc:	681b      	ldr	r3, [r3, #0]
     3de:	693a      	ldr	r2, [r7, #16]
     3e0:	429a      	cmp	r2, r3
     3e2:	d119      	bne.n	418 <mem_malloc+0x1b8>
     3e4:	e008      	b.n	3f8 <mem_malloc+0x198>
     3e6:	4b27      	ldr	r3, [pc, #156]	; (484 <mem_malloc+0x224>)
     3e8:	681b      	ldr	r3, [r3, #0]
     3ea:	461a      	mov	r2, r3
     3ec:	4b24      	ldr	r3, [pc, #144]	; (480 <mem_malloc+0x220>)
     3ee:	681b      	ldr	r3, [r3, #0]
     3f0:	881b      	ldrh	r3, [r3, #0]
     3f2:	18d2      	adds	r2, r2, r3
     3f4:	4b22      	ldr	r3, [pc, #136]	; (480 <mem_malloc+0x220>)
     3f6:	601a      	str	r2, [r3, #0]
     3f8:	4b21      	ldr	r3, [pc, #132]	; (480 <mem_malloc+0x220>)
     3fa:	681b      	ldr	r3, [r3, #0]
     3fc:	791b      	ldrb	r3, [r3, #4]
     3fe:	2b00      	cmp	r3, #0
     400:	d005      	beq.n	40e <mem_malloc+0x1ae>
     402:	4b1f      	ldr	r3, [pc, #124]	; (480 <mem_malloc+0x220>)
     404:	681a      	ldr	r2, [r3, #0]
     406:	4b21      	ldr	r3, [pc, #132]	; (48c <mem_malloc+0x22c>)
     408:	681b      	ldr	r3, [r3, #0]
     40a:	429a      	cmp	r2, r3
     40c:	d1eb      	bne.n	3e6 <mem_malloc+0x186>
     40e:	4b1c      	ldr	r3, [pc, #112]	; (480 <mem_malloc+0x220>)
     410:	681a      	ldr	r2, [r3, #0]
     412:	4b1e      	ldr	r3, [pc, #120]	; (48c <mem_malloc+0x22c>)
     414:	681b      	ldr	r3, [r3, #0]
     416:	429a      	cmp	r2, r3
     418:	4b18      	ldr	r3, [pc, #96]	; (47c <mem_malloc+0x21c>)
     41a:	781b      	ldrb	r3, [r3, #0]
     41c:	4618      	mov	r0, r3
     41e:	f005 f9b7 	bl	5790 <sys_sem_signal>
     422:	693b      	ldr	r3, [r7, #16]
     424:	f103 0308 	add.w	r3, r3, #8
     428:	e023      	b.n	472 <mem_malloc+0x212>
     42a:	4b16      	ldr	r3, [pc, #88]	; (484 <mem_malloc+0x224>)
     42c:	681b      	ldr	r3, [r3, #0]
     42e:	461a      	mov	r2, r3
     430:	8afb      	ldrh	r3, [r7, #22]
     432:	18d3      	adds	r3, r2, r3
     434:	881b      	ldrh	r3, [r3, #0]
     436:	82fb      	strh	r3, [r7, #22]
     438:	8afa      	ldrh	r2, [r7, #22]
     43a:	88fb      	ldrh	r3, [r7, #6]
     43c:	f5c3 6300 	rsb	r3, r3, #2048	; 0x800
     440:	429a      	cmp	r2, r3
     442:	f6ff af3c 	blt.w	2be <mem_malloc+0x5e>
     446:	88fb      	ldrh	r3, [r7, #6]
     448:	b21b      	sxth	r3, r3
     44a:	4811      	ldr	r0, [pc, #68]	; (490 <mem_malloc+0x230>)
     44c:	4619      	mov	r1, r3
     44e:	f005 fa55 	bl	58fc <DebugPrintf>
     452:	4b0d      	ldr	r3, [pc, #52]	; (488 <mem_malloc+0x228>)
     454:	f8b3 3096 	ldrh.w	r3, [r3, #150]	; 0x96
     458:	f103 0301 	add.w	r3, r3, #1
     45c:	b29a      	uxth	r2, r3
     45e:	4b0a      	ldr	r3, [pc, #40]	; (488 <mem_malloc+0x228>)
     460:	f8a3 2096 	strh.w	r2, [r3, #150]	; 0x96
     464:	4b05      	ldr	r3, [pc, #20]	; (47c <mem_malloc+0x21c>)
     466:	781b      	ldrb	r3, [r3, #0]
     468:	4618      	mov	r0, r3
     46a:	f005 f991 	bl	5790 <sys_sem_signal>
     46e:	f04f 0300 	mov.w	r3, #0
     472:	4618      	mov	r0, r3
     474:	f107 0718 	add.w	r7, r7, #24
     478:	46bd      	mov	sp, r7
     47a:	bd80      	pop	{r7, pc}
     47c:	200008a8 	.word	0x200008a8
     480:	200008a4 	.word	0x200008a4
     484:	2000089c 	.word	0x2000089c
     488:	20004128 	.word	0x20004128
     48c:	200008a0 	.word	0x200008a0
     490:	000090e0 	.word	0x000090e0

00000494 <CoCreateKheap>:
     494:	b480      	push	{r7}
     496:	af00      	add	r7, sp, #0
     498:	4a0e      	ldr	r2, [pc, #56]	; (4d4 <CoCreateKheap+0x40>)
     49a:	4b0f      	ldr	r3, [pc, #60]	; (4d8 <CoCreateKheap+0x44>)
     49c:	601a      	str	r2, [r3, #0]
     49e:	4b0d      	ldr	r3, [pc, #52]	; (4d4 <CoCreateKheap+0x40>)
     4a0:	f103 02c8 	add.w	r2, r3, #200	; 0xc8
     4a4:	4b0c      	ldr	r3, [pc, #48]	; (4d8 <CoCreateKheap+0x44>)
     4a6:	605a      	str	r2, [r3, #4]
     4a8:	4a0a      	ldr	r2, [pc, #40]	; (4d4 <CoCreateKheap+0x40>)
     4aa:	4b0c      	ldr	r3, [pc, #48]	; (4dc <CoCreateKheap+0x48>)
     4ac:	601a      	str	r2, [r3, #0]
     4ae:	4b0b      	ldr	r3, [pc, #44]	; (4dc <CoCreateKheap+0x48>)
     4b0:	681b      	ldr	r3, [r3, #0]
     4b2:	f04f 0200 	mov.w	r2, #0
     4b6:	601a      	str	r2, [r3, #0]
     4b8:	4b08      	ldr	r3, [pc, #32]	; (4dc <CoCreateKheap+0x48>)
     4ba:	681b      	ldr	r3, [r3, #0]
     4bc:	f04f 0200 	mov.w	r2, #0
     4c0:	605a      	str	r2, [r3, #4]
     4c2:	4b06      	ldr	r3, [pc, #24]	; (4dc <CoCreateKheap+0x48>)
     4c4:	681b      	ldr	r3, [r3, #0]
     4c6:	f04f 0200 	mov.w	r2, #0
     4ca:	609a      	str	r2, [r3, #8]
     4cc:	46bd      	mov	sp, r7
     4ce:	bc80      	pop	{r7}
     4d0:	4770      	bx	lr
     4d2:	bf00      	nop
     4d4:	200008ac 	.word	0x200008ac
     4d8:	20000978 	.word	0x20000978
     4dc:	20000974 	.word	0x20000974

000004e0 <tcp_tmr>:
     4e0:	b580      	push	{r7, lr}
     4e2:	af00      	add	r7, sp, #0
     4e4:	f000 fe56 	bl	1194 <tcp_fasttmr>
     4e8:	4b08      	ldr	r3, [pc, #32]	; (50c <tcp_tmr+0x2c>)
     4ea:	781b      	ldrb	r3, [r3, #0]
     4ec:	f103 0301 	add.w	r3, r3, #1
     4f0:	b2da      	uxtb	r2, r3
     4f2:	4b06      	ldr	r3, [pc, #24]	; (50c <tcp_tmr+0x2c>)
     4f4:	701a      	strb	r2, [r3, #0]
     4f6:	4b05      	ldr	r3, [pc, #20]	; (50c <tcp_tmr+0x2c>)
     4f8:	781b      	ldrb	r3, [r3, #0]
     4fa:	f003 0301 	and.w	r3, r3, #1
     4fe:	b2db      	uxtb	r3, r3
     500:	2b00      	cmp	r3, #0
     502:	d001      	beq.n	508 <tcp_tmr+0x28>
     504:	f000 fb9e 	bl	c44 <tcp_slowtmr>
     508:	bd80      	pop	{r7, pc}
     50a:	bf00      	nop
     50c:	20000980 	.word	0x20000980

00000510 <tcp_close>:
     510:	b580      	push	{r7, lr}
     512:	b084      	sub	sp, #16
     514:	af00      	add	r7, sp, #0
     516:	6078      	str	r0, [r7, #4]
     518:	4860      	ldr	r0, [pc, #384]	; (69c <tcp_close+0x18c>)
     51a:	f005 f9ef 	bl	58fc <DebugPrintf>
     51e:	687b      	ldr	r3, [r7, #4]
     520:	7c1b      	ldrb	r3, [r3, #16]
     522:	4618      	mov	r0, r3
     524:	f001 f984 	bl	1830 <tcp_debug_print_state>
     528:	687b      	ldr	r3, [r7, #4]
     52a:	7c1b      	ldrb	r3, [r3, #16]
     52c:	2b07      	cmp	r3, #7
     52e:	f200 8098 	bhi.w	662 <tcp_close+0x152>
     532:	a201      	add	r2, pc, #4	; (adr r2, 538 <tcp_close+0x28>)
     534:	f852 f023 	ldr.w	pc, [r2, r3, lsl #2]
     538:	00000559 	.word	0x00000559
     53c:	000005c3 	.word	0x000005c3
     540:	000005e3 	.word	0x000005e3
     544:	00000603 	.word	0x00000603
     548:	00000623 	.word	0x00000623
     54c:	00000663 	.word	0x00000663
     550:	00000663 	.word	0x00000663
     554:	00000643 	.word	0x00000643
     558:	f04f 0300 	mov.w	r3, #0
     55c:	73fb      	strb	r3, [r7, #15]
     55e:	4b50      	ldr	r3, [pc, #320]	; (6a0 <tcp_close+0x190>)
     560:	681a      	ldr	r2, [r3, #0]
     562:	687b      	ldr	r3, [r7, #4]
     564:	429a      	cmp	r2, r3
     566:	d105      	bne.n	574 <tcp_close+0x64>
     568:	4b4d      	ldr	r3, [pc, #308]	; (6a0 <tcp_close+0x190>)
     56a:	681b      	ldr	r3, [r3, #0]
     56c:	68da      	ldr	r2, [r3, #12]
     56e:	4b4c      	ldr	r3, [pc, #304]	; (6a0 <tcp_close+0x190>)
     570:	601a      	str	r2, [r3, #0]
     572:	e019      	b.n	5a8 <tcp_close+0x98>
     574:	4b4a      	ldr	r3, [pc, #296]	; (6a0 <tcp_close+0x190>)
     576:	681a      	ldr	r2, [r3, #0]
     578:	4b4a      	ldr	r3, [pc, #296]	; (6a4 <tcp_close+0x194>)
     57a:	601a      	str	r2, [r3, #0]
     57c:	e010      	b.n	5a0 <tcp_close+0x90>
     57e:	4b49      	ldr	r3, [pc, #292]	; (6a4 <tcp_close+0x194>)
     580:	681b      	ldr	r3, [r3, #0]
     582:	68da      	ldr	r2, [r3, #12]
     584:	687b      	ldr	r3, [r7, #4]
     586:	429a      	cmp	r2, r3
     588:	d105      	bne.n	596 <tcp_close+0x86>
     58a:	4b46      	ldr	r3, [pc, #280]	; (6a4 <tcp_close+0x194>)
     58c:	681b      	ldr	r3, [r3, #0]
     58e:	687a      	ldr	r2, [r7, #4]
     590:	68d2      	ldr	r2, [r2, #12]
     592:	60da      	str	r2, [r3, #12]
     594:	e008      	b.n	5a8 <tcp_close+0x98>
     596:	4b43      	ldr	r3, [pc, #268]	; (6a4 <tcp_close+0x194>)
     598:	681b      	ldr	r3, [r3, #0]
     59a:	68da      	ldr	r2, [r3, #12]
     59c:	4b41      	ldr	r3, [pc, #260]	; (6a4 <tcp_close+0x194>)
     59e:	601a      	str	r2, [r3, #0]
     5a0:	4b40      	ldr	r3, [pc, #256]	; (6a4 <tcp_close+0x194>)
     5a2:	681b      	ldr	r3, [r3, #0]
     5a4:	2b00      	cmp	r3, #0
     5a6:	d1ea      	bne.n	57e <tcp_close+0x6e>
     5a8:	687b      	ldr	r3, [r7, #4]
     5aa:	f04f 0200 	mov.w	r2, #0
     5ae:	60da      	str	r2, [r3, #12]
     5b0:	f04f 0002 	mov.w	r0, #2
     5b4:	6879      	ldr	r1, [r7, #4]
     5b6:	f001 fe9d 	bl	22f4 <memp_free>
     5ba:	f04f 0300 	mov.w	r3, #0
     5be:	607b      	str	r3, [r7, #4]
     5c0:	e05b      	b.n	67a <tcp_close+0x16a>
     5c2:	f04f 0300 	mov.w	r3, #0
     5c6:	73fb      	strb	r3, [r7, #15]
     5c8:	4837      	ldr	r0, [pc, #220]	; (6a8 <tcp_close+0x198>)
     5ca:	6879      	ldr	r1, [r7, #4]
     5cc:	f001 f8c0 	bl	1750 <tcp_pcb_remove>
     5d0:	f04f 0003 	mov.w	r0, #3
     5d4:	6879      	ldr	r1, [r7, #4]
     5d6:	f001 fe8d 	bl	22f4 <memp_free>
     5da:	f04f 0300 	mov.w	r3, #0
     5de:	607b      	str	r3, [r7, #4]
     5e0:	e04b      	b.n	67a <tcp_close+0x16a>
     5e2:	f04f 0300 	mov.w	r3, #0
     5e6:	73fb      	strb	r3, [r7, #15]
     5e8:	4830      	ldr	r0, [pc, #192]	; (6ac <tcp_close+0x19c>)
     5ea:	6879      	ldr	r1, [r7, #4]
     5ec:	f001 f8b0 	bl	1750 <tcp_pcb_remove>
     5f0:	f04f 0002 	mov.w	r0, #2
     5f4:	6879      	ldr	r1, [r7, #4]
     5f6:	f001 fe7d 	bl	22f4 <memp_free>
     5fa:	f04f 0300 	mov.w	r3, #0
     5fe:	607b      	str	r3, [r7, #4]
     600:	e03b      	b.n	67a <tcp_close+0x16a>
     602:	6878      	ldr	r0, [r7, #4]
     604:	f04f 0101 	mov.w	r1, #1
     608:	f007 f9c6 	bl	7998 <tcp_send_ctrl>
     60c:	4603      	mov	r3, r0
     60e:	73fb      	strb	r3, [r7, #15]
     610:	f997 300f 	ldrsb.w	r3, [r7, #15]
     614:	2b00      	cmp	r3, #0
     616:	d12b      	bne.n	670 <tcp_close+0x160>
     618:	687b      	ldr	r3, [r7, #4]
     61a:	f04f 0205 	mov.w	r2, #5
     61e:	741a      	strb	r2, [r3, #16]
     620:	e02b      	b.n	67a <tcp_close+0x16a>
     622:	6878      	ldr	r0, [r7, #4]
     624:	f04f 0101 	mov.w	r1, #1
     628:	f007 f9b6 	bl	7998 <tcp_send_ctrl>
     62c:	4603      	mov	r3, r0
     62e:	73fb      	strb	r3, [r7, #15]
     630:	f997 300f 	ldrsb.w	r3, [r7, #15]
     634:	2b00      	cmp	r3, #0
     636:	d11d      	bne.n	674 <tcp_close+0x164>
     638:	687b      	ldr	r3, [r7, #4]
     63a:	f04f 0205 	mov.w	r2, #5
     63e:	741a      	strb	r2, [r3, #16]
     640:	e01b      	b.n	67a <tcp_close+0x16a>
     642:	6878      	ldr	r0, [r7, #4]
     644:	f04f 0101 	mov.w	r1, #1
     648:	f007 f9a6 	bl	7998 <tcp_send_ctrl>
     64c:	4603      	mov	r3, r0
     64e:	73fb      	strb	r3, [r7, #15]
     650:	f997 300f 	ldrsb.w	r3, [r7, #15]
     654:	2b00      	cmp	r3, #0
     656:	d10f      	bne.n	678 <tcp_close+0x168>
     658:	687b      	ldr	r3, [r7, #4]
     65a:	f04f 0209 	mov.w	r2, #9
     65e:	741a      	strb	r2, [r3, #16]
     660:	e00b      	b.n	67a <tcp_close+0x16a>
     662:	f04f 0300 	mov.w	r3, #0
     666:	73fb      	strb	r3, [r7, #15]
     668:	f04f 0300 	mov.w	r3, #0
     66c:	607b      	str	r3, [r7, #4]
     66e:	e004      	b.n	67a <tcp_close+0x16a>
     670:	bf00      	nop
     672:	e002      	b.n	67a <tcp_close+0x16a>
     674:	bf00      	nop
     676:	e000      	b.n	67a <tcp_close+0x16a>
     678:	bf00      	nop
     67a:	687b      	ldr	r3, [r7, #4]
     67c:	2b00      	cmp	r3, #0
     67e:	d006      	beq.n	68e <tcp_close+0x17e>
     680:	f997 300f 	ldrsb.w	r3, [r7, #15]
     684:	2b00      	cmp	r3, #0
     686:	d102      	bne.n	68e <tcp_close+0x17e>
     688:	6878      	ldr	r0, [r7, #4]
     68a:	f007 fe0f 	bl	82ac <tcp_output>
     68e:	7bfb      	ldrb	r3, [r7, #15]
     690:	b25b      	sxtb	r3, r3
     692:	4618      	mov	r0, r3
     694:	f107 0710 	add.w	r7, r7, #16
     698:	46bd      	mov	sp, r7
     69a:	bd80      	pop	{r7, pc}
     69c:	0000919c 	.word	0x0000919c
     6a0:	20003de4 	.word	0x20003de4
     6a4:	20003de0 	.word	0x20003de0
     6a8:	20003ddc 	.word	0x20003ddc
     6ac:	20003dd4 	.word	0x20003dd4

000006b0 <tcp_abandon>:
     6b0:	b580      	push	{r7, lr}
     6b2:	b08c      	sub	sp, #48	; 0x30
     6b4:	af02      	add	r7, sp, #8
     6b6:	6078      	str	r0, [r7, #4]
     6b8:	6039      	str	r1, [r7, #0]
     6ba:	687b      	ldr	r3, [r7, #4]
     6bc:	7c1b      	ldrb	r3, [r3, #16]
     6be:	2b0a      	cmp	r3, #10
     6c0:	d109      	bne.n	6d6 <tcp_abandon+0x26>
     6c2:	4839      	ldr	r0, [pc, #228]	; (7a8 <tcp_abandon+0xf8>)
     6c4:	6879      	ldr	r1, [r7, #4]
     6c6:	f001 f843 	bl	1750 <tcp_pcb_remove>
     6ca:	f04f 0002 	mov.w	r0, #2
     6ce:	6879      	ldr	r1, [r7, #4]
     6d0:	f001 fe10 	bl	22f4 <memp_free>
     6d4:	e064      	b.n	7a0 <tcp_abandon+0xf0>
     6d6:	687b      	ldr	r3, [r7, #4]
     6d8:	6d9b      	ldr	r3, [r3, #88]	; 0x58
     6da:	627b      	str	r3, [r7, #36]	; 0x24
     6dc:	687b      	ldr	r3, [r7, #4]
     6de:	6a5b      	ldr	r3, [r3, #36]	; 0x24
     6e0:	623b      	str	r3, [r7, #32]
     6e2:	687b      	ldr	r3, [r7, #4]
     6e4:	2b00      	cmp	r3, #0
     6e6:	d002      	beq.n	6ee <tcp_abandon+0x3e>
     6e8:	687b      	ldr	r3, [r7, #4]
     6ea:	681b      	ldr	r3, [r3, #0]
     6ec:	e001      	b.n	6f2 <tcp_abandon+0x42>
     6ee:	f04f 0300 	mov.w	r3, #0
     6f2:	60fb      	str	r3, [r7, #12]
     6f4:	687b      	ldr	r3, [r7, #4]
     6f6:	f103 0304 	add.w	r3, r3, #4
     6fa:	2b00      	cmp	r3, #0
     6fc:	d002      	beq.n	704 <tcp_abandon+0x54>
     6fe:	687b      	ldr	r3, [r7, #4]
     700:	685b      	ldr	r3, [r3, #4]
     702:	e001      	b.n	708 <tcp_abandon+0x58>
     704:	f04f 0300 	mov.w	r3, #0
     708:	613b      	str	r3, [r7, #16]
     70a:	687b      	ldr	r3, [r7, #4]
     70c:	8b1b      	ldrh	r3, [r3, #24]
     70e:	83fb      	strh	r3, [r7, #30]
     710:	687b      	ldr	r3, [r7, #4]
     712:	8c1b      	ldrh	r3, [r3, #32]
     714:	83bb      	strh	r3, [r7, #28]
     716:	687b      	ldr	r3, [r7, #4]
     718:	f8d3 3094 	ldr.w	r3, [r3, #148]	; 0x94
     71c:	61bb      	str	r3, [r7, #24]
     71e:	687b      	ldr	r3, [r7, #4]
     720:	695b      	ldr	r3, [r3, #20]
     722:	617b      	str	r3, [r7, #20]
     724:	4821      	ldr	r0, [pc, #132]	; (7ac <tcp_abandon+0xfc>)
     726:	6879      	ldr	r1, [r7, #4]
     728:	f001 f812 	bl	1750 <tcp_pcb_remove>
     72c:	687b      	ldr	r3, [r7, #4]
     72e:	6f9b      	ldr	r3, [r3, #120]	; 0x78
     730:	2b00      	cmp	r3, #0
     732:	d004      	beq.n	73e <tcp_abandon+0x8e>
     734:	687b      	ldr	r3, [r7, #4]
     736:	6f9b      	ldr	r3, [r3, #120]	; 0x78
     738:	4618      	mov	r0, r3
     73a:	f000 fd91 	bl	1260 <tcp_segs_free>
     73e:	687b      	ldr	r3, [r7, #4]
     740:	6f5b      	ldr	r3, [r3, #116]	; 0x74
     742:	2b00      	cmp	r3, #0
     744:	d004      	beq.n	750 <tcp_abandon+0xa0>
     746:	687b      	ldr	r3, [r7, #4]
     748:	6f5b      	ldr	r3, [r3, #116]	; 0x74
     74a:	4618      	mov	r0, r3
     74c:	f000 fd88 	bl	1260 <tcp_segs_free>
     750:	687b      	ldr	r3, [r7, #4]
     752:	6fdb      	ldr	r3, [r3, #124]	; 0x7c
     754:	2b00      	cmp	r3, #0
     756:	d004      	beq.n	762 <tcp_abandon+0xb2>
     758:	687b      	ldr	r3, [r7, #4]
     75a:	6fdb      	ldr	r3, [r3, #124]	; 0x7c
     75c:	4618      	mov	r0, r3
     75e:	f000 fd7f 	bl	1260 <tcp_segs_free>
     762:	f04f 0002 	mov.w	r0, #2
     766:	6879      	ldr	r1, [r7, #4]
     768:	f001 fdc4 	bl	22f4 <memp_free>
     76c:	69bb      	ldr	r3, [r7, #24]
     76e:	2b00      	cmp	r3, #0
     770:	d004      	beq.n	77c <tcp_abandon+0xcc>
     772:	69bb      	ldr	r3, [r7, #24]
     774:	6978      	ldr	r0, [r7, #20]
     776:	f06f 0104 	mvn.w	r1, #4
     77a:	4798      	blx	r3
     77c:	683b      	ldr	r3, [r7, #0]
     77e:	2b00      	cmp	r3, #0
     780:	d00e      	beq.n	7a0 <tcp_abandon+0xf0>
     782:	480b      	ldr	r0, [pc, #44]	; (7b0 <tcp_abandon+0x100>)
     784:	f005 f8ba 	bl	58fc <DebugPrintf>
     788:	f107 020c 	add.w	r2, r7, #12
     78c:	f107 0310 	add.w	r3, r7, #16
     790:	8bf9      	ldrh	r1, [r7, #30]
     792:	9100      	str	r1, [sp, #0]
     794:	8bb9      	ldrh	r1, [r7, #28]
     796:	9101      	str	r1, [sp, #4]
     798:	6a78      	ldr	r0, [r7, #36]	; 0x24
     79a:	6a39      	ldr	r1, [r7, #32]
     79c:	f008 f868 	bl	8870 <tcp_rst>
     7a0:	f107 0728 	add.w	r7, r7, #40	; 0x28
     7a4:	46bd      	mov	sp, r7
     7a6:	bd80      	pop	{r7, pc}
     7a8:	20003de8 	.word	0x20003de8
     7ac:	20003dd4 	.word	0x20003dd4
     7b0:	000091b4 	.word	0x000091b4

000007b4 <tcp_bind>:
     7b4:	b580      	push	{r7, lr}
     7b6:	b086      	sub	sp, #24
     7b8:	af00      	add	r7, sp, #0
     7ba:	60f8      	str	r0, [r7, #12]
     7bc:	60b9      	str	r1, [r7, #8]
     7be:	4613      	mov	r3, r2
     7c0:	80fb      	strh	r3, [r7, #6]
     7c2:	68fb      	ldr	r3, [r7, #12]
     7c4:	7c1b      	ldrb	r3, [r3, #16]
     7c6:	2b00      	cmp	r3, #0
     7c8:	d002      	beq.n	7d0 <tcp_bind+0x1c>
     7ca:	f04f 03f3 	mov.w	r3, #243	; 0xf3
     7ce:	e0ae      	b.n	92e <tcp_bind+0x17a>
     7d0:	88fb      	ldrh	r3, [r7, #6]
     7d2:	2b00      	cmp	r3, #0
     7d4:	d103      	bne.n	7de <tcp_bind+0x2a>
     7d6:	f000 f9db 	bl	b90 <tcp_new_port>
     7da:	4603      	mov	r3, r0
     7dc:	80fb      	strh	r3, [r7, #6]
     7de:	4b57      	ldr	r3, [pc, #348]	; (93c <tcp_bind+0x188>)
     7e0:	681b      	ldr	r3, [r3, #0]
     7e2:	617b      	str	r3, [r7, #20]
     7e4:	e01e      	b.n	824 <tcp_bind+0x70>
     7e6:	697b      	ldr	r3, [r7, #20]
     7e8:	8b1b      	ldrh	r3, [r3, #24]
     7ea:	88fa      	ldrh	r2, [r7, #6]
     7ec:	429a      	cmp	r2, r3
     7ee:	d116      	bne.n	81e <tcp_bind+0x6a>
     7f0:	697b      	ldr	r3, [r7, #20]
     7f2:	2b00      	cmp	r3, #0
     7f4:	d010      	beq.n	818 <tcp_bind+0x64>
     7f6:	697b      	ldr	r3, [r7, #20]
     7f8:	681b      	ldr	r3, [r3, #0]
     7fa:	2b00      	cmp	r3, #0
     7fc:	d00c      	beq.n	818 <tcp_bind+0x64>
     7fe:	68bb      	ldr	r3, [r7, #8]
     800:	2b00      	cmp	r3, #0
     802:	d009      	beq.n	818 <tcp_bind+0x64>
     804:	68bb      	ldr	r3, [r7, #8]
     806:	681b      	ldr	r3, [r3, #0]
     808:	2b00      	cmp	r3, #0
     80a:	d005      	beq.n	818 <tcp_bind+0x64>
     80c:	697b      	ldr	r3, [r7, #20]
     80e:	681a      	ldr	r2, [r3, #0]
     810:	68bb      	ldr	r3, [r7, #8]
     812:	681b      	ldr	r3, [r3, #0]
     814:	429a      	cmp	r2, r3
     816:	d102      	bne.n	81e <tcp_bind+0x6a>
     818:	f04f 03f5 	mov.w	r3, #245	; 0xf5
     81c:	e087      	b.n	92e <tcp_bind+0x17a>
     81e:	697b      	ldr	r3, [r7, #20]
     820:	68db      	ldr	r3, [r3, #12]
     822:	617b      	str	r3, [r7, #20]
     824:	697b      	ldr	r3, [r7, #20]
     826:	2b00      	cmp	r3, #0
     828:	d1dd      	bne.n	7e6 <tcp_bind+0x32>
     82a:	4b45      	ldr	r3, [pc, #276]	; (940 <tcp_bind+0x18c>)
     82c:	681b      	ldr	r3, [r3, #0]
     82e:	617b      	str	r3, [r7, #20]
     830:	e01e      	b.n	870 <tcp_bind+0xbc>
     832:	697b      	ldr	r3, [r7, #20]
     834:	8b1b      	ldrh	r3, [r3, #24]
     836:	88fa      	ldrh	r2, [r7, #6]
     838:	429a      	cmp	r2, r3
     83a:	d116      	bne.n	86a <tcp_bind+0xb6>
     83c:	697b      	ldr	r3, [r7, #20]
     83e:	2b00      	cmp	r3, #0
     840:	d010      	beq.n	864 <tcp_bind+0xb0>
     842:	697b      	ldr	r3, [r7, #20]
     844:	681b      	ldr	r3, [r3, #0]
     846:	2b00      	cmp	r3, #0
     848:	d00c      	beq.n	864 <tcp_bind+0xb0>
     84a:	68bb      	ldr	r3, [r7, #8]
     84c:	2b00      	cmp	r3, #0
     84e:	d009      	beq.n	864 <tcp_bind+0xb0>
     850:	68bb      	ldr	r3, [r7, #8]
     852:	681b      	ldr	r3, [r3, #0]
     854:	2b00      	cmp	r3, #0
     856:	d005      	beq.n	864 <tcp_bind+0xb0>
     858:	697b      	ldr	r3, [r7, #20]
     85a:	681a      	ldr	r2, [r3, #0]
     85c:	68bb      	ldr	r3, [r7, #8]
     85e:	681b      	ldr	r3, [r3, #0]
     860:	429a      	cmp	r2, r3
     862:	d102      	bne.n	86a <tcp_bind+0xb6>
     864:	f04f 03f5 	mov.w	r3, #245	; 0xf5
     868:	e061      	b.n	92e <tcp_bind+0x17a>
     86a:	697b      	ldr	r3, [r7, #20]
     86c:	68db      	ldr	r3, [r3, #12]
     86e:	617b      	str	r3, [r7, #20]
     870:	697b      	ldr	r3, [r7, #20]
     872:	2b00      	cmp	r3, #0
     874:	d1dd      	bne.n	832 <tcp_bind+0x7e>
     876:	4b33      	ldr	r3, [pc, #204]	; (944 <tcp_bind+0x190>)
     878:	681b      	ldr	r3, [r3, #0]
     87a:	617b      	str	r3, [r7, #20]
     87c:	e01e      	b.n	8bc <tcp_bind+0x108>
     87e:	697b      	ldr	r3, [r7, #20]
     880:	8b1b      	ldrh	r3, [r3, #24]
     882:	88fa      	ldrh	r2, [r7, #6]
     884:	429a      	cmp	r2, r3
     886:	d116      	bne.n	8b6 <tcp_bind+0x102>
     888:	697b      	ldr	r3, [r7, #20]
     88a:	2b00      	cmp	r3, #0
     88c:	d010      	beq.n	8b0 <tcp_bind+0xfc>
     88e:	697b      	ldr	r3, [r7, #20]
     890:	681b      	ldr	r3, [r3, #0]
     892:	2b00      	cmp	r3, #0
     894:	d00c      	beq.n	8b0 <tcp_bind+0xfc>
     896:	68bb      	ldr	r3, [r7, #8]
     898:	2b00      	cmp	r3, #0
     89a:	d009      	beq.n	8b0 <tcp_bind+0xfc>
     89c:	68bb      	ldr	r3, [r7, #8]
     89e:	681b      	ldr	r3, [r3, #0]
     8a0:	2b00      	cmp	r3, #0
     8a2:	d005      	beq.n	8b0 <tcp_bind+0xfc>
     8a4:	697b      	ldr	r3, [r7, #20]
     8a6:	681a      	ldr	r2, [r3, #0]
     8a8:	68bb      	ldr	r3, [r7, #8]
     8aa:	681b      	ldr	r3, [r3, #0]
     8ac:	429a      	cmp	r2, r3
     8ae:	d102      	bne.n	8b6 <tcp_bind+0x102>
     8b0:	f04f 03f5 	mov.w	r3, #245	; 0xf5
     8b4:	e03b      	b.n	92e <tcp_bind+0x17a>
     8b6:	697b      	ldr	r3, [r7, #20]
     8b8:	68db      	ldr	r3, [r3, #12]
     8ba:	617b      	str	r3, [r7, #20]
     8bc:	697b      	ldr	r3, [r7, #20]
     8be:	2b00      	cmp	r3, #0
     8c0:	d1dd      	bne.n	87e <tcp_bind+0xca>
     8c2:	4b21      	ldr	r3, [pc, #132]	; (948 <tcp_bind+0x194>)
     8c4:	681b      	ldr	r3, [r3, #0]
     8c6:	617b      	str	r3, [r7, #20]
     8c8:	e010      	b.n	8ec <tcp_bind+0x138>
     8ca:	697b      	ldr	r3, [r7, #20]
     8cc:	8b1b      	ldrh	r3, [r3, #24]
     8ce:	88fa      	ldrh	r2, [r7, #6]
     8d0:	429a      	cmp	r2, r3
     8d2:	d108      	bne.n	8e6 <tcp_bind+0x132>
     8d4:	697b      	ldr	r3, [r7, #20]
     8d6:	681a      	ldr	r2, [r3, #0]
     8d8:	68bb      	ldr	r3, [r7, #8]
     8da:	681b      	ldr	r3, [r3, #0]
     8dc:	429a      	cmp	r2, r3
     8de:	d102      	bne.n	8e6 <tcp_bind+0x132>
     8e0:	f04f 03f5 	mov.w	r3, #245	; 0xf5
     8e4:	e023      	b.n	92e <tcp_bind+0x17a>
     8e6:	697b      	ldr	r3, [r7, #20]
     8e8:	68db      	ldr	r3, [r3, #12]
     8ea:	617b      	str	r3, [r7, #20]
     8ec:	697b      	ldr	r3, [r7, #20]
     8ee:	2b00      	cmp	r3, #0
     8f0:	d1eb      	bne.n	8ca <tcp_bind+0x116>
     8f2:	68bb      	ldr	r3, [r7, #8]
     8f4:	2b00      	cmp	r3, #0
     8f6:	d007      	beq.n	908 <tcp_bind+0x154>
     8f8:	68bb      	ldr	r3, [r7, #8]
     8fa:	681b      	ldr	r3, [r3, #0]
     8fc:	2b00      	cmp	r3, #0
     8fe:	d003      	beq.n	908 <tcp_bind+0x154>
     900:	68fb      	ldr	r3, [r7, #12]
     902:	68ba      	ldr	r2, [r7, #8]
     904:	6810      	ldr	r0, [r2, #0]
     906:	6018      	str	r0, [r3, #0]
     908:	68fb      	ldr	r3, [r7, #12]
     90a:	88fa      	ldrh	r2, [r7, #6]
     90c:	831a      	strh	r2, [r3, #24]
     90e:	4b0d      	ldr	r3, [pc, #52]	; (944 <tcp_bind+0x190>)
     910:	681a      	ldr	r2, [r3, #0]
     912:	68fb      	ldr	r3, [r7, #12]
     914:	60da      	str	r2, [r3, #12]
     916:	4b0b      	ldr	r3, [pc, #44]	; (944 <tcp_bind+0x190>)
     918:	68fa      	ldr	r2, [r7, #12]
     91a:	601a      	str	r2, [r3, #0]
     91c:	f001 fee6 	bl	26ec <tcp_timer_needed>
     920:	88fb      	ldrh	r3, [r7, #6]
     922:	480a      	ldr	r0, [pc, #40]	; (94c <tcp_bind+0x198>)
     924:	4619      	mov	r1, r3
     926:	f004 ffe9 	bl	58fc <DebugPrintf>
     92a:	f04f 0300 	mov.w	r3, #0
     92e:	b25b      	sxtb	r3, r3
     930:	4618      	mov	r0, r3
     932:	f107 0718 	add.w	r7, r7, #24
     936:	46bd      	mov	sp, r7
     938:	bd80      	pop	{r7, pc}
     93a:	bf00      	nop
     93c:	20003ddc 	.word	0x20003ddc
     940:	20003dd4 	.word	0x20003dd4
     944:	20003de4 	.word	0x20003de4
     948:	20003de8 	.word	0x20003de8
     94c:	000091d0 	.word	0x000091d0

00000950 <tcp_accept_null>:
     950:	b480      	push	{r7}
     952:	b085      	sub	sp, #20
     954:	af00      	add	r7, sp, #0
     956:	60f8      	str	r0, [r7, #12]
     958:	60b9      	str	r1, [r7, #8]
     95a:	4613      	mov	r3, r2
     95c:	71fb      	strb	r3, [r7, #7]
     95e:	f04f 03fb 	mov.w	r3, #251	; 0xfb
     962:	b25b      	sxtb	r3, r3
     964:	4618      	mov	r0, r3
     966:	f107 0714 	add.w	r7, r7, #20
     96a:	46bd      	mov	sp, r7
     96c:	bc80      	pop	{r7}
     96e:	4770      	bx	lr

00000970 <tcp_listen_with_backlog>:
     970:	b580      	push	{r7, lr}
     972:	b084      	sub	sp, #16
     974:	af00      	add	r7, sp, #0
     976:	6078      	str	r0, [r7, #4]
     978:	460b      	mov	r3, r1
     97a:	70fb      	strb	r3, [r7, #3]
     97c:	687b      	ldr	r3, [r7, #4]
     97e:	7c1b      	ldrb	r3, [r3, #16]
     980:	2b00      	cmp	r3, #0
     982:	d002      	beq.n	98a <tcp_listen_with_backlog+0x1a>
     984:	f04f 0300 	mov.w	r3, #0
     988:	e075      	b.n	a76 <tcp_listen_with_backlog+0x106>
     98a:	687b      	ldr	r3, [r7, #4]
     98c:	7c1b      	ldrb	r3, [r3, #16]
     98e:	2b01      	cmp	r3, #1
     990:	d101      	bne.n	996 <tcp_listen_with_backlog+0x26>
     992:	687b      	ldr	r3, [r7, #4]
     994:	e06f      	b.n	a76 <tcp_listen_with_backlog+0x106>
     996:	f04f 0003 	mov.w	r0, #3
     99a:	f001 fc09 	bl	21b0 <memp_malloc>
     99e:	4603      	mov	r3, r0
     9a0:	60fb      	str	r3, [r7, #12]
     9a2:	68fb      	ldr	r3, [r7, #12]
     9a4:	2b00      	cmp	r3, #0
     9a6:	d102      	bne.n	9ae <tcp_listen_with_backlog+0x3e>
     9a8:	f04f 0300 	mov.w	r3, #0
     9ac:	e063      	b.n	a76 <tcp_listen_with_backlog+0x106>
     9ae:	687b      	ldr	r3, [r7, #4]
     9b0:	695a      	ldr	r2, [r3, #20]
     9b2:	68fb      	ldr	r3, [r7, #12]
     9b4:	615a      	str	r2, [r3, #20]
     9b6:	687b      	ldr	r3, [r7, #4]
     9b8:	8b1a      	ldrh	r2, [r3, #24]
     9ba:	68fb      	ldr	r3, [r7, #12]
     9bc:	831a      	strh	r2, [r3, #24]
     9be:	68fb      	ldr	r3, [r7, #12]
     9c0:	f04f 0201 	mov.w	r2, #1
     9c4:	741a      	strb	r2, [r3, #16]
     9c6:	687b      	ldr	r3, [r7, #4]
     9c8:	891a      	ldrh	r2, [r3, #8]
     9ca:	68fb      	ldr	r3, [r7, #12]
     9cc:	811a      	strh	r2, [r3, #8]
     9ce:	68fb      	ldr	r3, [r7, #12]
     9d0:	891b      	ldrh	r3, [r3, #8]
     9d2:	f043 0302 	orr.w	r3, r3, #2
     9d6:	b29a      	uxth	r2, r3
     9d8:	68fb      	ldr	r3, [r7, #12]
     9da:	811a      	strh	r2, [r3, #8]
     9dc:	687b      	ldr	r3, [r7, #4]
     9de:	7ada      	ldrb	r2, [r3, #11]
     9e0:	68fb      	ldr	r3, [r7, #12]
     9e2:	72da      	strb	r2, [r3, #11]
     9e4:	687b      	ldr	r3, [r7, #4]
     9e6:	7a9a      	ldrb	r2, [r3, #10]
     9e8:	68fb      	ldr	r3, [r7, #12]
     9ea:	729a      	strb	r2, [r3, #10]
     9ec:	687b      	ldr	r3, [r7, #4]
     9ee:	2b00      	cmp	r3, #0
     9f0:	d002      	beq.n	9f8 <tcp_listen_with_backlog+0x88>
     9f2:	687b      	ldr	r3, [r7, #4]
     9f4:	681b      	ldr	r3, [r3, #0]
     9f6:	e001      	b.n	9fc <tcp_listen_with_backlog+0x8c>
     9f8:	f04f 0300 	mov.w	r3, #0
     9fc:	68fa      	ldr	r2, [r7, #12]
     9fe:	6013      	str	r3, [r2, #0]
     a00:	4b1f      	ldr	r3, [pc, #124]	; (a80 <tcp_listen_with_backlog+0x110>)
     a02:	681a      	ldr	r2, [r3, #0]
     a04:	687b      	ldr	r3, [r7, #4]
     a06:	429a      	cmp	r2, r3
     a08:	d105      	bne.n	a16 <tcp_listen_with_backlog+0xa6>
     a0a:	4b1d      	ldr	r3, [pc, #116]	; (a80 <tcp_listen_with_backlog+0x110>)
     a0c:	681b      	ldr	r3, [r3, #0]
     a0e:	68da      	ldr	r2, [r3, #12]
     a10:	4b1b      	ldr	r3, [pc, #108]	; (a80 <tcp_listen_with_backlog+0x110>)
     a12:	601a      	str	r2, [r3, #0]
     a14:	e019      	b.n	a4a <tcp_listen_with_backlog+0xda>
     a16:	4b1a      	ldr	r3, [pc, #104]	; (a80 <tcp_listen_with_backlog+0x110>)
     a18:	681a      	ldr	r2, [r3, #0]
     a1a:	4b1a      	ldr	r3, [pc, #104]	; (a84 <tcp_listen_with_backlog+0x114>)
     a1c:	601a      	str	r2, [r3, #0]
     a1e:	e010      	b.n	a42 <tcp_listen_with_backlog+0xd2>
     a20:	4b18      	ldr	r3, [pc, #96]	; (a84 <tcp_listen_with_backlog+0x114>)
     a22:	681b      	ldr	r3, [r3, #0]
     a24:	68da      	ldr	r2, [r3, #12]
     a26:	687b      	ldr	r3, [r7, #4]
     a28:	429a      	cmp	r2, r3
     a2a:	d105      	bne.n	a38 <tcp_listen_with_backlog+0xc8>
     a2c:	4b15      	ldr	r3, [pc, #84]	; (a84 <tcp_listen_with_backlog+0x114>)
     a2e:	681b      	ldr	r3, [r3, #0]
     a30:	687a      	ldr	r2, [r7, #4]
     a32:	68d2      	ldr	r2, [r2, #12]
     a34:	60da      	str	r2, [r3, #12]
     a36:	e008      	b.n	a4a <tcp_listen_with_backlog+0xda>
     a38:	4b12      	ldr	r3, [pc, #72]	; (a84 <tcp_listen_with_backlog+0x114>)
     a3a:	681b      	ldr	r3, [r3, #0]
     a3c:	68da      	ldr	r2, [r3, #12]
     a3e:	4b11      	ldr	r3, [pc, #68]	; (a84 <tcp_listen_with_backlog+0x114>)
     a40:	601a      	str	r2, [r3, #0]
     a42:	4b10      	ldr	r3, [pc, #64]	; (a84 <tcp_listen_with_backlog+0x114>)
     a44:	681b      	ldr	r3, [r3, #0]
     a46:	2b00      	cmp	r3, #0
     a48:	d1ea      	bne.n	a20 <tcp_listen_with_backlog+0xb0>
     a4a:	687b      	ldr	r3, [r7, #4]
     a4c:	f04f 0200 	mov.w	r2, #0
     a50:	60da      	str	r2, [r3, #12]
     a52:	f04f 0002 	mov.w	r0, #2
     a56:	6879      	ldr	r1, [r7, #4]
     a58:	f001 fc4c 	bl	22f4 <memp_free>
     a5c:	68fb      	ldr	r3, [r7, #12]
     a5e:	4a0a      	ldr	r2, [pc, #40]	; (a88 <tcp_listen_with_backlog+0x118>)
     a60:	61da      	str	r2, [r3, #28]
     a62:	4b0a      	ldr	r3, [pc, #40]	; (a8c <tcp_listen_with_backlog+0x11c>)
     a64:	681a      	ldr	r2, [r3, #0]
     a66:	68fb      	ldr	r3, [r7, #12]
     a68:	60da      	str	r2, [r3, #12]
     a6a:	4b08      	ldr	r3, [pc, #32]	; (a8c <tcp_listen_with_backlog+0x11c>)
     a6c:	68fa      	ldr	r2, [r7, #12]
     a6e:	601a      	str	r2, [r3, #0]
     a70:	f001 fe3c 	bl	26ec <tcp_timer_needed>
     a74:	68fb      	ldr	r3, [r7, #12]
     a76:	4618      	mov	r0, r3
     a78:	f107 0710 	add.w	r7, r7, #16
     a7c:	46bd      	mov	sp, r7
     a7e:	bd80      	pop	{r7, pc}
     a80:	20003de4 	.word	0x20003de4
     a84:	20003de0 	.word	0x20003de0
     a88:	00000951 	.word	0x00000951
     a8c:	20003ddc 	.word	0x20003ddc

00000a90 <tcp_update_rcv_ann_wnd>:
     a90:	b480      	push	{r7}
     a92:	b085      	sub	sp, #20
     a94:	af00      	add	r7, sp, #0
     a96:	6078      	str	r0, [r7, #4]
     a98:	687b      	ldr	r3, [r7, #4]
     a9a:	6a5a      	ldr	r2, [r3, #36]	; 0x24
     a9c:	687b      	ldr	r3, [r7, #4]
     a9e:	8d1b      	ldrh	r3, [r3, #40]	; 0x28
     aa0:	18d3      	adds	r3, r2, r3
     aa2:	60fb      	str	r3, [r7, #12]
     aa4:	687b      	ldr	r3, [r7, #4]
     aa6:	6ada      	ldr	r2, [r3, #44]	; 0x2c
     aa8:	687b      	ldr	r3, [r7, #4]
     aaa:	8f1b      	ldrh	r3, [r3, #56]	; 0x38
     aac:	f5b3 6f00 	cmp.w	r3, #2048	; 0x800
     ab0:	d802      	bhi.n	ab8 <tcp_update_rcv_ann_wnd+0x28>
     ab2:	687b      	ldr	r3, [r7, #4]
     ab4:	8f1b      	ldrh	r3, [r3, #56]	; 0x38
     ab6:	e001      	b.n	abc <tcp_update_rcv_ann_wnd+0x2c>
     ab8:	f44f 6300 	mov.w	r3, #2048	; 0x800
     abc:	18d3      	adds	r3, r2, r3
     abe:	68fa      	ldr	r2, [r7, #12]
     ac0:	1ad3      	subs	r3, r2, r3
     ac2:	2b00      	cmp	r3, #0
     ac4:	db08      	blt.n	ad8 <tcp_update_rcv_ann_wnd+0x48>
     ac6:	687b      	ldr	r3, [r7, #4]
     ac8:	8d1a      	ldrh	r2, [r3, #40]	; 0x28
     aca:	687b      	ldr	r3, [r7, #4]
     acc:	855a      	strh	r2, [r3, #42]	; 0x2a
     ace:	687b      	ldr	r3, [r7, #4]
     ad0:	6adb      	ldr	r3, [r3, #44]	; 0x2c
     ad2:	68fa      	ldr	r2, [r7, #12]
     ad4:	1ad3      	subs	r3, r2, r3
     ad6:	e017      	b.n	b08 <tcp_update_rcv_ann_wnd+0x78>
     ad8:	687b      	ldr	r3, [r7, #4]
     ada:	6a5a      	ldr	r2, [r3, #36]	; 0x24
     adc:	687b      	ldr	r3, [r7, #4]
     ade:	6adb      	ldr	r3, [r3, #44]	; 0x2c
     ae0:	1ad3      	subs	r3, r2, r3
     ae2:	2b00      	cmp	r3, #0
     ae4:	dd04      	ble.n	af0 <tcp_update_rcv_ann_wnd+0x60>
     ae6:	687b      	ldr	r3, [r7, #4]
     ae8:	f04f 0200 	mov.w	r2, #0
     aec:	855a      	strh	r2, [r3, #42]	; 0x2a
     aee:	e009      	b.n	b04 <tcp_update_rcv_ann_wnd+0x74>
     af0:	687b      	ldr	r3, [r7, #4]
     af2:	6adb      	ldr	r3, [r3, #44]	; 0x2c
     af4:	b29a      	uxth	r2, r3
     af6:	687b      	ldr	r3, [r7, #4]
     af8:	6a5b      	ldr	r3, [r3, #36]	; 0x24
     afa:	b29b      	uxth	r3, r3
     afc:	1ad3      	subs	r3, r2, r3
     afe:	b29a      	uxth	r2, r3
     b00:	687b      	ldr	r3, [r7, #4]
     b02:	855a      	strh	r2, [r3, #42]	; 0x2a
     b04:	f04f 0300 	mov.w	r3, #0
     b08:	4618      	mov	r0, r3
     b0a:	f107 0714 	add.w	r7, r7, #20
     b0e:	46bd      	mov	sp, r7
     b10:	bc80      	pop	{r7}
     b12:	4770      	bx	lr

00000b14 <tcp_recved>:
     b14:	b580      	push	{r7, lr}
     b16:	b084      	sub	sp, #16
     b18:	af00      	add	r7, sp, #0
     b1a:	6078      	str	r0, [r7, #4]
     b1c:	460b      	mov	r3, r1
     b1e:	807b      	strh	r3, [r7, #2]
     b20:	687b      	ldr	r3, [r7, #4]
     b22:	8d1a      	ldrh	r2, [r3, #40]	; 0x28
     b24:	887b      	ldrh	r3, [r7, #2]
     b26:	18d3      	adds	r3, r2, r3
     b28:	b29a      	uxth	r2, r3
     b2a:	687b      	ldr	r3, [r7, #4]
     b2c:	851a      	strh	r2, [r3, #40]	; 0x28
     b2e:	687b      	ldr	r3, [r7, #4]
     b30:	8d1b      	ldrh	r3, [r3, #40]	; 0x28
     b32:	f5b3 5f80 	cmp.w	r3, #4096	; 0x1000
     b36:	d903      	bls.n	b40 <tcp_recved+0x2c>
     b38:	687b      	ldr	r3, [r7, #4]
     b3a:	f44f 5280 	mov.w	r2, #4096	; 0x1000
     b3e:	851a      	strh	r2, [r3, #40]	; 0x28
     b40:	6878      	ldr	r0, [r7, #4]
     b42:	f7ff ffa5 	bl	a90 <tcp_update_rcv_ann_wnd>
     b46:	4603      	mov	r3, r0
     b48:	60fb      	str	r3, [r7, #12]
     b4a:	68fa      	ldr	r2, [r7, #12]
     b4c:	f240 33ff 	movw	r3, #1023	; 0x3ff
     b50:	429a      	cmp	r2, r3
     b52:	dd0b      	ble.n	b6c <tcp_recved+0x58>
     b54:	687b      	ldr	r3, [r7, #4]
     b56:	f893 3022 	ldrb.w	r3, [r3, #34]	; 0x22
     b5a:	f043 0302 	orr.w	r3, r3, #2
     b5e:	b2da      	uxtb	r2, r3
     b60:	687b      	ldr	r3, [r7, #4]
     b62:	f883 2022 	strb.w	r2, [r3, #34]	; 0x22
     b66:	6878      	ldr	r0, [r7, #4]
     b68:	f007 fba0 	bl	82ac <tcp_output>
     b6c:	8879      	ldrh	r1, [r7, #2]
     b6e:	687b      	ldr	r3, [r7, #4]
     b70:	8d1b      	ldrh	r3, [r3, #40]	; 0x28
     b72:	461a      	mov	r2, r3
     b74:	687b      	ldr	r3, [r7, #4]
     b76:	8d1b      	ldrh	r3, [r3, #40]	; 0x28
     b78:	f5c3 5380 	rsb	r3, r3, #4096	; 0x1000
     b7c:	4803      	ldr	r0, [pc, #12]	; (b8c <tcp_recved+0x78>)
     b7e:	f004 febd 	bl	58fc <DebugPrintf>
     b82:	f107 0710 	add.w	r7, r7, #16
     b86:	46bd      	mov	sp, r7
     b88:	bd80      	pop	{r7, pc}
     b8a:	bf00      	nop
     b8c:	000091ec 	.word	0x000091ec

00000b90 <tcp_new_port>:
     b90:	b480      	push	{r7}
     b92:	b083      	sub	sp, #12
     b94:	af00      	add	r7, sp, #0
     b96:	e004      	b.n	ba2 <tcp_new_port+0x12>
     b98:	bf00      	nop
     b9a:	e002      	b.n	ba2 <tcp_new_port+0x12>
     b9c:	bf00      	nop
     b9e:	e000      	b.n	ba2 <tcp_new_port+0x12>
     ba0:	bf00      	nop
     ba2:	4b24      	ldr	r3, [pc, #144]	; (c34 <tcp_new_port+0xa4>)
     ba4:	881b      	ldrh	r3, [r3, #0]
     ba6:	f103 0301 	add.w	r3, r3, #1
     baa:	b29a      	uxth	r2, r3
     bac:	4b21      	ldr	r3, [pc, #132]	; (c34 <tcp_new_port+0xa4>)
     bae:	801a      	strh	r2, [r3, #0]
     bb0:	4b20      	ldr	r3, [pc, #128]	; (c34 <tcp_new_port+0xa4>)
     bb2:	881b      	ldrh	r3, [r3, #0]
     bb4:	b29b      	uxth	r3, r3
     bb6:	b21b      	sxth	r3, r3
     bb8:	2b00      	cmp	r3, #0
     bba:	da03      	bge.n	bc4 <tcp_new_port+0x34>
     bbc:	4b1d      	ldr	r3, [pc, #116]	; (c34 <tcp_new_port+0xa4>)
     bbe:	f44f 5280 	mov.w	r2, #4096	; 0x1000
     bc2:	801a      	strh	r2, [r3, #0]
     bc4:	4b1c      	ldr	r3, [pc, #112]	; (c38 <tcp_new_port+0xa8>)
     bc6:	681b      	ldr	r3, [r3, #0]
     bc8:	607b      	str	r3, [r7, #4]
     bca:	e008      	b.n	bde <tcp_new_port+0x4e>
     bcc:	687b      	ldr	r3, [r7, #4]
     bce:	8b1a      	ldrh	r2, [r3, #24]
     bd0:	4b18      	ldr	r3, [pc, #96]	; (c34 <tcp_new_port+0xa4>)
     bd2:	881b      	ldrh	r3, [r3, #0]
     bd4:	429a      	cmp	r2, r3
     bd6:	d0df      	beq.n	b98 <tcp_new_port+0x8>
     bd8:	687b      	ldr	r3, [r7, #4]
     bda:	68db      	ldr	r3, [r3, #12]
     bdc:	607b      	str	r3, [r7, #4]
     bde:	687b      	ldr	r3, [r7, #4]
     be0:	2b00      	cmp	r3, #0
     be2:	d1f3      	bne.n	bcc <tcp_new_port+0x3c>
     be4:	4b15      	ldr	r3, [pc, #84]	; (c3c <tcp_new_port+0xac>)
     be6:	681b      	ldr	r3, [r3, #0]
     be8:	607b      	str	r3, [r7, #4]
     bea:	e008      	b.n	bfe <tcp_new_port+0x6e>
     bec:	687b      	ldr	r3, [r7, #4]
     bee:	8b1a      	ldrh	r2, [r3, #24]
     bf0:	4b10      	ldr	r3, [pc, #64]	; (c34 <tcp_new_port+0xa4>)
     bf2:	881b      	ldrh	r3, [r3, #0]
     bf4:	429a      	cmp	r2, r3
     bf6:	d0d1      	beq.n	b9c <tcp_new_port+0xc>
     bf8:	687b      	ldr	r3, [r7, #4]
     bfa:	68db      	ldr	r3, [r3, #12]
     bfc:	607b      	str	r3, [r7, #4]
     bfe:	687b      	ldr	r3, [r7, #4]
     c00:	2b00      	cmp	r3, #0
     c02:	d1f3      	bne.n	bec <tcp_new_port+0x5c>
     c04:	4b0e      	ldr	r3, [pc, #56]	; (c40 <tcp_new_port+0xb0>)
     c06:	681b      	ldr	r3, [r3, #0]
     c08:	607b      	str	r3, [r7, #4]
     c0a:	e008      	b.n	c1e <tcp_new_port+0x8e>
     c0c:	687b      	ldr	r3, [r7, #4]
     c0e:	8b1a      	ldrh	r2, [r3, #24]
     c10:	4b08      	ldr	r3, [pc, #32]	; (c34 <tcp_new_port+0xa4>)
     c12:	881b      	ldrh	r3, [r3, #0]
     c14:	429a      	cmp	r2, r3
     c16:	d0c3      	beq.n	ba0 <tcp_new_port+0x10>
     c18:	687b      	ldr	r3, [r7, #4]
     c1a:	68db      	ldr	r3, [r3, #12]
     c1c:	607b      	str	r3, [r7, #4]
     c1e:	687b      	ldr	r3, [r7, #4]
     c20:	2b00      	cmp	r3, #0
     c22:	d1f3      	bne.n	c0c <tcp_new_port+0x7c>
     c24:	4b03      	ldr	r3, [pc, #12]	; (c34 <tcp_new_port+0xa4>)
     c26:	881b      	ldrh	r3, [r3, #0]
     c28:	4618      	mov	r0, r3
     c2a:	f107 070c 	add.w	r7, r7, #12
     c2e:	46bd      	mov	sp, r7
     c30:	bc80      	pop	{r7}
     c32:	4770      	bx	lr
     c34:	20000030 	.word	0x20000030
     c38:	20003dd4 	.word	0x20003dd4
     c3c:	20003de8 	.word	0x20003de8
     c40:	20003ddc 	.word	0x20003ddc

00000c44 <tcp_slowtmr>:
     c44:	b5f0      	push	{r4, r5, r6, r7, lr}
     c46:	b089      	sub	sp, #36	; 0x24
     c48:	af02      	add	r7, sp, #8
     c4a:	f04f 0300 	mov.w	r3, #0
     c4e:	737b      	strb	r3, [r7, #13]
     c50:	4b35      	ldr	r3, [pc, #212]	; (d28 <tcp_slowtmr+0xe4>)
     c52:	681b      	ldr	r3, [r3, #0]
     c54:	f103 0201 	add.w	r2, r3, #1
     c58:	4b33      	ldr	r3, [pc, #204]	; (d28 <tcp_slowtmr+0xe4>)
     c5a:	601a      	str	r2, [r3, #0]
     c5c:	f04f 0300 	mov.w	r3, #0
     c60:	613b      	str	r3, [r7, #16]
     c62:	4b32      	ldr	r3, [pc, #200]	; (d2c <tcp_slowtmr+0xe8>)
     c64:	681b      	ldr	r3, [r3, #0]
     c66:	617b      	str	r3, [r7, #20]
     c68:	697b      	ldr	r3, [r7, #20]
     c6a:	2b00      	cmp	r3, #0
     c6c:	f040 823d 	bne.w	10ea <tcp_slowtmr+0x4a6>
     c70:	482f      	ldr	r0, [pc, #188]	; (d30 <tcp_slowtmr+0xec>)
     c72:	f004 fe43 	bl	58fc <DebugPrintf>
     c76:	e238      	b.n	10ea <tcp_slowtmr+0x4a6>
     c78:	482e      	ldr	r0, [pc, #184]	; (d34 <tcp_slowtmr+0xf0>)
     c7a:	f004 fe3f 	bl	58fc <DebugPrintf>
     c7e:	f04f 0300 	mov.w	r3, #0
     c82:	73fb      	strb	r3, [r7, #15]
     c84:	f04f 0300 	mov.w	r3, #0
     c88:	73bb      	strb	r3, [r7, #14]
     c8a:	697b      	ldr	r3, [r7, #20]
     c8c:	7c1b      	ldrb	r3, [r3, #16]
     c8e:	2b02      	cmp	r3, #2
     c90:	d10c      	bne.n	cac <tcp_slowtmr+0x68>
     c92:	697b      	ldr	r3, [r7, #20]
     c94:	f893 304a 	ldrb.w	r3, [r3, #74]	; 0x4a
     c98:	2b06      	cmp	r3, #6
     c9a:	d107      	bne.n	cac <tcp_slowtmr+0x68>
     c9c:	7bfb      	ldrb	r3, [r7, #15]
     c9e:	f103 0301 	add.w	r3, r3, #1
     ca2:	73fb      	strb	r3, [r7, #15]
     ca4:	4824      	ldr	r0, [pc, #144]	; (d38 <tcp_slowtmr+0xf4>)
     ca6:	f004 fe29 	bl	58fc <DebugPrintf>
     caa:	e0c4      	b.n	e36 <tcp_slowtmr+0x1f2>
     cac:	697b      	ldr	r3, [r7, #20]
     cae:	f893 304a 	ldrb.w	r3, [r3, #74]	; 0x4a
     cb2:	2b0c      	cmp	r3, #12
     cb4:	d107      	bne.n	cc6 <tcp_slowtmr+0x82>
     cb6:	7bfb      	ldrb	r3, [r7, #15]
     cb8:	f103 0301 	add.w	r3, r3, #1
     cbc:	73fb      	strb	r3, [r7, #15]
     cbe:	481f      	ldr	r0, [pc, #124]	; (d3c <tcp_slowtmr+0xf8>)
     cc0:	f004 fe1c 	bl	58fc <DebugPrintf>
     cc4:	e0b7      	b.n	e36 <tcp_slowtmr+0x1f2>
     cc6:	697b      	ldr	r3, [r7, #20]
     cc8:	f893 30a0 	ldrb.w	r3, [r3, #160]	; 0xa0
     ccc:	2b00      	cmp	r3, #0
     cce:	d039      	beq.n	d44 <tcp_slowtmr+0x100>
     cd0:	697b      	ldr	r3, [r7, #20]
     cd2:	f8d3 309c 	ldr.w	r3, [r3, #156]	; 0x9c
     cd6:	f103 0201 	add.w	r2, r3, #1
     cda:	697b      	ldr	r3, [r7, #20]
     cdc:	f8c3 209c 	str.w	r2, [r3, #156]	; 0x9c
     ce0:	697b      	ldr	r3, [r7, #20]
     ce2:	f8d3 209c 	ldr.w	r2, [r3, #156]	; 0x9c
     ce6:	697b      	ldr	r3, [r7, #20]
     ce8:	f893 30a0 	ldrb.w	r3, [r3, #160]	; 0xa0
     cec:	f103 33ff 	add.w	r3, r3, #4294967295
     cf0:	4913      	ldr	r1, [pc, #76]	; (d40 <tcp_slowtmr+0xfc>)
     cf2:	5ccb      	ldrb	r3, [r1, r3]
     cf4:	429a      	cmp	r2, r3
     cf6:	f0c0 809e 	bcc.w	e36 <tcp_slowtmr+0x1f2>
     cfa:	697b      	ldr	r3, [r7, #20]
     cfc:	f04f 0200 	mov.w	r2, #0
     d00:	f8c3 209c 	str.w	r2, [r3, #156]	; 0x9c
     d04:	697b      	ldr	r3, [r7, #20]
     d06:	f893 30a0 	ldrb.w	r3, [r3, #160]	; 0xa0
     d0a:	2b06      	cmp	r3, #6
     d0c:	d808      	bhi.n	d20 <tcp_slowtmr+0xdc>
     d0e:	697b      	ldr	r3, [r7, #20]
     d10:	f893 30a0 	ldrb.w	r3, [r3, #160]	; 0xa0
     d14:	f103 0301 	add.w	r3, r3, #1
     d18:	b2da      	uxtb	r2, r3
     d1a:	697b      	ldr	r3, [r7, #20]
     d1c:	f883 20a0 	strb.w	r2, [r3, #160]	; 0xa0
     d20:	6978      	ldr	r0, [r7, #20]
     d22:	f007 ff2d 	bl	8b80 <tcp_zero_window_probe>
     d26:	e086      	b.n	e36 <tcp_slowtmr+0x1f2>
     d28:	20003dd8 	.word	0x20003dd8
     d2c:	20003dd4 	.word	0x20003dd4
     d30:	00009234 	.word	0x00009234
     d34:	00009254 	.word	0x00009254
     d38:	00009278 	.word	0x00009278
     d3c:	000092a0 	.word	0x000092a0
     d40:	00009194 	.word	0x00009194
     d44:	697b      	ldr	r3, [r7, #20]
     d46:	8edb      	ldrh	r3, [r3, #54]	; 0x36
     d48:	b21b      	sxth	r3, r3
     d4a:	2b00      	cmp	r3, #0
     d4c:	db06      	blt.n	d5c <tcp_slowtmr+0x118>
     d4e:	697b      	ldr	r3, [r7, #20]
     d50:	8edb      	ldrh	r3, [r3, #54]	; 0x36
     d52:	f103 0301 	add.w	r3, r3, #1
     d56:	b29a      	uxth	r2, r3
     d58:	697b      	ldr	r3, [r7, #20]
     d5a:	86da      	strh	r2, [r3, #54]	; 0x36
     d5c:	697b      	ldr	r3, [r7, #20]
     d5e:	6f9b      	ldr	r3, [r3, #120]	; 0x78
     d60:	2b00      	cmp	r3, #0
     d62:	d068      	beq.n	e36 <tcp_slowtmr+0x1f2>
     d64:	697b      	ldr	r3, [r7, #20]
     d66:	8eda      	ldrh	r2, [r3, #54]	; 0x36
     d68:	697b      	ldr	r3, [r7, #20]
     d6a:	f8b3 3048 	ldrh.w	r3, [r3, #72]	; 0x48
     d6e:	b212      	sxth	r2, r2
     d70:	b21b      	sxth	r3, r3
     d72:	429a      	cmp	r2, r3
     d74:	db5f      	blt.n	e36 <tcp_slowtmr+0x1f2>
     d76:	697b      	ldr	r3, [r7, #20]
     d78:	8edb      	ldrh	r3, [r3, #54]	; 0x36
     d7a:	b21a      	sxth	r2, r3
     d7c:	697b      	ldr	r3, [r7, #20]
     d7e:	f8b3 3048 	ldrh.w	r3, [r3, #72]	; 0x48
     d82:	b21b      	sxth	r3, r3
     d84:	4862      	ldr	r0, [pc, #392]	; (f10 <tcp_slowtmr+0x2cc>)
     d86:	4611      	mov	r1, r2
     d88:	461a      	mov	r2, r3
     d8a:	f004 fdb7 	bl	58fc <DebugPrintf>
     d8e:	697b      	ldr	r3, [r7, #20]
     d90:	7c1b      	ldrb	r3, [r3, #16]
     d92:	2b02      	cmp	r3, #2
     d94:	d017      	beq.n	dc6 <tcp_slowtmr+0x182>
     d96:	697b      	ldr	r3, [r7, #20]
     d98:	f8b3 3044 	ldrh.w	r3, [r3, #68]	; 0x44
     d9c:	b21b      	sxth	r3, r3
     d9e:	ea4f 03e3 	mov.w	r3, r3, asr #3
     da2:	b29b      	uxth	r3, r3
     da4:	b21a      	sxth	r2, r3
     da6:	697b      	ldr	r3, [r7, #20]
     da8:	f8b3 3046 	ldrh.w	r3, [r3, #70]	; 0x46
     dac:	b21b      	sxth	r3, r3
     dae:	18d2      	adds	r2, r2, r3
     db0:	697b      	ldr	r3, [r7, #20]
     db2:	f893 304a 	ldrb.w	r3, [r3, #74]	; 0x4a
     db6:	4957      	ldr	r1, [pc, #348]	; (f14 <tcp_slowtmr+0x2d0>)
     db8:	5ccb      	ldrb	r3, [r1, r3]
     dba:	fa02 f303 	lsl.w	r3, r2, r3
     dbe:	b29a      	uxth	r2, r3
     dc0:	697b      	ldr	r3, [r7, #20]
     dc2:	f8a3 2048 	strh.w	r2, [r3, #72]	; 0x48
     dc6:	697b      	ldr	r3, [r7, #20]
     dc8:	f04f 0200 	mov.w	r2, #0
     dcc:	86da      	strh	r2, [r3, #54]	; 0x36
     dce:	697b      	ldr	r3, [r7, #20]
     dd0:	f8b3 205c 	ldrh.w	r2, [r3, #92]	; 0x5c
     dd4:	697b      	ldr	r3, [r7, #20]
     dd6:	f8b3 3052 	ldrh.w	r3, [r3, #82]	; 0x52
     dda:	429a      	cmp	r2, r3
     ddc:	bf38      	it	cc
     dde:	4613      	movcc	r3, r2
     de0:	817b      	strh	r3, [r7, #10]
     de2:	897b      	ldrh	r3, [r7, #10]
     de4:	ea4f 0353 	mov.w	r3, r3, lsr #1
     de8:	b29a      	uxth	r2, r3
     dea:	697b      	ldr	r3, [r7, #20]
     dec:	f8a3 2054 	strh.w	r2, [r3, #84]	; 0x54
     df0:	697b      	ldr	r3, [r7, #20]
     df2:	f8b3 2054 	ldrh.w	r2, [r3, #84]	; 0x54
     df6:	697b      	ldr	r3, [r7, #20]
     df8:	8f1b      	ldrh	r3, [r3, #56]	; 0x38
     dfa:	429a      	cmp	r2, r3
     dfc:	d207      	bcs.n	e0e <tcp_slowtmr+0x1ca>
     dfe:	697b      	ldr	r3, [r7, #20]
     e00:	8f1b      	ldrh	r3, [r3, #56]	; 0x38
     e02:	ea4f 0343 	mov.w	r3, r3, lsl #1
     e06:	b29a      	uxth	r2, r3
     e08:	697b      	ldr	r3, [r7, #20]
     e0a:	f8a3 2054 	strh.w	r2, [r3, #84]	; 0x54
     e0e:	697b      	ldr	r3, [r7, #20]
     e10:	8f1a      	ldrh	r2, [r3, #56]	; 0x38
     e12:	697b      	ldr	r3, [r7, #20]
     e14:	f8a3 2052 	strh.w	r2, [r3, #82]	; 0x52
     e18:	697b      	ldr	r3, [r7, #20]
     e1a:	f8b3 3052 	ldrh.w	r3, [r3, #82]	; 0x52
     e1e:	461a      	mov	r2, r3
     e20:	697b      	ldr	r3, [r7, #20]
     e22:	f8b3 3054 	ldrh.w	r3, [r3, #84]	; 0x54
     e26:	483c      	ldr	r0, [pc, #240]	; (f18 <tcp_slowtmr+0x2d4>)
     e28:	4611      	mov	r1, r2
     e2a:	461a      	mov	r2, r3
     e2c:	f004 fd66 	bl	58fc <DebugPrintf>
     e30:	6978      	ldr	r0, [r7, #20]
     e32:	f007 fdc9 	bl	89c8 <tcp_rexmit_rto>
     e36:	697b      	ldr	r3, [r7, #20]
     e38:	7c1b      	ldrb	r3, [r3, #16]
     e3a:	2b06      	cmp	r3, #6
     e3c:	d10d      	bne.n	e5a <tcp_slowtmr+0x216>
     e3e:	4b37      	ldr	r3, [pc, #220]	; (f1c <tcp_slowtmr+0x2d8>)
     e40:	681a      	ldr	r2, [r3, #0]
     e42:	697b      	ldr	r3, [r7, #20]
     e44:	6b1b      	ldr	r3, [r3, #48]	; 0x30
     e46:	1ad3      	subs	r3, r2, r3
     e48:	2b28      	cmp	r3, #40	; 0x28
     e4a:	d906      	bls.n	e5a <tcp_slowtmr+0x216>
     e4c:	7bfb      	ldrb	r3, [r7, #15]
     e4e:	f103 0301 	add.w	r3, r3, #1
     e52:	73fb      	strb	r3, [r7, #15]
     e54:	4832      	ldr	r0, [pc, #200]	; (f20 <tcp_slowtmr+0x2dc>)
     e56:	f004 fd51 	bl	58fc <DebugPrintf>
     e5a:	697b      	ldr	r3, [r7, #20]
     e5c:	891b      	ldrh	r3, [r3, #8]
     e5e:	f003 0308 	and.w	r3, r3, #8
     e62:	2b00      	cmp	r3, #0
     e64:	f000 8086 	beq.w	f74 <tcp_slowtmr+0x330>
     e68:	697b      	ldr	r3, [r7, #20]
     e6a:	7c1b      	ldrb	r3, [r3, #16]
     e6c:	2b04      	cmp	r3, #4
     e6e:	d003      	beq.n	e78 <tcp_slowtmr+0x234>
     e70:	697b      	ldr	r3, [r7, #20]
     e72:	7c1b      	ldrb	r3, [r3, #16]
     e74:	2b07      	cmp	r3, #7
     e76:	d17d      	bne.n	f74 <tcp_slowtmr+0x330>
     e78:	4b28      	ldr	r3, [pc, #160]	; (f1c <tcp_slowtmr+0x2d8>)
     e7a:	681a      	ldr	r2, [r3, #0]
     e7c:	697b      	ldr	r3, [r7, #20]
     e7e:	6b1b      	ldr	r3, [r3, #48]	; 0x30
     e80:	1ad2      	subs	r2, r2, r3
     e82:	697b      	ldr	r3, [r7, #20]
     e84:	f8d3 1098 	ldr.w	r1, [r3, #152]	; 0x98
     e88:	4b26      	ldr	r3, [pc, #152]	; (f24 <tcp_slowtmr+0x2e0>)
     e8a:	18cb      	adds	r3, r1, r3
     e8c:	4926      	ldr	r1, [pc, #152]	; (f28 <tcp_slowtmr+0x2e4>)
     e8e:	fba1 0303 	umull	r0, r3, r1, r3
     e92:	ea4f 1353 	mov.w	r3, r3, lsr #5
     e96:	429a      	cmp	r2, r3
     e98:	d94a      	bls.n	f30 <tcp_slowtmr+0x2ec>
     e9a:	697b      	ldr	r3, [r7, #20]
     e9c:	685b      	ldr	r3, [r3, #4]
     e9e:	4618      	mov	r0, r3
     ea0:	f003 f828 	bl	3ef4 <ntohl>
     ea4:	4603      	mov	r3, r0
     ea6:	ea4f 6313 	mov.w	r3, r3, lsr #24
     eaa:	b29b      	uxth	r3, r3
     eac:	f003 06ff 	and.w	r6, r3, #255	; 0xff
     eb0:	697b      	ldr	r3, [r7, #20]
     eb2:	685b      	ldr	r3, [r3, #4]
     eb4:	4618      	mov	r0, r3
     eb6:	f003 f81d 	bl	3ef4 <ntohl>
     eba:	4603      	mov	r3, r0
     ebc:	ea4f 4313 	mov.w	r3, r3, lsr #16
     ec0:	b29b      	uxth	r3, r3
     ec2:	f003 05ff 	and.w	r5, r3, #255	; 0xff
     ec6:	697b      	ldr	r3, [r7, #20]
     ec8:	685b      	ldr	r3, [r3, #4]
     eca:	4618      	mov	r0, r3
     ecc:	f003 f812 	bl	3ef4 <ntohl>
     ed0:	4603      	mov	r3, r0
     ed2:	ea4f 2313 	mov.w	r3, r3, lsr #8
     ed6:	b29b      	uxth	r3, r3
     ed8:	f003 04ff 	and.w	r4, r3, #255	; 0xff
     edc:	697b      	ldr	r3, [r7, #20]
     ede:	685b      	ldr	r3, [r3, #4]
     ee0:	4618      	mov	r0, r3
     ee2:	f003 f807 	bl	3ef4 <ntohl>
     ee6:	4603      	mov	r3, r0
     ee8:	b29b      	uxth	r3, r3
     eea:	f003 03ff 	and.w	r3, r3, #255	; 0xff
     eee:	9300      	str	r3, [sp, #0]
     ef0:	480e      	ldr	r0, [pc, #56]	; (f2c <tcp_slowtmr+0x2e8>)
     ef2:	4631      	mov	r1, r6
     ef4:	462a      	mov	r2, r5
     ef6:	4623      	mov	r3, r4
     ef8:	f004 fd00 	bl	58fc <DebugPrintf>
     efc:	7bfb      	ldrb	r3, [r7, #15]
     efe:	f103 0301 	add.w	r3, r3, #1
     f02:	73fb      	strb	r3, [r7, #15]
     f04:	7bbb      	ldrb	r3, [r7, #14]
     f06:	f103 0301 	add.w	r3, r3, #1
     f0a:	73bb      	strb	r3, [r7, #14]
     f0c:	e032      	b.n	f74 <tcp_slowtmr+0x330>
     f0e:	bf00      	nop
     f10:	000092c8 	.word	0x000092c8
     f14:	00009184 	.word	0x00009184
     f18:	000092ec 	.word	0x000092ec
     f1c:	20003dd8 	.word	0x20003dd8
     f20:	00009310 	.word	0x00009310
     f24:	000a4cb8 	.word	0x000a4cb8
     f28:	10624dd3 	.word	0x10624dd3
     f2c:	00009340 	.word	0x00009340
     f30:	4b89      	ldr	r3, [pc, #548]	; (1158 <tcp_slowtmr+0x514>)
     f32:	681a      	ldr	r2, [r3, #0]
     f34:	697b      	ldr	r3, [r7, #20]
     f36:	6b1b      	ldr	r3, [r3, #48]	; 0x30
     f38:	1ad2      	subs	r2, r2, r3
     f3a:	697b      	ldr	r3, [r7, #20]
     f3c:	f8d3 1098 	ldr.w	r1, [r3, #152]	; 0x98
     f40:	697b      	ldr	r3, [r7, #20]
     f42:	f893 30a1 	ldrb.w	r3, [r3, #161]	; 0xa1
     f46:	4885      	ldr	r0, [pc, #532]	; (115c <tcp_slowtmr+0x518>)
     f48:	fb00 f303 	mul.w	r3, r0, r3
     f4c:	18c9      	adds	r1, r1, r3
     f4e:	4b84      	ldr	r3, [pc, #528]	; (1160 <tcp_slowtmr+0x51c>)
     f50:	fba3 0301 	umull	r0, r3, r3, r1
     f54:	ea4f 1353 	mov.w	r3, r3, lsr #5
     f58:	429a      	cmp	r2, r3
     f5a:	d90b      	bls.n	f74 <tcp_slowtmr+0x330>
     f5c:	6978      	ldr	r0, [r7, #20]
     f5e:	f007 fd69 	bl	8a34 <tcp_keepalive>
     f62:	697b      	ldr	r3, [r7, #20]
     f64:	f893 30a1 	ldrb.w	r3, [r3, #161]	; 0xa1
     f68:	f103 0301 	add.w	r3, r3, #1
     f6c:	b2da      	uxtb	r2, r3
     f6e:	697b      	ldr	r3, [r7, #20]
     f70:	f883 20a1 	strb.w	r2, [r3, #161]	; 0xa1
     f74:	697b      	ldr	r3, [r7, #20]
     f76:	6fdb      	ldr	r3, [r3, #124]	; 0x7c
     f78:	2b00      	cmp	r3, #0
     f7a:	d01c      	beq.n	fb6 <tcp_slowtmr+0x372>
     f7c:	4b76      	ldr	r3, [pc, #472]	; (1158 <tcp_slowtmr+0x514>)
     f7e:	681a      	ldr	r2, [r3, #0]
     f80:	697b      	ldr	r3, [r7, #20]
     f82:	6b1b      	ldr	r3, [r3, #48]	; 0x30
     f84:	1ad1      	subs	r1, r2, r3
     f86:	697b      	ldr	r3, [r7, #20]
     f88:	f8b3 3048 	ldrh.w	r3, [r3, #72]	; 0x48
     f8c:	b21a      	sxth	r2, r3
     f8e:	4613      	mov	r3, r2
     f90:	ea4f 0343 	mov.w	r3, r3, lsl #1
     f94:	189b      	adds	r3, r3, r2
     f96:	ea4f 0343 	mov.w	r3, r3, lsl #1
     f9a:	4299      	cmp	r1, r3
     f9c:	d30b      	bcc.n	fb6 <tcp_slowtmr+0x372>
     f9e:	697b      	ldr	r3, [r7, #20]
     fa0:	6fdb      	ldr	r3, [r3, #124]	; 0x7c
     fa2:	4618      	mov	r0, r3
     fa4:	f000 f95c 	bl	1260 <tcp_segs_free>
     fa8:	697b      	ldr	r3, [r7, #20]
     faa:	f04f 0200 	mov.w	r2, #0
     fae:	67da      	str	r2, [r3, #124]	; 0x7c
     fb0:	486c      	ldr	r0, [pc, #432]	; (1164 <tcp_slowtmr+0x520>)
     fb2:	f004 fca3 	bl	58fc <DebugPrintf>
     fb6:	697b      	ldr	r3, [r7, #20]
     fb8:	7c1b      	ldrb	r3, [r3, #16]
     fba:	2b03      	cmp	r3, #3
     fbc:	d10d      	bne.n	fda <tcp_slowtmr+0x396>
     fbe:	4b66      	ldr	r3, [pc, #408]	; (1158 <tcp_slowtmr+0x514>)
     fc0:	681a      	ldr	r2, [r3, #0]
     fc2:	697b      	ldr	r3, [r7, #20]
     fc4:	6b1b      	ldr	r3, [r3, #48]	; 0x30
     fc6:	1ad3      	subs	r3, r2, r3
     fc8:	2b28      	cmp	r3, #40	; 0x28
     fca:	d906      	bls.n	fda <tcp_slowtmr+0x396>
     fcc:	7bfb      	ldrb	r3, [r7, #15]
     fce:	f103 0301 	add.w	r3, r3, #1
     fd2:	73fb      	strb	r3, [r7, #15]
     fd4:	4864      	ldr	r0, [pc, #400]	; (1168 <tcp_slowtmr+0x524>)
     fd6:	f004 fc91 	bl	58fc <DebugPrintf>
     fda:	697b      	ldr	r3, [r7, #20]
     fdc:	7c1b      	ldrb	r3, [r3, #16]
     fde:	2b09      	cmp	r3, #9
     fe0:	d10d      	bne.n	ffe <tcp_slowtmr+0x3ba>
     fe2:	4b5d      	ldr	r3, [pc, #372]	; (1158 <tcp_slowtmr+0x514>)
     fe4:	681a      	ldr	r2, [r3, #0]
     fe6:	697b      	ldr	r3, [r7, #20]
     fe8:	6b1b      	ldr	r3, [r3, #48]	; 0x30
     fea:	1ad3      	subs	r3, r2, r3
     fec:	2bf0      	cmp	r3, #240	; 0xf0
     fee:	d906      	bls.n	ffe <tcp_slowtmr+0x3ba>
     ff0:	7bfb      	ldrb	r3, [r7, #15]
     ff2:	f103 0301 	add.w	r3, r3, #1
     ff6:	73fb      	strb	r3, [r7, #15]
     ff8:	485c      	ldr	r0, [pc, #368]	; (116c <tcp_slowtmr+0x528>)
     ffa:	f004 fc7f 	bl	58fc <DebugPrintf>
     ffe:	7bfb      	ldrb	r3, [r7, #15]
    1000:	2b00      	cmp	r3, #0
    1002:	d03a      	beq.n	107a <tcp_slowtmr+0x436>
    1004:	6978      	ldr	r0, [r7, #20]
    1006:	f000 fb3b 	bl	1680 <tcp_pcb_purge>
    100a:	693b      	ldr	r3, [r7, #16]
    100c:	2b00      	cmp	r3, #0
    100e:	d004      	beq.n	101a <tcp_slowtmr+0x3d6>
    1010:	697b      	ldr	r3, [r7, #20]
    1012:	68da      	ldr	r2, [r3, #12]
    1014:	693b      	ldr	r3, [r7, #16]
    1016:	60da      	str	r2, [r3, #12]
    1018:	e003      	b.n	1022 <tcp_slowtmr+0x3de>
    101a:	697b      	ldr	r3, [r7, #20]
    101c:	68da      	ldr	r2, [r3, #12]
    101e:	4b54      	ldr	r3, [pc, #336]	; (1170 <tcp_slowtmr+0x52c>)
    1020:	601a      	str	r2, [r3, #0]
    1022:	697b      	ldr	r3, [r7, #20]
    1024:	f8d3 3094 	ldr.w	r3, [r3, #148]	; 0x94
    1028:	2b00      	cmp	r3, #0
    102a:	d008      	beq.n	103e <tcp_slowtmr+0x3fa>
    102c:	697b      	ldr	r3, [r7, #20]
    102e:	f8d3 3094 	ldr.w	r3, [r3, #148]	; 0x94
    1032:	697a      	ldr	r2, [r7, #20]
    1034:	6952      	ldr	r2, [r2, #20]
    1036:	4610      	mov	r0, r2
    1038:	f06f 0104 	mvn.w	r1, #4
    103c:	4798      	blx	r3
    103e:	7bbb      	ldrb	r3, [r7, #14]
    1040:	2b00      	cmp	r3, #0
    1042:	d00f      	beq.n	1064 <tcp_slowtmr+0x420>
    1044:	697b      	ldr	r3, [r7, #20]
    1046:	6d98      	ldr	r0, [r3, #88]	; 0x58
    1048:	697b      	ldr	r3, [r7, #20]
    104a:	6a59      	ldr	r1, [r3, #36]	; 0x24
    104c:	697a      	ldr	r2, [r7, #20]
    104e:	697b      	ldr	r3, [r7, #20]
    1050:	f103 0304 	add.w	r3, r3, #4
    1054:	697c      	ldr	r4, [r7, #20]
    1056:	8b25      	ldrh	r5, [r4, #24]
    1058:	697c      	ldr	r4, [r7, #20]
    105a:	8c24      	ldrh	r4, [r4, #32]
    105c:	9500      	str	r5, [sp, #0]
    105e:	9401      	str	r4, [sp, #4]
    1060:	f007 fc06 	bl	8870 <tcp_rst>
    1064:	697b      	ldr	r3, [r7, #20]
    1066:	68db      	ldr	r3, [r3, #12]
    1068:	607b      	str	r3, [r7, #4]
    106a:	f04f 0002 	mov.w	r0, #2
    106e:	6979      	ldr	r1, [r7, #20]
    1070:	f001 f940 	bl	22f4 <memp_free>
    1074:	687b      	ldr	r3, [r7, #4]
    1076:	617b      	str	r3, [r7, #20]
    1078:	e037      	b.n	10ea <tcp_slowtmr+0x4a6>
    107a:	697b      	ldr	r3, [r7, #20]
    107c:	f893 3034 	ldrb.w	r3, [r3, #52]	; 0x34
    1080:	f103 0301 	add.w	r3, r3, #1
    1084:	b2da      	uxtb	r2, r3
    1086:	697b      	ldr	r3, [r7, #20]
    1088:	f883 2034 	strb.w	r2, [r3, #52]	; 0x34
    108c:	697b      	ldr	r3, [r7, #20]
    108e:	f893 2034 	ldrb.w	r2, [r3, #52]	; 0x34
    1092:	697b      	ldr	r3, [r7, #20]
    1094:	f893 3035 	ldrb.w	r3, [r3, #53]	; 0x35
    1098:	429a      	cmp	r2, r3
    109a:	d321      	bcc.n	10e0 <tcp_slowtmr+0x49c>
    109c:	697b      	ldr	r3, [r7, #20]
    109e:	f04f 0200 	mov.w	r2, #0
    10a2:	f883 2034 	strb.w	r2, [r3, #52]	; 0x34
    10a6:	4833      	ldr	r0, [pc, #204]	; (1174 <tcp_slowtmr+0x530>)
    10a8:	f004 fc28 	bl	58fc <DebugPrintf>
    10ac:	697b      	ldr	r3, [r7, #20]
    10ae:	f8d3 3090 	ldr.w	r3, [r3, #144]	; 0x90
    10b2:	2b00      	cmp	r3, #0
    10b4:	d00a      	beq.n	10cc <tcp_slowtmr+0x488>
    10b6:	697b      	ldr	r3, [r7, #20]
    10b8:	f8d3 3090 	ldr.w	r3, [r3, #144]	; 0x90
    10bc:	697a      	ldr	r2, [r7, #20]
    10be:	6952      	ldr	r2, [r2, #20]
    10c0:	4610      	mov	r0, r2
    10c2:	6979      	ldr	r1, [r7, #20]
    10c4:	4798      	blx	r3
    10c6:	4603      	mov	r3, r0
    10c8:	737b      	strb	r3, [r7, #13]
    10ca:	e002      	b.n	10d2 <tcp_slowtmr+0x48e>
    10cc:	f04f 0300 	mov.w	r3, #0
    10d0:	737b      	strb	r3, [r7, #13]
    10d2:	f997 300d 	ldrsb.w	r3, [r7, #13]
    10d6:	2b00      	cmp	r3, #0
    10d8:	d102      	bne.n	10e0 <tcp_slowtmr+0x49c>
    10da:	6978      	ldr	r0, [r7, #20]
    10dc:	f007 f8e6 	bl	82ac <tcp_output>
    10e0:	697b      	ldr	r3, [r7, #20]
    10e2:	613b      	str	r3, [r7, #16]
    10e4:	697b      	ldr	r3, [r7, #20]
    10e6:	68db      	ldr	r3, [r3, #12]
    10e8:	617b      	str	r3, [r7, #20]
    10ea:	697b      	ldr	r3, [r7, #20]
    10ec:	2b00      	cmp	r3, #0
    10ee:	f47f adc3 	bne.w	c78 <tcp_slowtmr+0x34>
    10f2:	f04f 0300 	mov.w	r3, #0
    10f6:	613b      	str	r3, [r7, #16]
    10f8:	4b1f      	ldr	r3, [pc, #124]	; (1178 <tcp_slowtmr+0x534>)
    10fa:	681b      	ldr	r3, [r3, #0]
    10fc:	617b      	str	r3, [r7, #20]
    10fe:	e042      	b.n	1186 <tcp_slowtmr+0x542>
    1100:	f04f 0300 	mov.w	r3, #0
    1104:	73fb      	strb	r3, [r7, #15]
    1106:	4b14      	ldr	r3, [pc, #80]	; (1158 <tcp_slowtmr+0x514>)
    1108:	681a      	ldr	r2, [r3, #0]
    110a:	697b      	ldr	r3, [r7, #20]
    110c:	6b1b      	ldr	r3, [r3, #48]	; 0x30
    110e:	1ad3      	subs	r3, r2, r3
    1110:	2bf0      	cmp	r3, #240	; 0xf0
    1112:	d903      	bls.n	111c <tcp_slowtmr+0x4d8>
    1114:	7bfb      	ldrb	r3, [r7, #15]
    1116:	f103 0301 	add.w	r3, r3, #1
    111a:	73fb      	strb	r3, [r7, #15]
    111c:	7bfb      	ldrb	r3, [r7, #15]
    111e:	2b00      	cmp	r3, #0
    1120:	d02c      	beq.n	117c <tcp_slowtmr+0x538>
    1122:	6978      	ldr	r0, [r7, #20]
    1124:	f000 faac 	bl	1680 <tcp_pcb_purge>
    1128:	693b      	ldr	r3, [r7, #16]
    112a:	2b00      	cmp	r3, #0
    112c:	d004      	beq.n	1138 <tcp_slowtmr+0x4f4>
    112e:	697b      	ldr	r3, [r7, #20]
    1130:	68da      	ldr	r2, [r3, #12]
    1132:	693b      	ldr	r3, [r7, #16]
    1134:	60da      	str	r2, [r3, #12]
    1136:	e003      	b.n	1140 <tcp_slowtmr+0x4fc>
    1138:	697b      	ldr	r3, [r7, #20]
    113a:	68da      	ldr	r2, [r3, #12]
    113c:	4b0e      	ldr	r3, [pc, #56]	; (1178 <tcp_slowtmr+0x534>)
    113e:	601a      	str	r2, [r3, #0]
    1140:	697b      	ldr	r3, [r7, #20]
    1142:	68db      	ldr	r3, [r3, #12]
    1144:	607b      	str	r3, [r7, #4]
    1146:	f04f 0002 	mov.w	r0, #2
    114a:	6979      	ldr	r1, [r7, #20]
    114c:	f001 f8d2 	bl	22f4 <memp_free>
    1150:	687b      	ldr	r3, [r7, #4]
    1152:	617b      	str	r3, [r7, #20]
    1154:	e017      	b.n	1186 <tcp_slowtmr+0x542>
    1156:	bf00      	nop
    1158:	20003dd8 	.word	0x20003dd8
    115c:	000124f8 	.word	0x000124f8
    1160:	10624dd3 	.word	0x10624dd3
    1164:	00009388 	.word	0x00009388
    1168:	000093b4 	.word	0x000093b4
    116c:	000093e4 	.word	0x000093e4
    1170:	20003dd4 	.word	0x20003dd4
    1174:	00009414 	.word	0x00009414
    1178:	20003de8 	.word	0x20003de8
    117c:	697b      	ldr	r3, [r7, #20]
    117e:	613b      	str	r3, [r7, #16]
    1180:	697b      	ldr	r3, [r7, #20]
    1182:	68db      	ldr	r3, [r3, #12]
    1184:	617b      	str	r3, [r7, #20]
    1186:	697b      	ldr	r3, [r7, #20]
    1188:	2b00      	cmp	r3, #0
    118a:	d1b9      	bne.n	1100 <tcp_slowtmr+0x4bc>
    118c:	f107 071c 	add.w	r7, r7, #28
    1190:	46bd      	mov	sp, r7
    1192:	bdf0      	pop	{r4, r5, r6, r7, pc}

00001194 <tcp_fasttmr>:
    1194:	b590      	push	{r4, r7, lr}
    1196:	b083      	sub	sp, #12
    1198:	af00      	add	r7, sp, #0
    119a:	4b2f      	ldr	r3, [pc, #188]	; (1258 <tcp_fasttmr+0xc4>)
    119c:	681b      	ldr	r3, [r3, #0]
    119e:	607b      	str	r3, [r7, #4]
    11a0:	e053      	b.n	124a <tcp_fasttmr+0xb6>
    11a2:	687b      	ldr	r3, [r7, #4]
    11a4:	f8d3 3080 	ldr.w	r3, [r3, #128]	; 0x80
    11a8:	2b00      	cmp	r3, #0
    11aa:	d02b      	beq.n	1204 <tcp_fasttmr+0x70>
    11ac:	687b      	ldr	r3, [r7, #4]
    11ae:	f8d3 3088 	ldr.w	r3, [r3, #136]	; 0x88
    11b2:	2b00      	cmp	r3, #0
    11b4:	d010      	beq.n	11d8 <tcp_fasttmr+0x44>
    11b6:	687b      	ldr	r3, [r7, #4]
    11b8:	f8d3 4088 	ldr.w	r4, [r3, #136]	; 0x88
    11bc:	687b      	ldr	r3, [r7, #4]
    11be:	695a      	ldr	r2, [r3, #20]
    11c0:	687b      	ldr	r3, [r7, #4]
    11c2:	f8d3 3080 	ldr.w	r3, [r3, #128]	; 0x80
    11c6:	4610      	mov	r0, r2
    11c8:	6879      	ldr	r1, [r7, #4]
    11ca:	461a      	mov	r2, r3
    11cc:	f04f 0300 	mov.w	r3, #0
    11d0:	47a0      	blx	r4
    11d2:	4603      	mov	r3, r0
    11d4:	70fb      	strb	r3, [r7, #3]
    11d6:	e00c      	b.n	11f2 <tcp_fasttmr+0x5e>
    11d8:	687b      	ldr	r3, [r7, #4]
    11da:	f8d3 3080 	ldr.w	r3, [r3, #128]	; 0x80
    11de:	f04f 0000 	mov.w	r0, #0
    11e2:	6879      	ldr	r1, [r7, #4]
    11e4:	461a      	mov	r2, r3
    11e6:	f04f 0300 	mov.w	r3, #0
    11ea:	f000 f87b 	bl	12e4 <tcp_recv_null>
    11ee:	4603      	mov	r3, r0
    11f0:	70fb      	strb	r3, [r7, #3]
    11f2:	f997 3003 	ldrsb.w	r3, [r7, #3]
    11f6:	2b00      	cmp	r3, #0
    11f8:	d104      	bne.n	1204 <tcp_fasttmr+0x70>
    11fa:	687b      	ldr	r3, [r7, #4]
    11fc:	f04f 0200 	mov.w	r2, #0
    1200:	f8c3 2080 	str.w	r2, [r3, #128]	; 0x80
    1204:	687b      	ldr	r3, [r7, #4]
    1206:	f893 3022 	ldrb.w	r3, [r3, #34]	; 0x22
    120a:	f003 0301 	and.w	r3, r3, #1
    120e:	b2db      	uxtb	r3, r3
    1210:	2b00      	cmp	r3, #0
    1212:	d017      	beq.n	1244 <tcp_fasttmr+0xb0>
    1214:	4811      	ldr	r0, [pc, #68]	; (125c <tcp_fasttmr+0xc8>)
    1216:	f004 fb71 	bl	58fc <DebugPrintf>
    121a:	687b      	ldr	r3, [r7, #4]
    121c:	f893 3022 	ldrb.w	r3, [r3, #34]	; 0x22
    1220:	f043 0302 	orr.w	r3, r3, #2
    1224:	b2da      	uxtb	r2, r3
    1226:	687b      	ldr	r3, [r7, #4]
    1228:	f883 2022 	strb.w	r2, [r3, #34]	; 0x22
    122c:	6878      	ldr	r0, [r7, #4]
    122e:	f007 f83d 	bl	82ac <tcp_output>
    1232:	687b      	ldr	r3, [r7, #4]
    1234:	f893 3022 	ldrb.w	r3, [r3, #34]	; 0x22
    1238:	f023 0303 	bic.w	r3, r3, #3
    123c:	b2da      	uxtb	r2, r3
    123e:	687b      	ldr	r3, [r7, #4]
    1240:	f883 2022 	strb.w	r2, [r3, #34]	; 0x22
    1244:	687b      	ldr	r3, [r7, #4]
    1246:	68db      	ldr	r3, [r3, #12]
    1248:	607b      	str	r3, [r7, #4]
    124a:	687b      	ldr	r3, [r7, #4]
    124c:	2b00      	cmp	r3, #0
    124e:	d1a8      	bne.n	11a2 <tcp_fasttmr+0xe>
    1250:	f107 070c 	add.w	r7, r7, #12
    1254:	46bd      	mov	sp, r7
    1256:	bd90      	pop	{r4, r7, pc}
    1258:	20003dd4 	.word	0x20003dd4
    125c:	00009438 	.word	0x00009438

00001260 <tcp_segs_free>:
    1260:	b580      	push	{r7, lr}
    1262:	b084      	sub	sp, #16
    1264:	af00      	add	r7, sp, #0
    1266:	6078      	str	r0, [r7, #4]
    1268:	f04f 0300 	mov.w	r3, #0
    126c:	73fb      	strb	r3, [r7, #15]
    126e:	e00c      	b.n	128a <tcp_segs_free+0x2a>
    1270:	687b      	ldr	r3, [r7, #4]
    1272:	681b      	ldr	r3, [r3, #0]
    1274:	60bb      	str	r3, [r7, #8]
    1276:	6878      	ldr	r0, [r7, #4]
    1278:	f000 f810 	bl	129c <tcp_seg_free>
    127c:	4603      	mov	r3, r0
    127e:	461a      	mov	r2, r3
    1280:	7bfb      	ldrb	r3, [r7, #15]
    1282:	18d3      	adds	r3, r2, r3
    1284:	73fb      	strb	r3, [r7, #15]
    1286:	68bb      	ldr	r3, [r7, #8]
    1288:	607b      	str	r3, [r7, #4]
    128a:	687b      	ldr	r3, [r7, #4]
    128c:	2b00      	cmp	r3, #0
    128e:	d1ef      	bne.n	1270 <tcp_segs_free+0x10>
    1290:	7bfb      	ldrb	r3, [r7, #15]
    1292:	4618      	mov	r0, r3
    1294:	f107 0710 	add.w	r7, r7, #16
    1298:	46bd      	mov	sp, r7
    129a:	bd80      	pop	{r7, pc}

0000129c <tcp_seg_free>:
    129c:	b580      	push	{r7, lr}
    129e:	b084      	sub	sp, #16
    12a0:	af00      	add	r7, sp, #0
    12a2:	6078      	str	r0, [r7, #4]
    12a4:	f04f 0300 	mov.w	r3, #0
    12a8:	73fb      	strb	r3, [r7, #15]
    12aa:	687b      	ldr	r3, [r7, #4]
    12ac:	2b00      	cmp	r3, #0
    12ae:	d013      	beq.n	12d8 <tcp_seg_free+0x3c>
    12b0:	687b      	ldr	r3, [r7, #4]
    12b2:	685b      	ldr	r3, [r3, #4]
    12b4:	2b00      	cmp	r3, #0
    12b6:	d00a      	beq.n	12ce <tcp_seg_free+0x32>
    12b8:	687b      	ldr	r3, [r7, #4]
    12ba:	685b      	ldr	r3, [r3, #4]
    12bc:	4618      	mov	r0, r3
    12be:	f002 fc81 	bl	3bc4 <pbuf_free>
    12c2:	4603      	mov	r3, r0
    12c4:	73fb      	strb	r3, [r7, #15]
    12c6:	687b      	ldr	r3, [r7, #4]
    12c8:	f04f 0200 	mov.w	r2, #0
    12cc:	605a      	str	r2, [r3, #4]
    12ce:	f04f 0004 	mov.w	r0, #4
    12d2:	6879      	ldr	r1, [r7, #4]
    12d4:	f001 f80e 	bl	22f4 <memp_free>
    12d8:	7bfb      	ldrb	r3, [r7, #15]
    12da:	4618      	mov	r0, r3
    12dc:	f107 0710 	add.w	r7, r7, #16
    12e0:	46bd      	mov	sp, r7
    12e2:	bd80      	pop	{r7, pc}

000012e4 <tcp_recv_null>:
    12e4:	b580      	push	{r7, lr}
    12e6:	b084      	sub	sp, #16
    12e8:	af00      	add	r7, sp, #0
    12ea:	60f8      	str	r0, [r7, #12]
    12ec:	60b9      	str	r1, [r7, #8]
    12ee:	607a      	str	r2, [r7, #4]
    12f0:	70fb      	strb	r3, [r7, #3]
    12f2:	687b      	ldr	r3, [r7, #4]
    12f4:	2b00      	cmp	r3, #0
    12f6:	d009      	beq.n	130c <tcp_recv_null+0x28>
    12f8:	687b      	ldr	r3, [r7, #4]
    12fa:	891b      	ldrh	r3, [r3, #8]
    12fc:	68b8      	ldr	r0, [r7, #8]
    12fe:	4619      	mov	r1, r3
    1300:	f7ff fc08 	bl	b14 <tcp_recved>
    1304:	6878      	ldr	r0, [r7, #4]
    1306:	f002 fc5d 	bl	3bc4 <pbuf_free>
    130a:	e008      	b.n	131e <tcp_recv_null+0x3a>
    130c:	f997 3003 	ldrsb.w	r3, [r7, #3]
    1310:	2b00      	cmp	r3, #0
    1312:	d104      	bne.n	131e <tcp_recv_null+0x3a>
    1314:	68b8      	ldr	r0, [r7, #8]
    1316:	f7ff f8fb 	bl	510 <tcp_close>
    131a:	4603      	mov	r3, r0
    131c:	e001      	b.n	1322 <tcp_recv_null+0x3e>
    131e:	f04f 0300 	mov.w	r3, #0
    1322:	b25b      	sxtb	r3, r3
    1324:	4618      	mov	r0, r3
    1326:	f107 0710 	add.w	r7, r7, #16
    132a:	46bd      	mov	sp, r7
    132c:	bd80      	pop	{r7, pc}
    132e:	bf00      	nop

00001330 <tcp_kill_prio>:
    1330:	b580      	push	{r7, lr}
    1332:	b086      	sub	sp, #24
    1334:	af00      	add	r7, sp, #0
    1336:	4603      	mov	r3, r0
    1338:	71fb      	strb	r3, [r7, #7]
    133a:	f04f 037f 	mov.w	r3, #127	; 0x7f
    133e:	72fb      	strb	r3, [r7, #11]
    1340:	f04f 0300 	mov.w	r3, #0
    1344:	60fb      	str	r3, [r7, #12]
    1346:	f04f 0300 	mov.w	r3, #0
    134a:	613b      	str	r3, [r7, #16]
    134c:	4b1b      	ldr	r3, [pc, #108]	; (13bc <tcp_kill_prio+0x8c>)
    134e:	681b      	ldr	r3, [r3, #0]
    1350:	617b      	str	r3, [r7, #20]
    1352:	e01f      	b.n	1394 <tcp_kill_prio+0x64>
    1354:	697b      	ldr	r3, [r7, #20]
    1356:	7c5b      	ldrb	r3, [r3, #17]
    1358:	79fa      	ldrb	r2, [r7, #7]
    135a:	429a      	cmp	r2, r3
    135c:	d317      	bcc.n	138e <tcp_kill_prio+0x5e>
    135e:	697b      	ldr	r3, [r7, #20]
    1360:	7c5b      	ldrb	r3, [r3, #17]
    1362:	7afa      	ldrb	r2, [r7, #11]
    1364:	429a      	cmp	r2, r3
    1366:	d312      	bcc.n	138e <tcp_kill_prio+0x5e>
    1368:	4b15      	ldr	r3, [pc, #84]	; (13c0 <tcp_kill_prio+0x90>)
    136a:	681a      	ldr	r2, [r3, #0]
    136c:	697b      	ldr	r3, [r7, #20]
    136e:	6b1b      	ldr	r3, [r3, #48]	; 0x30
    1370:	1ad2      	subs	r2, r2, r3
    1372:	68fb      	ldr	r3, [r7, #12]
    1374:	429a      	cmp	r2, r3
    1376:	d30a      	bcc.n	138e <tcp_kill_prio+0x5e>
    1378:	4b11      	ldr	r3, [pc, #68]	; (13c0 <tcp_kill_prio+0x90>)
    137a:	681a      	ldr	r2, [r3, #0]
    137c:	697b      	ldr	r3, [r7, #20]
    137e:	6b1b      	ldr	r3, [r3, #48]	; 0x30
    1380:	1ad3      	subs	r3, r2, r3
    1382:	60fb      	str	r3, [r7, #12]
    1384:	697b      	ldr	r3, [r7, #20]
    1386:	613b      	str	r3, [r7, #16]
    1388:	697b      	ldr	r3, [r7, #20]
    138a:	7c5b      	ldrb	r3, [r3, #17]
    138c:	72fb      	strb	r3, [r7, #11]
    138e:	697b      	ldr	r3, [r7, #20]
    1390:	68db      	ldr	r3, [r3, #12]
    1392:	617b      	str	r3, [r7, #20]
    1394:	697b      	ldr	r3, [r7, #20]
    1396:	2b00      	cmp	r3, #0
    1398:	d1dc      	bne.n	1354 <tcp_kill_prio+0x24>
    139a:	693b      	ldr	r3, [r7, #16]
    139c:	2b00      	cmp	r3, #0
    139e:	d009      	beq.n	13b4 <tcp_kill_prio+0x84>
    13a0:	4808      	ldr	r0, [pc, #32]	; (13c4 <tcp_kill_prio+0x94>)
    13a2:	6939      	ldr	r1, [r7, #16]
    13a4:	68fa      	ldr	r2, [r7, #12]
    13a6:	f004 faa9 	bl	58fc <DebugPrintf>
    13aa:	6938      	ldr	r0, [r7, #16]
    13ac:	f04f 0101 	mov.w	r1, #1
    13b0:	f7ff f97e 	bl	6b0 <tcp_abandon>
    13b4:	f107 0718 	add.w	r7, r7, #24
    13b8:	46bd      	mov	sp, r7
    13ba:	bd80      	pop	{r7, pc}
    13bc:	20003dd4 	.word	0x20003dd4
    13c0:	20003dd8 	.word	0x20003dd8
    13c4:	00009454 	.word	0x00009454

000013c8 <tcp_kill_timewait>:
    13c8:	b580      	push	{r7, lr}
    13ca:	b084      	sub	sp, #16
    13cc:	af00      	add	r7, sp, #0
    13ce:	f04f 0300 	mov.w	r3, #0
    13d2:	607b      	str	r3, [r7, #4]
    13d4:	f04f 0300 	mov.w	r3, #0
    13d8:	60bb      	str	r3, [r7, #8]
    13da:	4b15      	ldr	r3, [pc, #84]	; (1430 <tcp_kill_timewait+0x68>)
    13dc:	681b      	ldr	r3, [r3, #0]
    13de:	60fb      	str	r3, [r7, #12]
    13e0:	e012      	b.n	1408 <tcp_kill_timewait+0x40>
    13e2:	4b14      	ldr	r3, [pc, #80]	; (1434 <tcp_kill_timewait+0x6c>)
    13e4:	681a      	ldr	r2, [r3, #0]
    13e6:	68fb      	ldr	r3, [r7, #12]
    13e8:	6b1b      	ldr	r3, [r3, #48]	; 0x30
    13ea:	1ad2      	subs	r2, r2, r3
    13ec:	687b      	ldr	r3, [r7, #4]
    13ee:	429a      	cmp	r2, r3
    13f0:	d307      	bcc.n	1402 <tcp_kill_timewait+0x3a>
    13f2:	4b10      	ldr	r3, [pc, #64]	; (1434 <tcp_kill_timewait+0x6c>)
    13f4:	681a      	ldr	r2, [r3, #0]
    13f6:	68fb      	ldr	r3, [r7, #12]
    13f8:	6b1b      	ldr	r3, [r3, #48]	; 0x30
    13fa:	1ad3      	subs	r3, r2, r3
    13fc:	607b      	str	r3, [r7, #4]
    13fe:	68fb      	ldr	r3, [r7, #12]
    1400:	60bb      	str	r3, [r7, #8]
    1402:	68fb      	ldr	r3, [r7, #12]
    1404:	68db      	ldr	r3, [r3, #12]
    1406:	60fb      	str	r3, [r7, #12]
    1408:	68fb      	ldr	r3, [r7, #12]
    140a:	2b00      	cmp	r3, #0
    140c:	d1e9      	bne.n	13e2 <tcp_kill_timewait+0x1a>
    140e:	68bb      	ldr	r3, [r7, #8]
    1410:	2b00      	cmp	r3, #0
    1412:	d009      	beq.n	1428 <tcp_kill_timewait+0x60>
    1414:	4808      	ldr	r0, [pc, #32]	; (1438 <tcp_kill_timewait+0x70>)
    1416:	68b9      	ldr	r1, [r7, #8]
    1418:	687a      	ldr	r2, [r7, #4]
    141a:	f004 fa6f 	bl	58fc <DebugPrintf>
    141e:	68b8      	ldr	r0, [r7, #8]
    1420:	f04f 0101 	mov.w	r1, #1
    1424:	f7ff f944 	bl	6b0 <tcp_abandon>
    1428:	f107 0710 	add.w	r7, r7, #16
    142c:	46bd      	mov	sp, r7
    142e:	bd80      	pop	{r7, pc}
    1430:	20003de8 	.word	0x20003de8
    1434:	20003dd8 	.word	0x20003dd8
    1438:	00009480 	.word	0x00009480

0000143c <tcp_alloc>:
    143c:	b580      	push	{r7, lr}
    143e:	b084      	sub	sp, #16
    1440:	af00      	add	r7, sp, #0
    1442:	4603      	mov	r3, r0
    1444:	71fb      	strb	r3, [r7, #7]
    1446:	f04f 0002 	mov.w	r0, #2
    144a:	f000 feb1 	bl	21b0 <memp_malloc>
    144e:	4603      	mov	r3, r0
    1450:	60fb      	str	r3, [r7, #12]
    1452:	68fb      	ldr	r3, [r7, #12]
    1454:	2b00      	cmp	r3, #0
    1456:	d134      	bne.n	14c2 <tcp_alloc+0x86>
    1458:	4851      	ldr	r0, [pc, #324]	; (15a0 <tcp_alloc+0x164>)
    145a:	f004 fa4f 	bl	58fc <DebugPrintf>
    145e:	f7ff ffb3 	bl	13c8 <tcp_kill_timewait>
    1462:	f04f 0002 	mov.w	r0, #2
    1466:	f000 fea3 	bl	21b0 <memp_malloc>
    146a:	4603      	mov	r3, r0
    146c:	60fb      	str	r3, [r7, #12]
    146e:	68fb      	ldr	r3, [r7, #12]
    1470:	2b00      	cmp	r3, #0
    1472:	d11a      	bne.n	14aa <tcp_alloc+0x6e>
    1474:	79fb      	ldrb	r3, [r7, #7]
    1476:	484b      	ldr	r0, [pc, #300]	; (15a4 <tcp_alloc+0x168>)
    1478:	4619      	mov	r1, r3
    147a:	f004 fa3f 	bl	58fc <DebugPrintf>
    147e:	79fb      	ldrb	r3, [r7, #7]
    1480:	4618      	mov	r0, r3
    1482:	f7ff ff55 	bl	1330 <tcp_kill_prio>
    1486:	f04f 0002 	mov.w	r0, #2
    148a:	f000 fe91 	bl	21b0 <memp_malloc>
    148e:	4603      	mov	r3, r0
    1490:	60fb      	str	r3, [r7, #12]
    1492:	68fb      	ldr	r3, [r7, #12]
    1494:	2b00      	cmp	r3, #0
    1496:	d008      	beq.n	14aa <tcp_alloc+0x6e>
    1498:	4b43      	ldr	r3, [pc, #268]	; (15a8 <tcp_alloc+0x16c>)
    149a:	f8b3 30b4 	ldrh.w	r3, [r3, #180]	; 0xb4
    149e:	f103 33ff 	add.w	r3, r3, #4294967295
    14a2:	b29a      	uxth	r2, r3
    14a4:	4b40      	ldr	r3, [pc, #256]	; (15a8 <tcp_alloc+0x16c>)
    14a6:	f8a3 20b4 	strh.w	r2, [r3, #180]	; 0xb4
    14aa:	68fb      	ldr	r3, [r7, #12]
    14ac:	2b00      	cmp	r3, #0
    14ae:	d008      	beq.n	14c2 <tcp_alloc+0x86>
    14b0:	4b3d      	ldr	r3, [pc, #244]	; (15a8 <tcp_alloc+0x16c>)
    14b2:	f8b3 30b4 	ldrh.w	r3, [r3, #180]	; 0xb4
    14b6:	f103 33ff 	add.w	r3, r3, #4294967295
    14ba:	b29a      	uxth	r2, r3
    14bc:	4b3a      	ldr	r3, [pc, #232]	; (15a8 <tcp_alloc+0x16c>)
    14be:	f8a3 20b4 	strh.w	r2, [r3, #180]	; 0xb4
    14c2:	68fb      	ldr	r3, [r7, #12]
    14c4:	2b00      	cmp	r3, #0
    14c6:	d065      	beq.n	1594 <tcp_alloc+0x158>
    14c8:	68f8      	ldr	r0, [r7, #12]
    14ca:	f04f 0100 	mov.w	r1, #0
    14ce:	f04f 02a4 	mov.w	r2, #164	; 0xa4
    14d2:	f007 fd7b 	bl	8fcc <memset>
    14d6:	68fb      	ldr	r3, [r7, #12]
    14d8:	f04f 0240 	mov.w	r2, #64	; 0x40
    14dc:	745a      	strb	r2, [r3, #17]
    14de:	68fb      	ldr	r3, [r7, #12]
    14e0:	f241 7270 	movw	r2, #6000	; 0x1770
    14e4:	f8a3 206e 	strh.w	r2, [r3, #110]	; 0x6e
    14e8:	68fb      	ldr	r3, [r7, #12]
    14ea:	f04f 0200 	mov.w	r2, #0
    14ee:	f8a3 2070 	strh.w	r2, [r3, #112]	; 0x70
    14f2:	68fb      	ldr	r3, [r7, #12]
    14f4:	f44f 5280 	mov.w	r2, #4096	; 0x1000
    14f8:	851a      	strh	r2, [r3, #40]	; 0x28
    14fa:	68fb      	ldr	r3, [r7, #12]
    14fc:	f44f 5280 	mov.w	r2, #4096	; 0x1000
    1500:	855a      	strh	r2, [r3, #42]	; 0x2a
    1502:	68fb      	ldr	r3, [r7, #12]
    1504:	f04f 0200 	mov.w	r2, #0
    1508:	729a      	strb	r2, [r3, #10]
    150a:	68fb      	ldr	r3, [r7, #12]
    150c:	f04f 02ff 	mov.w	r2, #255	; 0xff
    1510:	72da      	strb	r2, [r3, #11]
    1512:	68fb      	ldr	r3, [r7, #12]
    1514:	f44f 7206 	mov.w	r2, #536	; 0x218
    1518:	871a      	strh	r2, [r3, #56]	; 0x38
    151a:	68fb      	ldr	r3, [r7, #12]
    151c:	f04f 0206 	mov.w	r2, #6
    1520:	f8a3 2048 	strh.w	r2, [r3, #72]	; 0x48
    1524:	68fb      	ldr	r3, [r7, #12]
    1526:	f04f 0200 	mov.w	r2, #0
    152a:	f8a3 2044 	strh.w	r2, [r3, #68]	; 0x44
    152e:	68fb      	ldr	r3, [r7, #12]
    1530:	f04f 0206 	mov.w	r2, #6
    1534:	f8a3 2046 	strh.w	r2, [r3, #70]	; 0x46
    1538:	68fb      	ldr	r3, [r7, #12]
    153a:	f64f 72ff 	movw	r2, #65535	; 0xffff
    153e:	86da      	strh	r2, [r3, #54]	; 0x36
    1540:	68fb      	ldr	r3, [r7, #12]
    1542:	f04f 0201 	mov.w	r2, #1
    1546:	f8a3 2052 	strh.w	r2, [r3, #82]	; 0x52
    154a:	f000 f95d 	bl	1808 <tcp_next_iss>
    154e:	60b8      	str	r0, [r7, #8]
    1550:	68fb      	ldr	r3, [r7, #12]
    1552:	68ba      	ldr	r2, [r7, #8]
    1554:	665a      	str	r2, [r3, #100]	; 0x64
    1556:	68fb      	ldr	r3, [r7, #12]
    1558:	68ba      	ldr	r2, [r7, #8]
    155a:	659a      	str	r2, [r3, #88]	; 0x58
    155c:	68fb      	ldr	r3, [r7, #12]
    155e:	68ba      	ldr	r2, [r7, #8]
    1560:	64da      	str	r2, [r3, #76]	; 0x4c
    1562:	68fb      	ldr	r3, [r7, #12]
    1564:	68ba      	ldr	r2, [r7, #8]
    1566:	669a      	str	r2, [r3, #104]	; 0x68
    1568:	4b10      	ldr	r3, [pc, #64]	; (15ac <tcp_alloc+0x170>)
    156a:	681a      	ldr	r2, [r3, #0]
    156c:	68fb      	ldr	r3, [r7, #12]
    156e:	631a      	str	r2, [r3, #48]	; 0x30
    1570:	68fb      	ldr	r3, [r7, #12]
    1572:	f04f 0200 	mov.w	r2, #0
    1576:	f883 2034 	strb.w	r2, [r3, #52]	; 0x34
    157a:	68fb      	ldr	r3, [r7, #12]
    157c:	4a0c      	ldr	r2, [pc, #48]	; (15b0 <tcp_alloc+0x174>)
    157e:	f8c3 2088 	str.w	r2, [r3, #136]	; 0x88
    1582:	68fb      	ldr	r3, [r7, #12]
    1584:	4a0b      	ldr	r2, [pc, #44]	; (15b4 <tcp_alloc+0x178>)
    1586:	f8c3 2098 	str.w	r2, [r3, #152]	; 0x98
    158a:	68fb      	ldr	r3, [r7, #12]
    158c:	f04f 0200 	mov.w	r2, #0
    1590:	f883 20a1 	strb.w	r2, [r3, #161]	; 0xa1
    1594:	68fb      	ldr	r3, [r7, #12]
    1596:	4618      	mov	r0, r3
    1598:	f107 0710 	add.w	r7, r7, #16
    159c:	46bd      	mov	sp, r7
    159e:	bd80      	pop	{r7, pc}
    15a0:	000094bc 	.word	0x000094bc
    15a4:	000094f0 	.word	0x000094f0
    15a8:	20004128 	.word	0x20004128
    15ac:	20003dd8 	.word	0x20003dd8
    15b0:	000012e5 	.word	0x000012e5
    15b4:	006ddd00 	.word	0x006ddd00

000015b8 <tcp_new>:
    15b8:	b580      	push	{r7, lr}
    15ba:	af00      	add	r7, sp, #0
    15bc:	f04f 0040 	mov.w	r0, #64	; 0x40
    15c0:	f7ff ff3c 	bl	143c <tcp_alloc>
    15c4:	4603      	mov	r3, r0
    15c6:	4618      	mov	r0, r3
    15c8:	bd80      	pop	{r7, pc}
    15ca:	bf00      	nop

000015cc <tcp_arg>:
    15cc:	b480      	push	{r7}
    15ce:	b083      	sub	sp, #12
    15d0:	af00      	add	r7, sp, #0
    15d2:	6078      	str	r0, [r7, #4]
    15d4:	6039      	str	r1, [r7, #0]
    15d6:	687b      	ldr	r3, [r7, #4]
    15d8:	683a      	ldr	r2, [r7, #0]
    15da:	615a      	str	r2, [r3, #20]
    15dc:	f107 070c 	add.w	r7, r7, #12
    15e0:	46bd      	mov	sp, r7
    15e2:	bc80      	pop	{r7}
    15e4:	4770      	bx	lr
    15e6:	bf00      	nop

000015e8 <tcp_recv>:
    15e8:	b480      	push	{r7}
    15ea:	b083      	sub	sp, #12
    15ec:	af00      	add	r7, sp, #0
    15ee:	6078      	str	r0, [r7, #4]
    15f0:	6039      	str	r1, [r7, #0]
    15f2:	687b      	ldr	r3, [r7, #4]
    15f4:	683a      	ldr	r2, [r7, #0]
    15f6:	f8c3 2088 	str.w	r2, [r3, #136]	; 0x88
    15fa:	f107 070c 	add.w	r7, r7, #12
    15fe:	46bd      	mov	sp, r7
    1600:	bc80      	pop	{r7}
    1602:	4770      	bx	lr

00001604 <tcp_sent>:
    1604:	b480      	push	{r7}
    1606:	b083      	sub	sp, #12
    1608:	af00      	add	r7, sp, #0
    160a:	6078      	str	r0, [r7, #4]
    160c:	6039      	str	r1, [r7, #0]
    160e:	687b      	ldr	r3, [r7, #4]
    1610:	683a      	ldr	r2, [r7, #0]
    1612:	f8c3 2084 	str.w	r2, [r3, #132]	; 0x84
    1616:	f107 070c 	add.w	r7, r7, #12
    161a:	46bd      	mov	sp, r7
    161c:	bc80      	pop	{r7}
    161e:	4770      	bx	lr

00001620 <tcp_err>:
    1620:	b480      	push	{r7}
    1622:	b083      	sub	sp, #12
    1624:	af00      	add	r7, sp, #0
    1626:	6078      	str	r0, [r7, #4]
    1628:	6039      	str	r1, [r7, #0]
    162a:	687b      	ldr	r3, [r7, #4]
    162c:	683a      	ldr	r2, [r7, #0]
    162e:	f8c3 2094 	str.w	r2, [r3, #148]	; 0x94
    1632:	f107 070c 	add.w	r7, r7, #12
    1636:	46bd      	mov	sp, r7
    1638:	bc80      	pop	{r7}
    163a:	4770      	bx	lr

0000163c <tcp_accept>:
    163c:	b480      	push	{r7}
    163e:	b083      	sub	sp, #12
    1640:	af00      	add	r7, sp, #0
    1642:	6078      	str	r0, [r7, #4]
    1644:	6039      	str	r1, [r7, #0]
    1646:	687b      	ldr	r3, [r7, #4]
    1648:	683a      	ldr	r2, [r7, #0]
    164a:	61da      	str	r2, [r3, #28]
    164c:	f107 070c 	add.w	r7, r7, #12
    1650:	46bd      	mov	sp, r7
    1652:	bc80      	pop	{r7}
    1654:	4770      	bx	lr
    1656:	bf00      	nop

00001658 <tcp_poll>:
    1658:	b480      	push	{r7}
    165a:	b085      	sub	sp, #20
    165c:	af00      	add	r7, sp, #0
    165e:	60f8      	str	r0, [r7, #12]
    1660:	60b9      	str	r1, [r7, #8]
    1662:	4613      	mov	r3, r2
    1664:	71fb      	strb	r3, [r7, #7]
    1666:	68fb      	ldr	r3, [r7, #12]
    1668:	68ba      	ldr	r2, [r7, #8]
    166a:	f8c3 2090 	str.w	r2, [r3, #144]	; 0x90
    166e:	68fb      	ldr	r3, [r7, #12]
    1670:	79fa      	ldrb	r2, [r7, #7]
    1672:	f883 2035 	strb.w	r2, [r3, #53]	; 0x35
    1676:	f107 0714 	add.w	r7, r7, #20
    167a:	46bd      	mov	sp, r7
    167c:	bc80      	pop	{r7}
    167e:	4770      	bx	lr

00001680 <tcp_pcb_purge>:
    1680:	b580      	push	{r7, lr}
    1682:	b082      	sub	sp, #8
    1684:	af00      	add	r7, sp, #0
    1686:	6078      	str	r0, [r7, #4]
    1688:	687b      	ldr	r3, [r7, #4]
    168a:	7c1b      	ldrb	r3, [r3, #16]
    168c:	2b00      	cmp	r3, #0
    168e:	d051      	beq.n	1734 <tcp_pcb_purge+0xb4>
    1690:	687b      	ldr	r3, [r7, #4]
    1692:	7c1b      	ldrb	r3, [r3, #16]
    1694:	2b0a      	cmp	r3, #10
    1696:	d04d      	beq.n	1734 <tcp_pcb_purge+0xb4>
    1698:	687b      	ldr	r3, [r7, #4]
    169a:	7c1b      	ldrb	r3, [r3, #16]
    169c:	2b01      	cmp	r3, #1
    169e:	d049      	beq.n	1734 <tcp_pcb_purge+0xb4>
    16a0:	4826      	ldr	r0, [pc, #152]	; (173c <tcp_pcb_purge+0xbc>)
    16a2:	f004 f92b 	bl	58fc <DebugPrintf>
    16a6:	687b      	ldr	r3, [r7, #4]
    16a8:	f8d3 3080 	ldr.w	r3, [r3, #128]	; 0x80
    16ac:	2b00      	cmp	r3, #0
    16ae:	d00d      	beq.n	16cc <tcp_pcb_purge+0x4c>
    16b0:	4823      	ldr	r0, [pc, #140]	; (1740 <tcp_pcb_purge+0xc0>)
    16b2:	f004 f923 	bl	58fc <DebugPrintf>
    16b6:	687b      	ldr	r3, [r7, #4]
    16b8:	f8d3 3080 	ldr.w	r3, [r3, #128]	; 0x80
    16bc:	4618      	mov	r0, r3
    16be:	f002 fa81 	bl	3bc4 <pbuf_free>
    16c2:	687b      	ldr	r3, [r7, #4]
    16c4:	f04f 0200 	mov.w	r2, #0
    16c8:	f8c3 2080 	str.w	r2, [r3, #128]	; 0x80
    16cc:	687b      	ldr	r3, [r7, #4]
    16ce:	6f5b      	ldr	r3, [r3, #116]	; 0x74
    16d0:	2b00      	cmp	r3, #0
    16d2:	d002      	beq.n	16da <tcp_pcb_purge+0x5a>
    16d4:	481b      	ldr	r0, [pc, #108]	; (1744 <tcp_pcb_purge+0xc4>)
    16d6:	f004 f911 	bl	58fc <DebugPrintf>
    16da:	687b      	ldr	r3, [r7, #4]
    16dc:	6f9b      	ldr	r3, [r3, #120]	; 0x78
    16de:	2b00      	cmp	r3, #0
    16e0:	d002      	beq.n	16e8 <tcp_pcb_purge+0x68>
    16e2:	4819      	ldr	r0, [pc, #100]	; (1748 <tcp_pcb_purge+0xc8>)
    16e4:	f004 f90a 	bl	58fc <DebugPrintf>
    16e8:	687b      	ldr	r3, [r7, #4]
    16ea:	6fdb      	ldr	r3, [r3, #124]	; 0x7c
    16ec:	2b00      	cmp	r3, #0
    16ee:	d002      	beq.n	16f6 <tcp_pcb_purge+0x76>
    16f0:	4816      	ldr	r0, [pc, #88]	; (174c <tcp_pcb_purge+0xcc>)
    16f2:	f004 f903 	bl	58fc <DebugPrintf>
    16f6:	687b      	ldr	r3, [r7, #4]
    16f8:	f64f 72ff 	movw	r2, #65535	; 0xffff
    16fc:	86da      	strh	r2, [r3, #54]	; 0x36
    16fe:	687b      	ldr	r3, [r7, #4]
    1700:	6fdb      	ldr	r3, [r3, #124]	; 0x7c
    1702:	4618      	mov	r0, r3
    1704:	f7ff fdac 	bl	1260 <tcp_segs_free>
    1708:	687b      	ldr	r3, [r7, #4]
    170a:	f04f 0200 	mov.w	r2, #0
    170e:	67da      	str	r2, [r3, #124]	; 0x7c
    1710:	687b      	ldr	r3, [r7, #4]
    1712:	6f5b      	ldr	r3, [r3, #116]	; 0x74
    1714:	4618      	mov	r0, r3
    1716:	f7ff fda3 	bl	1260 <tcp_segs_free>
    171a:	687b      	ldr	r3, [r7, #4]
    171c:	6f9b      	ldr	r3, [r3, #120]	; 0x78
    171e:	4618      	mov	r0, r3
    1720:	f7ff fd9e 	bl	1260 <tcp_segs_free>
    1724:	687b      	ldr	r3, [r7, #4]
    1726:	f04f 0200 	mov.w	r2, #0
    172a:	675a      	str	r2, [r3, #116]	; 0x74
    172c:	687b      	ldr	r3, [r7, #4]
    172e:	6f5a      	ldr	r2, [r3, #116]	; 0x74
    1730:	687b      	ldr	r3, [r7, #4]
    1732:	679a      	str	r2, [r3, #120]	; 0x78
    1734:	f107 0708 	add.w	r7, r7, #8
    1738:	46bd      	mov	sp, r7
    173a:	bd80      	pop	{r7, pc}
    173c:	00009528 	.word	0x00009528
    1740:	00009538 	.word	0x00009538
    1744:	00009564 	.word	0x00009564
    1748:	00009588 	.word	0x00009588
    174c:	000095b0 	.word	0x000095b0

00001750 <tcp_pcb_remove>:
    1750:	b580      	push	{r7, lr}
    1752:	b082      	sub	sp, #8
    1754:	af00      	add	r7, sp, #0
    1756:	6078      	str	r0, [r7, #4]
    1758:	6039      	str	r1, [r7, #0]
    175a:	687b      	ldr	r3, [r7, #4]
    175c:	681a      	ldr	r2, [r3, #0]
    175e:	683b      	ldr	r3, [r7, #0]
    1760:	429a      	cmp	r2, r3
    1762:	d105      	bne.n	1770 <tcp_pcb_remove+0x20>
    1764:	687b      	ldr	r3, [r7, #4]
    1766:	681b      	ldr	r3, [r3, #0]
    1768:	68da      	ldr	r2, [r3, #12]
    176a:	687b      	ldr	r3, [r7, #4]
    176c:	601a      	str	r2, [r3, #0]
    176e:	e019      	b.n	17a4 <tcp_pcb_remove+0x54>
    1770:	687b      	ldr	r3, [r7, #4]
    1772:	681a      	ldr	r2, [r3, #0]
    1774:	4b23      	ldr	r3, [pc, #140]	; (1804 <tcp_pcb_remove+0xb4>)
    1776:	601a      	str	r2, [r3, #0]
    1778:	e010      	b.n	179c <tcp_pcb_remove+0x4c>
    177a:	4b22      	ldr	r3, [pc, #136]	; (1804 <tcp_pcb_remove+0xb4>)
    177c:	681b      	ldr	r3, [r3, #0]
    177e:	68da      	ldr	r2, [r3, #12]
    1780:	683b      	ldr	r3, [r7, #0]
    1782:	429a      	cmp	r2, r3
    1784:	d105      	bne.n	1792 <tcp_pcb_remove+0x42>
    1786:	4b1f      	ldr	r3, [pc, #124]	; (1804 <tcp_pcb_remove+0xb4>)
    1788:	681b      	ldr	r3, [r3, #0]
    178a:	683a      	ldr	r2, [r7, #0]
    178c:	68d2      	ldr	r2, [r2, #12]
    178e:	60da      	str	r2, [r3, #12]
    1790:	e008      	b.n	17a4 <tcp_pcb_remove+0x54>
    1792:	4b1c      	ldr	r3, [pc, #112]	; (1804 <tcp_pcb_remove+0xb4>)
    1794:	681b      	ldr	r3, [r3, #0]
    1796:	68da      	ldr	r2, [r3, #12]
    1798:	4b1a      	ldr	r3, [pc, #104]	; (1804 <tcp_pcb_remove+0xb4>)
    179a:	601a      	str	r2, [r3, #0]
    179c:	4b19      	ldr	r3, [pc, #100]	; (1804 <tcp_pcb_remove+0xb4>)
    179e:	681b      	ldr	r3, [r3, #0]
    17a0:	2b00      	cmp	r3, #0
    17a2:	d1ea      	bne.n	177a <tcp_pcb_remove+0x2a>
    17a4:	683b      	ldr	r3, [r7, #0]
    17a6:	f04f 0200 	mov.w	r2, #0
    17aa:	60da      	str	r2, [r3, #12]
    17ac:	6838      	ldr	r0, [r7, #0]
    17ae:	f7ff ff67 	bl	1680 <tcp_pcb_purge>
    17b2:	683b      	ldr	r3, [r7, #0]
    17b4:	7c1b      	ldrb	r3, [r3, #16]
    17b6:	2b0a      	cmp	r3, #10
    17b8:	d017      	beq.n	17ea <tcp_pcb_remove+0x9a>
    17ba:	683b      	ldr	r3, [r7, #0]
    17bc:	7c1b      	ldrb	r3, [r3, #16]
    17be:	2b01      	cmp	r3, #1
    17c0:	d013      	beq.n	17ea <tcp_pcb_remove+0x9a>
    17c2:	683b      	ldr	r3, [r7, #0]
    17c4:	f893 3022 	ldrb.w	r3, [r3, #34]	; 0x22
    17c8:	f003 0301 	and.w	r3, r3, #1
    17cc:	b2db      	uxtb	r3, r3
    17ce:	2b00      	cmp	r3, #0
    17d0:	d00b      	beq.n	17ea <tcp_pcb_remove+0x9a>
    17d2:	683b      	ldr	r3, [r7, #0]
    17d4:	f893 3022 	ldrb.w	r3, [r3, #34]	; 0x22
    17d8:	f043 0302 	orr.w	r3, r3, #2
    17dc:	b2da      	uxtb	r2, r3
    17de:	683b      	ldr	r3, [r7, #0]
    17e0:	f883 2022 	strb.w	r2, [r3, #34]	; 0x22
    17e4:	6838      	ldr	r0, [r7, #0]
    17e6:	f006 fd61 	bl	82ac <tcp_output>
    17ea:	683b      	ldr	r3, [r7, #0]
    17ec:	7c1b      	ldrb	r3, [r3, #16]
    17ee:	2b01      	cmp	r3, #1
    17f0:	683b      	ldr	r3, [r7, #0]
    17f2:	f04f 0200 	mov.w	r2, #0
    17f6:	741a      	strb	r2, [r3, #16]
    17f8:	f000 f830 	bl	185c <tcp_pcbs_sane>
    17fc:	f107 0708 	add.w	r7, r7, #8
    1800:	46bd      	mov	sp, r7
    1802:	bd80      	pop	{r7, pc}
    1804:	20003de0 	.word	0x20003de0

00001808 <tcp_next_iss>:
    1808:	b480      	push	{r7}
    180a:	af00      	add	r7, sp, #0
    180c:	4b06      	ldr	r3, [pc, #24]	; (1828 <tcp_next_iss+0x20>)
    180e:	681a      	ldr	r2, [r3, #0]
    1810:	4b06      	ldr	r3, [pc, #24]	; (182c <tcp_next_iss+0x24>)
    1812:	681b      	ldr	r3, [r3, #0]
    1814:	18d2      	adds	r2, r2, r3
    1816:	4b04      	ldr	r3, [pc, #16]	; (1828 <tcp_next_iss+0x20>)
    1818:	601a      	str	r2, [r3, #0]
    181a:	4b03      	ldr	r3, [pc, #12]	; (1828 <tcp_next_iss+0x20>)
    181c:	681b      	ldr	r3, [r3, #0]
    181e:	4618      	mov	r0, r3
    1820:	46bd      	mov	sp, r7
    1822:	bc80      	pop	{r7}
    1824:	4770      	bx	lr
    1826:	bf00      	nop
    1828:	2000002c 	.word	0x2000002c
    182c:	20003dd8 	.word	0x20003dd8

00001830 <tcp_debug_print_state>:
    1830:	b580      	push	{r7, lr}
    1832:	b082      	sub	sp, #8
    1834:	af00      	add	r7, sp, #0
    1836:	4603      	mov	r3, r0
    1838:	71fb      	strb	r3, [r7, #7]
    183a:	79fa      	ldrb	r2, [r7, #7]
    183c:	4b05      	ldr	r3, [pc, #20]	; (1854 <tcp_debug_print_state+0x24>)
    183e:	f853 3022 	ldr.w	r3, [r3, r2, lsl #2]
    1842:	4805      	ldr	r0, [pc, #20]	; (1858 <tcp_debug_print_state+0x28>)
    1844:	4619      	mov	r1, r3
    1846:	f004 f859 	bl	58fc <DebugPrintf>
    184a:	f107 0708 	add.w	r7, r7, #8
    184e:	46bd      	mov	sp, r7
    1850:	bd80      	pop	{r7, pc}
    1852:	bf00      	nop
    1854:	20000000 	.word	0x20000000
    1858:	00009708 	.word	0x00009708

0000185c <tcp_pcbs_sane>:
    185c:	b480      	push	{r7}
    185e:	b083      	sub	sp, #12
    1860:	af00      	add	r7, sp, #0
    1862:	4b0e      	ldr	r3, [pc, #56]	; (189c <tcp_pcbs_sane+0x40>)
    1864:	681b      	ldr	r3, [r3, #0]
    1866:	607b      	str	r3, [r7, #4]
    1868:	e002      	b.n	1870 <tcp_pcbs_sane+0x14>
    186a:	687b      	ldr	r3, [r7, #4]
    186c:	68db      	ldr	r3, [r3, #12]
    186e:	607b      	str	r3, [r7, #4]
    1870:	687b      	ldr	r3, [r7, #4]
    1872:	2b00      	cmp	r3, #0
    1874:	d1f9      	bne.n	186a <tcp_pcbs_sane+0xe>
    1876:	4b0a      	ldr	r3, [pc, #40]	; (18a0 <tcp_pcbs_sane+0x44>)
    1878:	681b      	ldr	r3, [r3, #0]
    187a:	607b      	str	r3, [r7, #4]
    187c:	e002      	b.n	1884 <tcp_pcbs_sane+0x28>
    187e:	687b      	ldr	r3, [r7, #4]
    1880:	68db      	ldr	r3, [r3, #12]
    1882:	607b      	str	r3, [r7, #4]
    1884:	687b      	ldr	r3, [r7, #4]
    1886:	2b00      	cmp	r3, #0
    1888:	d1f9      	bne.n	187e <tcp_pcbs_sane+0x22>
    188a:	f04f 0301 	mov.w	r3, #1
    188e:	b21b      	sxth	r3, r3
    1890:	4618      	mov	r0, r3
    1892:	f107 070c 	add.w	r7, r7, #12
    1896:	46bd      	mov	sp, r7
    1898:	bc80      	pop	{r7}
    189a:	4770      	bx	lr
    189c:	20003dd4 	.word	0x20003dd4
    18a0:	20003de8 	.word	0x20003de8

000018a4 <OsSchedUnlock>:
    18a4:	b580      	push	{r7, lr}
    18a6:	af00      	add	r7, sp, #0
    18a8:	4b0f      	ldr	r3, [pc, #60]	; (18e8 <OsSchedUnlock+0x44>)
    18aa:	781b      	ldrb	r3, [r3, #0]
    18ac:	b2db      	uxtb	r3, r3
    18ae:	2b01      	cmp	r3, #1
    18b0:	d111      	bne.n	18d6 <OsSchedUnlock+0x32>
    18b2:	4b0e      	ldr	r3, [pc, #56]	; (18ec <OsSchedUnlock+0x48>)
    18b4:	781b      	ldrb	r3, [r3, #0]
    18b6:	2b01      	cmp	r3, #1
    18b8:	d101      	bne.n	18be <OsSchedUnlock+0x1a>
    18ba:	f001 fa41 	bl	2d40 <RespondSRQ>
    18be:	4b0c      	ldr	r3, [pc, #48]	; (18f0 <OsSchedUnlock+0x4c>)
    18c0:	781b      	ldrb	r3, [r3, #0]
    18c2:	b2db      	uxtb	r3, r3
    18c4:	2b01      	cmp	r3, #1
    18c6:	d101      	bne.n	18cc <OsSchedUnlock+0x28>
    18c8:	f001 f8ae 	bl	2a28 <Schedule>
    18cc:	4b06      	ldr	r3, [pc, #24]	; (18e8 <OsSchedUnlock+0x44>)
    18ce:	f04f 0200 	mov.w	r2, #0
    18d2:	701a      	strb	r2, [r3, #0]
    18d4:	e007      	b.n	18e6 <OsSchedUnlock+0x42>
    18d6:	4b04      	ldr	r3, [pc, #16]	; (18e8 <OsSchedUnlock+0x44>)
    18d8:	781b      	ldrb	r3, [r3, #0]
    18da:	b2db      	uxtb	r3, r3
    18dc:	f103 33ff 	add.w	r3, r3, #4294967295
    18e0:	b2da      	uxtb	r2, r3
    18e2:	4b01      	ldr	r3, [pc, #4]	; (18e8 <OsSchedUnlock+0x44>)
    18e4:	701a      	strb	r2, [r3, #0]
    18e6:	bd80      	pop	{r7, pc}
    18e8:	20000982 	.word	0x20000982
    18ec:	200037cc 	.word	0x200037cc
    18f0:	20000983 	.word	0x20000983

000018f4 <CoSchedLock>:
    18f4:	b480      	push	{r7}
    18f6:	af00      	add	r7, sp, #0
    18f8:	4b05      	ldr	r3, [pc, #20]	; (1910 <CoSchedLock+0x1c>)
    18fa:	781b      	ldrb	r3, [r3, #0]
    18fc:	b2db      	uxtb	r3, r3
    18fe:	f103 0301 	add.w	r3, r3, #1
    1902:	b2da      	uxtb	r2, r3
    1904:	4b02      	ldr	r3, [pc, #8]	; (1910 <CoSchedLock+0x1c>)
    1906:	701a      	strb	r2, [r3, #0]
    1908:	46bd      	mov	sp, r7
    190a:	bc80      	pop	{r7}
    190c:	4770      	bx	lr
    190e:	bf00      	nop
    1910:	20000982 	.word	0x20000982

00001914 <CoSchedUnlock>:
    1914:	b580      	push	{r7, lr}
    1916:	af00      	add	r7, sp, #0
    1918:	f7ff ffc4 	bl	18a4 <OsSchedUnlock>
    191c:	bd80      	pop	{r7, pc}
    191e:	bf00      	nop

00001920 <CoInitOS>:
    1920:	b580      	push	{r7, lr}
    1922:	af00      	add	r7, sp, #0
    1924:	4b17      	ldr	r3, [pc, #92]	; (1984 <CoInitOS+0x64>)
    1926:	4a18      	ldr	r2, [pc, #96]	; (1988 <CoInitOS+0x68>)
    1928:	601a      	str	r2, [r3, #0]
    192a:	4b18      	ldr	r3, [pc, #96]	; (198c <CoInitOS+0x6c>)
    192c:	f04f 0207 	mov.w	r2, #7
    1930:	601a      	str	r2, [r3, #0]
    1932:	4b17      	ldr	r3, [pc, #92]	; (1990 <CoInitOS+0x70>)
    1934:	4a16      	ldr	r2, [pc, #88]	; (1990 <CoInitOS+0x70>)
    1936:	6812      	ldr	r2, [r2, #0]
    1938:	f042 427f 	orr.w	r2, r2, #4278190080	; 0xff000000
    193c:	601a      	str	r2, [r3, #0]
    193e:	4a15      	ldr	r2, [pc, #84]	; (1994 <CoInitOS+0x74>)
    1940:	4b14      	ldr	r3, [pc, #80]	; (1994 <CoInitOS+0x74>)
    1942:	681b      	ldr	r3, [r3, #0]
    1944:	ea6f 4303 	mvn.w	r3, r3, lsl #16
    1948:	ea6f 4313 	mvn.w	r3, r3, lsr #16
    194c:	6013      	str	r3, [r2, #0]
    194e:	f000 ff63 	bl	2818 <CreateTCBList>
    1952:	f003 fb1d 	bl	4f90 <CreateEventList>
    1956:	f7fe fd9d 	bl	494 <CoCreateKheap>
    195a:	4b0f      	ldr	r3, [pc, #60]	; (1998 <CoInitOS+0x78>)
    195c:	781b      	ldrb	r3, [r3, #0]
    195e:	b2db      	uxtb	r3, r3
    1960:	f103 0301 	add.w	r3, r3, #1
    1964:	b2da      	uxtb	r2, r3
    1966:	4b0c      	ldr	r3, [pc, #48]	; (1998 <CoInitOS+0x78>)
    1968:	701a      	strb	r2, [r3, #0]
    196a:	480c      	ldr	r0, [pc, #48]	; (199c <CoInitOS+0x7c>)
    196c:	f04f 0100 	mov.w	r1, #0
    1970:	f44f 52ca 	mov.w	r2, #6464	; 0x1940
    1974:	4b0a      	ldr	r3, [pc, #40]	; (19a0 <CoInitOS+0x80>)
    1976:	f001 f931 	bl	2bdc <CreateTask>
    197a:	4809      	ldr	r0, [pc, #36]	; (19a0 <CoInitOS+0x80>)
    197c:	f004 fa24 	bl	5dc8 <SetEnvironment>
    1980:	bd80      	pop	{r7, pc}
    1982:	bf00      	nop
    1984:	e000e014 	.word	0xe000e014
    1988:	000afc7f 	.word	0x000afc7f
    198c:	e000e010 	.word	0xe000e010
    1990:	e000ed1c 	.word	0xe000ed1c
    1994:	e000ed20 	.word	0xe000ed20
    1998:	20000982 	.word	0x20000982
    199c:	0000787d 	.word	0x0000787d
    19a0:	20003780 	.word	0x20003780

000019a4 <CoStartOS>:
    19a4:	b580      	push	{r7, lr}
    19a6:	af00      	add	r7, sp, #0
    19a8:	4b09      	ldr	r3, [pc, #36]	; (19d0 <CoStartOS+0x2c>)
    19aa:	4a0a      	ldr	r2, [pc, #40]	; (19d4 <CoStartOS+0x30>)
    19ac:	601a      	str	r2, [r3, #0]
    19ae:	4b08      	ldr	r3, [pc, #32]	; (19d0 <CoStartOS+0x2c>)
    19b0:	681a      	ldr	r2, [r3, #0]
    19b2:	4b09      	ldr	r3, [pc, #36]	; (19d8 <CoStartOS+0x34>)
    19b4:	601a      	str	r2, [r3, #0]
    19b6:	4b06      	ldr	r3, [pc, #24]	; (19d0 <CoStartOS+0x2c>)
    19b8:	681b      	ldr	r3, [r3, #0]
    19ba:	f04f 0201 	mov.w	r2, #1
    19be:	715a      	strb	r2, [r3, #5]
    19c0:	4b03      	ldr	r3, [pc, #12]	; (19d0 <CoStartOS+0x2c>)
    19c2:	681b      	ldr	r3, [r3, #0]
    19c4:	4618      	mov	r0, r3
    19c6:	f000 ffe5 	bl	2994 <RemoveFromTCBRdyList>
    19ca:	f7ff ff6b 	bl	18a4 <OsSchedUnlock>
    19ce:	bd80      	pop	{r7, pc}
    19d0:	20003790 	.word	0x20003790
    19d4:	20003618 	.word	0x20003618
    19d8:	2000378c 	.word	0x2000378c

000019dc <NVIC_EnableIRQ>:
    19dc:	b480      	push	{r7}
    19de:	b083      	sub	sp, #12
    19e0:	af00      	add	r7, sp, #0
    19e2:	4603      	mov	r3, r0
    19e4:	71fb      	strb	r3, [r7, #7]
    19e6:	4b09      	ldr	r3, [pc, #36]	; (1a0c <NVIC_EnableIRQ+0x30>)
    19e8:	f997 2007 	ldrsb.w	r2, [r7, #7]
    19ec:	ea4f 1252 	mov.w	r2, r2, lsr #5
    19f0:	79f9      	ldrb	r1, [r7, #7]
    19f2:	f001 011f 	and.w	r1, r1, #31
    19f6:	f04f 0001 	mov.w	r0, #1
    19fa:	fa00 f101 	lsl.w	r1, r0, r1
    19fe:	f843 1022 	str.w	r1, [r3, r2, lsl #2]
    1a02:	f107 070c 	add.w	r7, r7, #12
    1a06:	46bd      	mov	sp, r7
    1a08:	bc80      	pop	{r7}
    1a0a:	4770      	bx	lr
    1a0c:	e000e100 	.word	0xe000e100

00001a10 <NVIC_DisableIRQ>:
    1a10:	b480      	push	{r7}
    1a12:	b083      	sub	sp, #12
    1a14:	af00      	add	r7, sp, #0
    1a16:	4603      	mov	r3, r0
    1a18:	71fb      	strb	r3, [r7, #7]
    1a1a:	4b0a      	ldr	r3, [pc, #40]	; (1a44 <NVIC_DisableIRQ+0x34>)
    1a1c:	f997 2007 	ldrsb.w	r2, [r7, #7]
    1a20:	ea4f 1252 	mov.w	r2, r2, lsr #5
    1a24:	79f9      	ldrb	r1, [r7, #7]
    1a26:	f001 011f 	and.w	r1, r1, #31
    1a2a:	f04f 0001 	mov.w	r0, #1
    1a2e:	fa00 f101 	lsl.w	r1, r0, r1
    1a32:	f102 0220 	add.w	r2, r2, #32
    1a36:	f843 1022 	str.w	r1, [r3, r2, lsl #2]
    1a3a:	f107 070c 	add.w	r7, r7, #12
    1a3e:	46bd      	mov	sp, r7
    1a40:	bc80      	pop	{r7}
    1a42:	4770      	bx	lr
    1a44:	e000e100 	.word	0xe000e100

00001a48 <fifo_init>:
    1a48:	b480      	push	{r7}
    1a4a:	b083      	sub	sp, #12
    1a4c:	af00      	add	r7, sp, #0
    1a4e:	6078      	str	r0, [r7, #4]
    1a50:	6039      	str	r1, [r7, #0]
    1a52:	687b      	ldr	r3, [r7, #4]
    1a54:	f04f 0200 	mov.w	r2, #0
    1a58:	601a      	str	r2, [r3, #0]
    1a5a:	687b      	ldr	r3, [r7, #4]
    1a5c:	f04f 0200 	mov.w	r2, #0
    1a60:	605a      	str	r2, [r3, #4]
    1a62:	683a      	ldr	r2, [r7, #0]
    1a64:	687b      	ldr	r3, [r7, #4]
    1a66:	609a      	str	r2, [r3, #8]
    1a68:	f107 070c 	add.w	r7, r7, #12
    1a6c:	46bd      	mov	sp, r7
    1a6e:	bc80      	pop	{r7}
    1a70:	4770      	bx	lr
    1a72:	bf00      	nop

00001a74 <_fifo_put>:
    1a74:	b480      	push	{r7}
    1a76:	b085      	sub	sp, #20
    1a78:	af00      	add	r7, sp, #0
    1a7a:	6078      	str	r0, [r7, #4]
    1a7c:	460b      	mov	r3, r1
    1a7e:	70fb      	strb	r3, [r7, #3]
    1a80:	687b      	ldr	r3, [r7, #4]
    1a82:	681b      	ldr	r3, [r3, #0]
    1a84:	f103 0201 	add.w	r2, r3, #1
    1a88:	4b12      	ldr	r3, [pc, #72]	; (1ad4 <_fifo_put+0x60>)
    1a8a:	ea02 0303 	and.w	r3, r2, r3
    1a8e:	2b00      	cmp	r3, #0
    1a90:	da05      	bge.n	1a9e <_fifo_put+0x2a>
    1a92:	f103 33ff 	add.w	r3, r3, #4294967295
    1a96:	f063 03ff 	orn	r3, r3, #255	; 0xff
    1a9a:	f103 0301 	add.w	r3, r3, #1
    1a9e:	60fb      	str	r3, [r7, #12]
    1aa0:	687b      	ldr	r3, [r7, #4]
    1aa2:	685a      	ldr	r2, [r3, #4]
    1aa4:	68fb      	ldr	r3, [r7, #12]
    1aa6:	429a      	cmp	r2, r3
    1aa8:	d102      	bne.n	1ab0 <_fifo_put+0x3c>
    1aaa:	f04f 0300 	mov.w	r3, #0
    1aae:	e00b      	b.n	1ac8 <_fifo_put+0x54>
    1ab0:	687b      	ldr	r3, [r7, #4]
    1ab2:	689a      	ldr	r2, [r3, #8]
    1ab4:	687b      	ldr	r3, [r7, #4]
    1ab6:	681b      	ldr	r3, [r3, #0]
    1ab8:	18d3      	adds	r3, r2, r3
    1aba:	78fa      	ldrb	r2, [r7, #3]
    1abc:	701a      	strb	r2, [r3, #0]
    1abe:	687b      	ldr	r3, [r7, #4]
    1ac0:	68fa      	ldr	r2, [r7, #12]
    1ac2:	601a      	str	r2, [r3, #0]
    1ac4:	f04f 0301 	mov.w	r3, #1
    1ac8:	4618      	mov	r0, r3
    1aca:	f107 0714 	add.w	r7, r7, #20
    1ace:	46bd      	mov	sp, r7
    1ad0:	bc80      	pop	{r7}
    1ad2:	4770      	bx	lr
    1ad4:	800000ff 	.word	0x800000ff

00001ad8 <_fifo_get>:
    1ad8:	b480      	push	{r7}
    1ada:	b085      	sub	sp, #20
    1adc:	af00      	add	r7, sp, #0
    1ade:	6078      	str	r0, [r7, #4]
    1ae0:	6039      	str	r1, [r7, #0]
    1ae2:	687b      	ldr	r3, [r7, #4]
    1ae4:	681a      	ldr	r2, [r3, #0]
    1ae6:	687b      	ldr	r3, [r7, #4]
    1ae8:	685b      	ldr	r3, [r3, #4]
    1aea:	429a      	cmp	r2, r3
    1aec:	d102      	bne.n	1af4 <_fifo_get+0x1c>
    1aee:	f04f 0300 	mov.w	r3, #0
    1af2:	e01d      	b.n	1b30 <_fifo_get+0x58>
    1af4:	687b      	ldr	r3, [r7, #4]
    1af6:	685b      	ldr	r3, [r3, #4]
    1af8:	f103 0201 	add.w	r2, r3, #1
    1afc:	4b0f      	ldr	r3, [pc, #60]	; (1b3c <_fifo_get+0x64>)
    1afe:	ea02 0303 	and.w	r3, r2, r3
    1b02:	2b00      	cmp	r3, #0
    1b04:	da05      	bge.n	1b12 <_fifo_get+0x3a>
    1b06:	f103 33ff 	add.w	r3, r3, #4294967295
    1b0a:	f063 03ff 	orn	r3, r3, #255	; 0xff
    1b0e:	f103 0301 	add.w	r3, r3, #1
    1b12:	60fb      	str	r3, [r7, #12]
    1b14:	687b      	ldr	r3, [r7, #4]
    1b16:	689a      	ldr	r2, [r3, #8]
    1b18:	687b      	ldr	r3, [r7, #4]
    1b1a:	685b      	ldr	r3, [r3, #4]
    1b1c:	18d3      	adds	r3, r2, r3
    1b1e:	781b      	ldrb	r3, [r3, #0]
    1b20:	b2da      	uxtb	r2, r3
    1b22:	683b      	ldr	r3, [r7, #0]
    1b24:	701a      	strb	r2, [r3, #0]
    1b26:	687b      	ldr	r3, [r7, #4]
    1b28:	68fa      	ldr	r2, [r7, #12]
    1b2a:	605a      	str	r2, [r3, #4]
    1b2c:	f04f 0301 	mov.w	r3, #1
    1b30:	4618      	mov	r0, r3
    1b32:	f107 0714 	add.w	r7, r7, #20
    1b36:	46bd      	mov	sp, r7
    1b38:	bc80      	pop	{r7}
    1b3a:	4770      	bx	lr
    1b3c:	800000ff 	.word	0x800000ff

00001b40 <fifo_avail>:
    1b40:	b580      	push	{r7, lr}
    1b42:	b084      	sub	sp, #16
    1b44:	af00      	add	r7, sp, #0
    1b46:	6078      	str	r0, [r7, #4]
    1b48:	f04f 0018 	mov.w	r0, #24
    1b4c:	f7ff ff60 	bl	1a10 <NVIC_DisableIRQ>
    1b50:	6878      	ldr	r0, [r7, #4]
    1b52:	f000 f80b 	bl	1b6c <_fifo_avail>
    1b56:	60f8      	str	r0, [r7, #12]
    1b58:	f04f 0018 	mov.w	r0, #24
    1b5c:	f7ff ff3e 	bl	19dc <NVIC_EnableIRQ>
    1b60:	68fb      	ldr	r3, [r7, #12]
    1b62:	4618      	mov	r0, r3
    1b64:	f107 0710 	add.w	r7, r7, #16
    1b68:	46bd      	mov	sp, r7
    1b6a:	bd80      	pop	{r7, pc}

00001b6c <_fifo_avail>:
    1b6c:	b480      	push	{r7}
    1b6e:	b083      	sub	sp, #12
    1b70:	af00      	add	r7, sp, #0
    1b72:	6078      	str	r0, [r7, #4]
    1b74:	687b      	ldr	r3, [r7, #4]
    1b76:	681b      	ldr	r3, [r3, #0]
    1b78:	f503 7280 	add.w	r2, r3, #256	; 0x100
    1b7c:	687b      	ldr	r3, [r7, #4]
    1b7e:	685b      	ldr	r3, [r3, #4]
    1b80:	1ad2      	subs	r2, r2, r3
    1b82:	4b08      	ldr	r3, [pc, #32]	; (1ba4 <_fifo_avail+0x38>)
    1b84:	ea02 0303 	and.w	r3, r2, r3
    1b88:	2b00      	cmp	r3, #0
    1b8a:	da05      	bge.n	1b98 <_fifo_avail+0x2c>
    1b8c:	f103 33ff 	add.w	r3, r3, #4294967295
    1b90:	f063 03ff 	orn	r3, r3, #255	; 0xff
    1b94:	f103 0301 	add.w	r3, r3, #1
    1b98:	4618      	mov	r0, r3
    1b9a:	f107 070c 	add.w	r7, r7, #12
    1b9e:	46bd      	mov	sp, r7
    1ba0:	bc80      	pop	{r7}
    1ba2:	4770      	bx	lr
    1ba4:	800000ff 	.word	0x800000ff

00001ba8 <_fifo_free>:
    1ba8:	b580      	push	{r7, lr}
    1baa:	b082      	sub	sp, #8
    1bac:	af00      	add	r7, sp, #0
    1bae:	6078      	str	r0, [r7, #4]
    1bb0:	6878      	ldr	r0, [r7, #4]
    1bb2:	f7ff ffc5 	bl	1b40 <fifo_avail>
    1bb6:	4603      	mov	r3, r0
    1bb8:	f1c3 03ff 	rsb	r3, r3, #255	; 0xff
    1bbc:	4618      	mov	r0, r3
    1bbe:	f107 0708 	add.w	r7, r7, #8
    1bc2:	46bd      	mov	sp, r7
    1bc4:	bd80      	pop	{r7, pc}
    1bc6:	bf00      	nop

00001bc8 <InsertTmrList>:
    1bc8:	b590      	push	{r4, r7, lr}
    1bca:	b087      	sub	sp, #28
    1bcc:	af00      	add	r7, sp, #0
    1bce:	4603      	mov	r3, r0
    1bd0:	71fb      	strb	r3, [r7, #7]
    1bd2:	79fa      	ldrb	r2, [r7, #7]
    1bd4:	498b      	ldr	r1, [pc, #556]	; (1e04 <InsertTmrList+0x23c>)
    1bd6:	4613      	mov	r3, r2
    1bd8:	ea4f 0343 	mov.w	r3, r3, lsl #1
    1bdc:	189b      	adds	r3, r3, r2
    1bde:	ea4f 03c3 	mov.w	r3, r3, lsl #3
    1be2:	18cb      	adds	r3, r1, r3
    1be4:	f103 0304 	add.w	r3, r3, #4
    1be8:	681b      	ldr	r3, [r3, #0]
    1bea:	60fb      	str	r3, [r7, #12]
    1bec:	68fb      	ldr	r3, [r7, #12]
    1bee:	2b00      	cmp	r3, #0
    1bf0:	f000 8103 	beq.w	1dfa <InsertTmrList+0x232>
    1bf4:	4b84      	ldr	r3, [pc, #528]	; (1e08 <InsertTmrList+0x240>)
    1bf6:	781b      	ldrb	r3, [r3, #0]
    1bf8:	b2db      	uxtb	r3, r3
    1bfa:	f103 0301 	add.w	r3, r3, #1
    1bfe:	b2da      	uxtb	r2, r3
    1c00:	4b81      	ldr	r3, [pc, #516]	; (1e08 <InsertTmrList+0x240>)
    1c02:	701a      	strb	r2, [r3, #0]
    1c04:	4b81      	ldr	r3, [pc, #516]	; (1e0c <InsertTmrList+0x244>)
    1c06:	681b      	ldr	r3, [r3, #0]
    1c08:	2b00      	cmp	r3, #0
    1c0a:	d10c      	bne.n	1c26 <InsertTmrList+0x5e>
    1c0c:	79fa      	ldrb	r2, [r7, #7]
    1c0e:	4613      	mov	r3, r2
    1c10:	ea4f 0343 	mov.w	r3, r3, lsl #1
    1c14:	189b      	adds	r3, r3, r2
    1c16:	ea4f 03c3 	mov.w	r3, r3, lsl #3
    1c1a:	461a      	mov	r2, r3
    1c1c:	4b79      	ldr	r3, [pc, #484]	; (1e04 <InsertTmrList+0x23c>)
    1c1e:	18d2      	adds	r2, r2, r3
    1c20:	4b7a      	ldr	r3, [pc, #488]	; (1e0c <InsertTmrList+0x244>)
    1c22:	601a      	str	r2, [r3, #0]
    1c24:	e0e6      	b.n	1df4 <InsertTmrList+0x22c>
    1c26:	4b79      	ldr	r3, [pc, #484]	; (1e0c <InsertTmrList+0x244>)
    1c28:	681b      	ldr	r3, [r3, #0]
    1c2a:	617b      	str	r3, [r7, #20]
    1c2c:	68fb      	ldr	r3, [r7, #12]
    1c2e:	613b      	str	r3, [r7, #16]
    1c30:	e0dc      	b.n	1dec <InsertTmrList+0x224>
    1c32:	693a      	ldr	r2, [r7, #16]
    1c34:	697b      	ldr	r3, [r7, #20]
    1c36:	685b      	ldr	r3, [r3, #4]
    1c38:	1ad3      	subs	r3, r2, r3
    1c3a:	613b      	str	r3, [r7, #16]
    1c3c:	693b      	ldr	r3, [r7, #16]
    1c3e:	2b00      	cmp	r3, #0
    1c40:	f280 80a3 	bge.w	1d8a <InsertTmrList+0x1c2>
    1c44:	697b      	ldr	r3, [r7, #20]
    1c46:	695b      	ldr	r3, [r3, #20]
    1c48:	2b00      	cmp	r3, #0
    1c4a:	d034      	beq.n	1cb6 <InsertTmrList+0xee>
    1c4c:	697b      	ldr	r3, [r7, #20]
    1c4e:	6959      	ldr	r1, [r3, #20]
    1c50:	79fa      	ldrb	r2, [r7, #7]
    1c52:	4613      	mov	r3, r2
    1c54:	ea4f 0343 	mov.w	r3, r3, lsl #1
    1c58:	189b      	adds	r3, r3, r2
    1c5a:	ea4f 03c3 	mov.w	r3, r3, lsl #3
    1c5e:	461a      	mov	r2, r3
    1c60:	4b68      	ldr	r3, [pc, #416]	; (1e04 <InsertTmrList+0x23c>)
    1c62:	18d3      	adds	r3, r2, r3
    1c64:	610b      	str	r3, [r1, #16]
    1c66:	79fa      	ldrb	r2, [r7, #7]
    1c68:	697b      	ldr	r3, [r7, #20]
    1c6a:	6959      	ldr	r1, [r3, #20]
    1c6c:	4865      	ldr	r0, [pc, #404]	; (1e04 <InsertTmrList+0x23c>)
    1c6e:	4613      	mov	r3, r2
    1c70:	ea4f 0343 	mov.w	r3, r3, lsl #1
    1c74:	189b      	adds	r3, r3, r2
    1c76:	ea4f 03c3 	mov.w	r3, r3, lsl #3
    1c7a:	18c3      	adds	r3, r0, r3
    1c7c:	f103 0314 	add.w	r3, r3, #20
    1c80:	6019      	str	r1, [r3, #0]
    1c82:	79fa      	ldrb	r2, [r7, #7]
    1c84:	495f      	ldr	r1, [pc, #380]	; (1e04 <InsertTmrList+0x23c>)
    1c86:	4613      	mov	r3, r2
    1c88:	ea4f 0343 	mov.w	r3, r3, lsl #1
    1c8c:	189b      	adds	r3, r3, r2
    1c8e:	ea4f 03c3 	mov.w	r3, r3, lsl #3
    1c92:	18cb      	adds	r3, r1, r3
    1c94:	f103 0310 	add.w	r3, r3, #16
    1c98:	697a      	ldr	r2, [r7, #20]
    1c9a:	601a      	str	r2, [r3, #0]
    1c9c:	79fa      	ldrb	r2, [r7, #7]
    1c9e:	4613      	mov	r3, r2
    1ca0:	ea4f 0343 	mov.w	r3, r3, lsl #1
    1ca4:	189b      	adds	r3, r3, r2
    1ca6:	ea4f 03c3 	mov.w	r3, r3, lsl #3
    1caa:	461a      	mov	r2, r3
    1cac:	4b55      	ldr	r3, [pc, #340]	; (1e04 <InsertTmrList+0x23c>)
    1cae:	18d2      	adds	r2, r2, r3
    1cb0:	697b      	ldr	r3, [r7, #20]
    1cb2:	615a      	str	r2, [r3, #20]
    1cb4:	e026      	b.n	1d04 <InsertTmrList+0x13c>
    1cb6:	79fa      	ldrb	r2, [r7, #7]
    1cb8:	4b54      	ldr	r3, [pc, #336]	; (1e0c <InsertTmrList+0x244>)
    1cba:	6819      	ldr	r1, [r3, #0]
    1cbc:	4851      	ldr	r0, [pc, #324]	; (1e04 <InsertTmrList+0x23c>)
    1cbe:	4613      	mov	r3, r2
    1cc0:	ea4f 0343 	mov.w	r3, r3, lsl #1
    1cc4:	189b      	adds	r3, r3, r2
    1cc6:	ea4f 03c3 	mov.w	r3, r3, lsl #3
    1cca:	18c3      	adds	r3, r0, r3
    1ccc:	f103 0310 	add.w	r3, r3, #16
    1cd0:	6019      	str	r1, [r3, #0]
    1cd2:	4b4e      	ldr	r3, [pc, #312]	; (1e0c <InsertTmrList+0x244>)
    1cd4:	6819      	ldr	r1, [r3, #0]
    1cd6:	79fa      	ldrb	r2, [r7, #7]
    1cd8:	4613      	mov	r3, r2
    1cda:	ea4f 0343 	mov.w	r3, r3, lsl #1
    1cde:	189b      	adds	r3, r3, r2
    1ce0:	ea4f 03c3 	mov.w	r3, r3, lsl #3
    1ce4:	461a      	mov	r2, r3
    1ce6:	4b47      	ldr	r3, [pc, #284]	; (1e04 <InsertTmrList+0x23c>)
    1ce8:	18d3      	adds	r3, r2, r3
    1cea:	614b      	str	r3, [r1, #20]
    1cec:	79fa      	ldrb	r2, [r7, #7]
    1cee:	4613      	mov	r3, r2
    1cf0:	ea4f 0343 	mov.w	r3, r3, lsl #1
    1cf4:	189b      	adds	r3, r3, r2
    1cf6:	ea4f 03c3 	mov.w	r3, r3, lsl #3
    1cfa:	461a      	mov	r2, r3
    1cfc:	4b41      	ldr	r3, [pc, #260]	; (1e04 <InsertTmrList+0x23c>)
    1cfe:	18d2      	adds	r2, r2, r3
    1d00:	4b42      	ldr	r3, [pc, #264]	; (1e0c <InsertTmrList+0x244>)
    1d02:	601a      	str	r2, [r3, #0]
    1d04:	79fa      	ldrb	r2, [r7, #7]
    1d06:	79f9      	ldrb	r1, [r7, #7]
    1d08:	483e      	ldr	r0, [pc, #248]	; (1e04 <InsertTmrList+0x23c>)
    1d0a:	460b      	mov	r3, r1
    1d0c:	ea4f 0343 	mov.w	r3, r3, lsl #1
    1d10:	185b      	adds	r3, r3, r1
    1d12:	ea4f 03c3 	mov.w	r3, r3, lsl #3
    1d16:	18c3      	adds	r3, r0, r3
    1d18:	f103 0310 	add.w	r3, r3, #16
    1d1c:	681b      	ldr	r3, [r3, #0]
    1d1e:	6859      	ldr	r1, [r3, #4]
    1d20:	693b      	ldr	r3, [r7, #16]
    1d22:	18c9      	adds	r1, r1, r3
    1d24:	4837      	ldr	r0, [pc, #220]	; (1e04 <InsertTmrList+0x23c>)
    1d26:	4613      	mov	r3, r2
    1d28:	ea4f 0343 	mov.w	r3, r3, lsl #1
    1d2c:	189b      	adds	r3, r3, r2
    1d2e:	ea4f 03c3 	mov.w	r3, r3, lsl #3
    1d32:	18c3      	adds	r3, r0, r3
    1d34:	f103 0304 	add.w	r3, r3, #4
    1d38:	6019      	str	r1, [r3, #0]
    1d3a:	79fa      	ldrb	r2, [r7, #7]
    1d3c:	4931      	ldr	r1, [pc, #196]	; (1e04 <InsertTmrList+0x23c>)
    1d3e:	4613      	mov	r3, r2
    1d40:	ea4f 0343 	mov.w	r3, r3, lsl #1
    1d44:	189b      	adds	r3, r3, r2
    1d46:	ea4f 03c3 	mov.w	r3, r3, lsl #3
    1d4a:	18cb      	adds	r3, r1, r3
    1d4c:	f103 0310 	add.w	r3, r3, #16
    1d50:	6819      	ldr	r1, [r3, #0]
    1d52:	79fa      	ldrb	r2, [r7, #7]
    1d54:	482b      	ldr	r0, [pc, #172]	; (1e04 <InsertTmrList+0x23c>)
    1d56:	4613      	mov	r3, r2
    1d58:	ea4f 0343 	mov.w	r3, r3, lsl #1
    1d5c:	189b      	adds	r3, r3, r2
    1d5e:	ea4f 03c3 	mov.w	r3, r3, lsl #3
    1d62:	18c3      	adds	r3, r0, r3
    1d64:	f103 0310 	add.w	r3, r3, #16
    1d68:	681b      	ldr	r3, [r3, #0]
    1d6a:	6858      	ldr	r0, [r3, #4]
    1d6c:	79fa      	ldrb	r2, [r7, #7]
    1d6e:	4c25      	ldr	r4, [pc, #148]	; (1e04 <InsertTmrList+0x23c>)
    1d70:	4613      	mov	r3, r2
    1d72:	ea4f 0343 	mov.w	r3, r3, lsl #1
    1d76:	189b      	adds	r3, r3, r2
    1d78:	ea4f 03c3 	mov.w	r3, r3, lsl #3
    1d7c:	18e3      	adds	r3, r4, r3
    1d7e:	f103 0304 	add.w	r3, r3, #4
    1d82:	681b      	ldr	r3, [r3, #0]
    1d84:	1ac3      	subs	r3, r0, r3
    1d86:	604b      	str	r3, [r1, #4]
    1d88:	e034      	b.n	1df4 <InsertTmrList+0x22c>
    1d8a:	693b      	ldr	r3, [r7, #16]
    1d8c:	2b00      	cmp	r3, #0
    1d8e:	db2a      	blt.n	1de6 <InsertTmrList+0x21e>
    1d90:	697b      	ldr	r3, [r7, #20]
    1d92:	691b      	ldr	r3, [r3, #16]
    1d94:	2b00      	cmp	r3, #0
    1d96:	d126      	bne.n	1de6 <InsertTmrList+0x21e>
    1d98:	79fa      	ldrb	r2, [r7, #7]
    1d9a:	491a      	ldr	r1, [pc, #104]	; (1e04 <InsertTmrList+0x23c>)
    1d9c:	4613      	mov	r3, r2
    1d9e:	ea4f 0343 	mov.w	r3, r3, lsl #1
    1da2:	189b      	adds	r3, r3, r2
    1da4:	ea4f 03c3 	mov.w	r3, r3, lsl #3
    1da8:	18cb      	adds	r3, r1, r3
    1daa:	f103 0314 	add.w	r3, r3, #20
    1dae:	697a      	ldr	r2, [r7, #20]
    1db0:	601a      	str	r2, [r3, #0]
    1db2:	79fa      	ldrb	r2, [r7, #7]
    1db4:	4613      	mov	r3, r2
    1db6:	ea4f 0343 	mov.w	r3, r3, lsl #1
    1dba:	189b      	adds	r3, r3, r2
    1dbc:	ea4f 03c3 	mov.w	r3, r3, lsl #3
    1dc0:	461a      	mov	r2, r3
    1dc2:	4b10      	ldr	r3, [pc, #64]	; (1e04 <InsertTmrList+0x23c>)
    1dc4:	18d2      	adds	r2, r2, r3
    1dc6:	697b      	ldr	r3, [r7, #20]
    1dc8:	611a      	str	r2, [r3, #16]
    1dca:	79fa      	ldrb	r2, [r7, #7]
    1dcc:	6939      	ldr	r1, [r7, #16]
    1dce:	480d      	ldr	r0, [pc, #52]	; (1e04 <InsertTmrList+0x23c>)
    1dd0:	4613      	mov	r3, r2
    1dd2:	ea4f 0343 	mov.w	r3, r3, lsl #1
    1dd6:	189b      	adds	r3, r3, r2
    1dd8:	ea4f 03c3 	mov.w	r3, r3, lsl #3
    1ddc:	18c3      	adds	r3, r0, r3
    1dde:	f103 0304 	add.w	r3, r3, #4
    1de2:	6019      	str	r1, [r3, #0]
    1de4:	e006      	b.n	1df4 <InsertTmrList+0x22c>
    1de6:	697b      	ldr	r3, [r7, #20]
    1de8:	691b      	ldr	r3, [r3, #16]
    1dea:	617b      	str	r3, [r7, #20]
    1dec:	697b      	ldr	r3, [r7, #20]
    1dee:	2b00      	cmp	r3, #0
    1df0:	f47f af1f 	bne.w	1c32 <InsertTmrList+0x6a>
    1df4:	f7ff fd56 	bl	18a4 <OsSchedUnlock>
    1df8:	e000      	b.n	1dfc <InsertTmrList+0x234>
    1dfa:	bf00      	nop
    1dfc:	f107 071c 	add.w	r7, r7, #28
    1e00:	46bd      	mov	sp, r7
    1e02:	bd90      	pop	{r4, r7, pc}
    1e04:	20000984 	.word	0x20000984
    1e08:	20000982 	.word	0x20000982
    1e0c:	200009b4 	.word	0x200009b4

00001e10 <RemoveTmrList>:
    1e10:	b580      	push	{r7, lr}
    1e12:	b084      	sub	sp, #16
    1e14:	af00      	add	r7, sp, #0
    1e16:	4603      	mov	r3, r0
    1e18:	71fb      	strb	r3, [r7, #7]
    1e1a:	79fa      	ldrb	r2, [r7, #7]
    1e1c:	4613      	mov	r3, r2
    1e1e:	ea4f 0343 	mov.w	r3, r3, lsl #1
    1e22:	189b      	adds	r3, r3, r2
    1e24:	ea4f 03c3 	mov.w	r3, r3, lsl #3
    1e28:	461a      	mov	r2, r3
    1e2a:	4b31      	ldr	r3, [pc, #196]	; (1ef0 <RemoveTmrList+0xe0>)
    1e2c:	18d3      	adds	r3, r2, r3
    1e2e:	60fb      	str	r3, [r7, #12]
    1e30:	4b30      	ldr	r3, [pc, #192]	; (1ef4 <RemoveTmrList+0xe4>)
    1e32:	781b      	ldrb	r3, [r3, #0]
    1e34:	b2db      	uxtb	r3, r3
    1e36:	f103 0301 	add.w	r3, r3, #1
    1e3a:	b2da      	uxtb	r2, r3
    1e3c:	4b2d      	ldr	r3, [pc, #180]	; (1ef4 <RemoveTmrList+0xe4>)
    1e3e:	701a      	strb	r2, [r3, #0]
    1e40:	68fb      	ldr	r3, [r7, #12]
    1e42:	695b      	ldr	r3, [r3, #20]
    1e44:	2b00      	cmp	r3, #0
    1e46:	d108      	bne.n	1e5a <RemoveTmrList+0x4a>
    1e48:	68fb      	ldr	r3, [r7, #12]
    1e4a:	691b      	ldr	r3, [r3, #16]
    1e4c:	2b00      	cmp	r3, #0
    1e4e:	d104      	bne.n	1e5a <RemoveTmrList+0x4a>
    1e50:	4b29      	ldr	r3, [pc, #164]	; (1ef8 <RemoveTmrList+0xe8>)
    1e52:	f04f 0200 	mov.w	r2, #0
    1e56:	601a      	str	r2, [r3, #0]
    1e58:	e043      	b.n	1ee2 <RemoveTmrList+0xd2>
    1e5a:	68fb      	ldr	r3, [r7, #12]
    1e5c:	695b      	ldr	r3, [r3, #20]
    1e5e:	2b00      	cmp	r3, #0
    1e60:	d116      	bne.n	1e90 <RemoveTmrList+0x80>
    1e62:	68fb      	ldr	r3, [r7, #12]
    1e64:	691a      	ldr	r2, [r3, #16]
    1e66:	4b24      	ldr	r3, [pc, #144]	; (1ef8 <RemoveTmrList+0xe8>)
    1e68:	601a      	str	r2, [r3, #0]
    1e6a:	4b23      	ldr	r3, [pc, #140]	; (1ef8 <RemoveTmrList+0xe8>)
    1e6c:	681b      	ldr	r3, [r3, #0]
    1e6e:	f04f 0200 	mov.w	r2, #0
    1e72:	615a      	str	r2, [r3, #20]
    1e74:	68fb      	ldr	r3, [r7, #12]
    1e76:	691b      	ldr	r3, [r3, #16]
    1e78:	68fa      	ldr	r2, [r7, #12]
    1e7a:	6912      	ldr	r2, [r2, #16]
    1e7c:	6851      	ldr	r1, [r2, #4]
    1e7e:	68fa      	ldr	r2, [r7, #12]
    1e80:	6852      	ldr	r2, [r2, #4]
    1e82:	188a      	adds	r2, r1, r2
    1e84:	605a      	str	r2, [r3, #4]
    1e86:	68fb      	ldr	r3, [r7, #12]
    1e88:	f04f 0200 	mov.w	r2, #0
    1e8c:	611a      	str	r2, [r3, #16]
    1e8e:	e028      	b.n	1ee2 <RemoveTmrList+0xd2>
    1e90:	68fb      	ldr	r3, [r7, #12]
    1e92:	691b      	ldr	r3, [r3, #16]
    1e94:	2b00      	cmp	r3, #0
    1e96:	d109      	bne.n	1eac <RemoveTmrList+0x9c>
    1e98:	68fb      	ldr	r3, [r7, #12]
    1e9a:	695b      	ldr	r3, [r3, #20]
    1e9c:	f04f 0200 	mov.w	r2, #0
    1ea0:	611a      	str	r2, [r3, #16]
    1ea2:	68fb      	ldr	r3, [r7, #12]
    1ea4:	f04f 0200 	mov.w	r2, #0
    1ea8:	615a      	str	r2, [r3, #20]
    1eaa:	e01a      	b.n	1ee2 <RemoveTmrList+0xd2>
    1eac:	68fb      	ldr	r3, [r7, #12]
    1eae:	695b      	ldr	r3, [r3, #20]
    1eb0:	68fa      	ldr	r2, [r7, #12]
    1eb2:	6912      	ldr	r2, [r2, #16]
    1eb4:	611a      	str	r2, [r3, #16]
    1eb6:	68fb      	ldr	r3, [r7, #12]
    1eb8:	691b      	ldr	r3, [r3, #16]
    1eba:	68fa      	ldr	r2, [r7, #12]
    1ebc:	6952      	ldr	r2, [r2, #20]
    1ebe:	615a      	str	r2, [r3, #20]
    1ec0:	68fb      	ldr	r3, [r7, #12]
    1ec2:	691b      	ldr	r3, [r3, #16]
    1ec4:	68fa      	ldr	r2, [r7, #12]
    1ec6:	6912      	ldr	r2, [r2, #16]
    1ec8:	6851      	ldr	r1, [r2, #4]
    1eca:	68fa      	ldr	r2, [r7, #12]
    1ecc:	6852      	ldr	r2, [r2, #4]
    1ece:	188a      	adds	r2, r1, r2
    1ed0:	605a      	str	r2, [r3, #4]
    1ed2:	68fb      	ldr	r3, [r7, #12]
    1ed4:	f04f 0200 	mov.w	r2, #0
    1ed8:	611a      	str	r2, [r3, #16]
    1eda:	68fb      	ldr	r3, [r7, #12]
    1edc:	f04f 0200 	mov.w	r2, #0
    1ee0:	615a      	str	r2, [r3, #20]
    1ee2:	f7ff fcdf 	bl	18a4 <OsSchedUnlock>
    1ee6:	f107 0710 	add.w	r7, r7, #16
    1eea:	46bd      	mov	sp, r7
    1eec:	bd80      	pop	{r7, pc}
    1eee:	bf00      	nop
    1ef0:	20000984 	.word	0x20000984
    1ef4:	20000982 	.word	0x20000982
    1ef8:	200009b4 	.word	0x200009b4

00001efc <TmrDispose>:
    1efc:	b580      	push	{r7, lr}
    1efe:	b082      	sub	sp, #8
    1f00:	af00      	add	r7, sp, #0
    1f02:	4b1c      	ldr	r3, [pc, #112]	; (1f74 <TmrDispose+0x78>)
    1f04:	681b      	ldr	r3, [r3, #0]
    1f06:	607b      	str	r3, [r7, #4]
    1f08:	e028      	b.n	1f5c <TmrDispose+0x60>
    1f0a:	687b      	ldr	r3, [r7, #4]
    1f0c:	785b      	ldrb	r3, [r3, #1]
    1f0e:	2b00      	cmp	r3, #0
    1f10:	d10c      	bne.n	1f2c <TmrDispose+0x30>
    1f12:	687b      	ldr	r3, [r7, #4]
    1f14:	781b      	ldrb	r3, [r3, #0]
    1f16:	4618      	mov	r0, r3
    1f18:	f7ff ff7a 	bl	1e10 <RemoveTmrList>
    1f1c:	687b      	ldr	r3, [r7, #4]
    1f1e:	f04f 0201 	mov.w	r2, #1
    1f22:	709a      	strb	r2, [r3, #2]
    1f24:	687b      	ldr	r3, [r7, #4]
    1f26:	68db      	ldr	r3, [r3, #12]
    1f28:	4798      	blx	r3
    1f2a:	e014      	b.n	1f56 <TmrDispose+0x5a>
    1f2c:	687b      	ldr	r3, [r7, #4]
    1f2e:	785b      	ldrb	r3, [r3, #1]
    1f30:	2b01      	cmp	r3, #1
    1f32:	d110      	bne.n	1f56 <TmrDispose+0x5a>
    1f34:	687b      	ldr	r3, [r7, #4]
    1f36:	781b      	ldrb	r3, [r3, #0]
    1f38:	4618      	mov	r0, r3
    1f3a:	f7ff ff69 	bl	1e10 <RemoveTmrList>
    1f3e:	687b      	ldr	r3, [r7, #4]
    1f40:	689a      	ldr	r2, [r3, #8]
    1f42:	687b      	ldr	r3, [r7, #4]
    1f44:	605a      	str	r2, [r3, #4]
    1f46:	687b      	ldr	r3, [r7, #4]
    1f48:	781b      	ldrb	r3, [r3, #0]
    1f4a:	4618      	mov	r0, r3
    1f4c:	f7ff fe3c 	bl	1bc8 <InsertTmrList>
    1f50:	687b      	ldr	r3, [r7, #4]
    1f52:	68db      	ldr	r3, [r3, #12]
    1f54:	4798      	blx	r3
    1f56:	4b07      	ldr	r3, [pc, #28]	; (1f74 <TmrDispose+0x78>)
    1f58:	681b      	ldr	r3, [r3, #0]
    1f5a:	607b      	str	r3, [r7, #4]
    1f5c:	687b      	ldr	r3, [r7, #4]
    1f5e:	2b00      	cmp	r3, #0
    1f60:	d003      	beq.n	1f6a <TmrDispose+0x6e>
    1f62:	687b      	ldr	r3, [r7, #4]
    1f64:	685b      	ldr	r3, [r3, #4]
    1f66:	2b00      	cmp	r3, #0
    1f68:	d0cf      	beq.n	1f0a <TmrDispose+0xe>
    1f6a:	f107 0708 	add.w	r7, r7, #8
    1f6e:	46bd      	mov	sp, r7
    1f70:	bd80      	pop	{r7, pc}
    1f72:	bf00      	nop
    1f74:	200009b4 	.word	0x200009b4

00001f78 <isr_TmrDispose>:
    1f78:	b580      	push	{r7, lr}
    1f7a:	af00      	add	r7, sp, #0
    1f7c:	4b08      	ldr	r3, [pc, #32]	; (1fa0 <isr_TmrDispose+0x28>)
    1f7e:	781b      	ldrb	r3, [r3, #0]
    1f80:	b2db      	uxtb	r3, r3
    1f82:	2b01      	cmp	r3, #1
    1f84:	d908      	bls.n	1f98 <isr_TmrDispose+0x20>
    1f86:	4b07      	ldr	r3, [pc, #28]	; (1fa4 <isr_TmrDispose+0x2c>)
    1f88:	f04f 0201 	mov.w	r2, #1
    1f8c:	701a      	strb	r2, [r3, #0]
    1f8e:	4b06      	ldr	r3, [pc, #24]	; (1fa8 <isr_TmrDispose+0x30>)
    1f90:	f04f 0201 	mov.w	r2, #1
    1f94:	701a      	strb	r2, [r3, #0]
    1f96:	e001      	b.n	1f9c <isr_TmrDispose+0x24>
    1f98:	f7ff ffb0 	bl	1efc <TmrDispose>
    1f9c:	bd80      	pop	{r7, pc}
    1f9e:	bf00      	nop
    1fa0:	20000982 	.word	0x20000982
    1fa4:	200037cc 	.word	0x200037cc
    1fa8:	200037ce 	.word	0x200037ce

00001fac <SystemInit>:
    1fac:	b480      	push	{r7}
    1fae:	af00      	add	r7, sp, #0
    1fb0:	4b59      	ldr	r3, [pc, #356]	; (2118 <SystemInit+0x16c>)
    1fb2:	f04f 0220 	mov.w	r2, #32
    1fb6:	f8c3 21a0 	str.w	r2, [r3, #416]	; 0x1a0
    1fba:	bf00      	nop
    1fbc:	4b56      	ldr	r3, [pc, #344]	; (2118 <SystemInit+0x16c>)
    1fbe:	f8d3 31a0 	ldr.w	r3, [r3, #416]	; 0x1a0
    1fc2:	f003 0340 	and.w	r3, r3, #64	; 0x40
    1fc6:	2b00      	cmp	r3, #0
    1fc8:	d0f8      	beq.n	1fbc <SystemInit+0x10>
    1fca:	4b53      	ldr	r3, [pc, #332]	; (2118 <SystemInit+0x16c>)
    1fcc:	f04f 0203 	mov.w	r2, #3
    1fd0:	f8c3 2104 	str.w	r2, [r3, #260]	; 0x104
    1fd4:	4b50      	ldr	r3, [pc, #320]	; (2118 <SystemInit+0x16c>)
    1fd6:	f04f 0200 	mov.w	r2, #0
    1fda:	f8c3 21a8 	str.w	r2, [r3, #424]	; 0x1a8
    1fde:	4b4e      	ldr	r3, [pc, #312]	; (2118 <SystemInit+0x16c>)
    1fe0:	f04f 0200 	mov.w	r2, #0
    1fe4:	f8c3 21ac 	str.w	r2, [r3, #428]	; 0x1ac
    1fe8:	4b4b      	ldr	r3, [pc, #300]	; (2118 <SystemInit+0x16c>)
    1fea:	f04f 0201 	mov.w	r2, #1
    1fee:	f8c3 210c 	str.w	r2, [r3, #268]	; 0x10c
    1ff2:	4b49      	ldr	r3, [pc, #292]	; (2118 <SystemInit+0x16c>)
    1ff4:	4a49      	ldr	r2, [pc, #292]	; (211c <SystemInit+0x170>)
    1ff6:	f8c3 2084 	str.w	r2, [r3, #132]	; 0x84
    1ffa:	4b47      	ldr	r3, [pc, #284]	; (2118 <SystemInit+0x16c>)
    1ffc:	f04f 02aa 	mov.w	r2, #170	; 0xaa
    2000:	f8c3 208c 	str.w	r2, [r3, #140]	; 0x8c
    2004:	4b44      	ldr	r3, [pc, #272]	; (2118 <SystemInit+0x16c>)
    2006:	f04f 0255 	mov.w	r2, #85	; 0x55
    200a:	f8c3 208c 	str.w	r2, [r3, #140]	; 0x8c
    200e:	4b42      	ldr	r3, [pc, #264]	; (2118 <SystemInit+0x16c>)
    2010:	f04f 0201 	mov.w	r2, #1
    2014:	f8c3 2080 	str.w	r2, [r3, #128]	; 0x80
    2018:	4b3f      	ldr	r3, [pc, #252]	; (2118 <SystemInit+0x16c>)
    201a:	f04f 02aa 	mov.w	r2, #170	; 0xaa
    201e:	f8c3 208c 	str.w	r2, [r3, #140]	; 0x8c
    2022:	4b3d      	ldr	r3, [pc, #244]	; (2118 <SystemInit+0x16c>)
    2024:	f04f 0255 	mov.w	r2, #85	; 0x55
    2028:	f8c3 208c 	str.w	r2, [r3, #140]	; 0x8c
    202c:	bf00      	nop
    202e:	4b3a      	ldr	r3, [pc, #232]	; (2118 <SystemInit+0x16c>)
    2030:	f8d3 3088 	ldr.w	r3, [r3, #136]	; 0x88
    2034:	f003 6380 	and.w	r3, r3, #67108864	; 0x4000000
    2038:	2b00      	cmp	r3, #0
    203a:	d0f8      	beq.n	202e <SystemInit+0x82>
    203c:	4b36      	ldr	r3, [pc, #216]	; (2118 <SystemInit+0x16c>)
    203e:	f04f 0203 	mov.w	r2, #3
    2042:	f8c3 2080 	str.w	r2, [r3, #128]	; 0x80
    2046:	4b34      	ldr	r3, [pc, #208]	; (2118 <SystemInit+0x16c>)
    2048:	f04f 02aa 	mov.w	r2, #170	; 0xaa
    204c:	f8c3 208c 	str.w	r2, [r3, #140]	; 0x8c
    2050:	4b31      	ldr	r3, [pc, #196]	; (2118 <SystemInit+0x16c>)
    2052:	f04f 0255 	mov.w	r2, #85	; 0x55
    2056:	f8c3 208c 	str.w	r2, [r3, #140]	; 0x8c
    205a:	bf00      	nop
    205c:	4b2e      	ldr	r3, [pc, #184]	; (2118 <SystemInit+0x16c>)
    205e:	f8d3 3088 	ldr.w	r3, [r3, #136]	; 0x88
    2062:	f003 7340 	and.w	r3, r3, #50331648	; 0x3000000
    2066:	2b00      	cmp	r3, #0
    2068:	d0f8      	beq.n	205c <SystemInit+0xb0>
    206a:	4b2b      	ldr	r3, [pc, #172]	; (2118 <SystemInit+0x16c>)
    206c:	f04f 0223 	mov.w	r2, #35	; 0x23
    2070:	f8c3 20a4 	str.w	r2, [r3, #164]	; 0xa4
    2074:	4b28      	ldr	r3, [pc, #160]	; (2118 <SystemInit+0x16c>)
    2076:	f04f 02aa 	mov.w	r2, #170	; 0xaa
    207a:	f8c3 208c 	str.w	r2, [r3, #140]	; 0x8c
    207e:	4b26      	ldr	r3, [pc, #152]	; (2118 <SystemInit+0x16c>)
    2080:	f04f 02aa 	mov.w	r2, #170	; 0xaa
    2084:	f8c3 20ac 	str.w	r2, [r3, #172]	; 0xac
    2088:	4b23      	ldr	r3, [pc, #140]	; (2118 <SystemInit+0x16c>)
    208a:	f04f 0255 	mov.w	r2, #85	; 0x55
    208e:	f8c3 20ac 	str.w	r2, [r3, #172]	; 0xac
    2092:	4b21      	ldr	r3, [pc, #132]	; (2118 <SystemInit+0x16c>)
    2094:	f04f 0201 	mov.w	r2, #1
    2098:	f8c3 20a0 	str.w	r2, [r3, #160]	; 0xa0
    209c:	4b1e      	ldr	r3, [pc, #120]	; (2118 <SystemInit+0x16c>)
    209e:	f04f 02aa 	mov.w	r2, #170	; 0xaa
    20a2:	f8c3 20ac 	str.w	r2, [r3, #172]	; 0xac
    20a6:	4b1c      	ldr	r3, [pc, #112]	; (2118 <SystemInit+0x16c>)
    20a8:	f04f 0255 	mov.w	r2, #85	; 0x55
    20ac:	f8c3 20ac 	str.w	r2, [r3, #172]	; 0xac
    20b0:	bf00      	nop
    20b2:	4b19      	ldr	r3, [pc, #100]	; (2118 <SystemInit+0x16c>)
    20b4:	f8d3 30a8 	ldr.w	r3, [r3, #168]	; 0xa8
    20b8:	f403 6380 	and.w	r3, r3, #1024	; 0x400
    20bc:	2b00      	cmp	r3, #0
    20be:	d0f8      	beq.n	20b2 <SystemInit+0x106>
    20c0:	4b15      	ldr	r3, [pc, #84]	; (2118 <SystemInit+0x16c>)
    20c2:	f04f 0203 	mov.w	r2, #3
    20c6:	f8c3 20a0 	str.w	r2, [r3, #160]	; 0xa0
    20ca:	4b13      	ldr	r3, [pc, #76]	; (2118 <SystemInit+0x16c>)
    20cc:	f04f 02aa 	mov.w	r2, #170	; 0xaa
    20d0:	f8c3 20ac 	str.w	r2, [r3, #172]	; 0xac
    20d4:	4b10      	ldr	r3, [pc, #64]	; (2118 <SystemInit+0x16c>)
    20d6:	f04f 0255 	mov.w	r2, #85	; 0x55
    20da:	f8c3 20ac 	str.w	r2, [r3, #172]	; 0xac
    20de:	bf00      	nop
    20e0:	4b0d      	ldr	r3, [pc, #52]	; (2118 <SystemInit+0x16c>)
    20e2:	f8d3 30a8 	ldr.w	r3, [r3, #168]	; 0xa8
    20e6:	f403 7340 	and.w	r3, r3, #768	; 0x300
    20ea:	2b00      	cmp	r3, #0
    20ec:	d0f8      	beq.n	20e0 <SystemInit+0x134>
    20ee:	4b0a      	ldr	r3, [pc, #40]	; (2118 <SystemInit+0x16c>)
    20f0:	4a0b      	ldr	r2, [pc, #44]	; (2120 <SystemInit+0x174>)
    20f2:	f8c3 20c4 	str.w	r2, [r3, #196]	; 0xc4
    20f6:	4b08      	ldr	r3, [pc, #32]	; (2118 <SystemInit+0x16c>)
    20f8:	f04f 0200 	mov.w	r2, #0
    20fc:	f8c3 21c8 	str.w	r2, [r3, #456]	; 0x1c8
    2100:	4b05      	ldr	r3, [pc, #20]	; (2118 <SystemInit+0x16c>)
    2102:	4a05      	ldr	r2, [pc, #20]	; (2118 <SystemInit+0x16c>)
    2104:	6812      	ldr	r2, [r2, #0]
    2106:	f422 4270 	bic.w	r2, r2, #61440	; 0xf000
    210a:	f442 4280 	orr.w	r2, r2, #16384	; 0x4000
    210e:	601a      	str	r2, [r3, #0]
    2110:	46bd      	mov	sp, r7
    2112:	bc80      	pop	{r7}
    2114:	4770      	bx	lr
    2116:	bf00      	nop
    2118:	400fc000 	.word	0x400fc000
    211c:	00050063 	.word	0x00050063
    2120:	042887de 	.word	0x042887de

00002124 <memp_sanity>:
    2124:	b480      	push	{r7}
    2126:	b085      	sub	sp, #20
    2128:	af00      	add	r7, sp, #0
    212a:	f04f 0300 	mov.w	r3, #0
    212e:	81fb      	strh	r3, [r7, #14]
    2130:	e02f      	b.n	2192 <memp_sanity+0x6e>
    2132:	f9b7 200e 	ldrsh.w	r2, [r7, #14]
    2136:	4b1d      	ldr	r3, [pc, #116]	; (21ac <memp_sanity+0x88>)
    2138:	f853 3022 	ldr.w	r3, [r3, r2, lsl #2]
    213c:	60bb      	str	r3, [r7, #8]
    213e:	e021      	b.n	2184 <memp_sanity+0x60>
    2140:	f04f 0301 	mov.w	r3, #1
    2144:	81bb      	strh	r3, [r7, #12]
    2146:	f9b7 200e 	ldrsh.w	r2, [r7, #14]
    214a:	4b18      	ldr	r3, [pc, #96]	; (21ac <memp_sanity+0x88>)
    214c:	f853 3022 	ldr.w	r3, [r3, r2, lsl #2]
    2150:	607b      	str	r3, [r7, #4]
    2152:	e011      	b.n	2178 <memp_sanity+0x54>
    2154:	687a      	ldr	r2, [r7, #4]
    2156:	68bb      	ldr	r3, [r7, #8]
    2158:	429a      	cmp	r2, r3
    215a:	d10a      	bne.n	2172 <memp_sanity+0x4e>
    215c:	89bb      	ldrh	r3, [r7, #12]
    215e:	f103 33ff 	add.w	r3, r3, #4294967295
    2162:	81bb      	strh	r3, [r7, #12]
    2164:	f9b7 300c 	ldrsh.w	r3, [r7, #12]
    2168:	2b00      	cmp	r3, #0
    216a:	da02      	bge.n	2172 <memp_sanity+0x4e>
    216c:	f04f 0300 	mov.w	r3, #0
    2170:	e015      	b.n	219e <memp_sanity+0x7a>
    2172:	687b      	ldr	r3, [r7, #4]
    2174:	681b      	ldr	r3, [r3, #0]
    2176:	607b      	str	r3, [r7, #4]
    2178:	687b      	ldr	r3, [r7, #4]
    217a:	2b00      	cmp	r3, #0
    217c:	d1ea      	bne.n	2154 <memp_sanity+0x30>
    217e:	68bb      	ldr	r3, [r7, #8]
    2180:	681b      	ldr	r3, [r3, #0]
    2182:	60bb      	str	r3, [r7, #8]
    2184:	68bb      	ldr	r3, [r7, #8]
    2186:	2b00      	cmp	r3, #0
    2188:	d1da      	bne.n	2140 <memp_sanity+0x1c>
    218a:	89fb      	ldrh	r3, [r7, #14]
    218c:	f103 0301 	add.w	r3, r3, #1
    2190:	81fb      	strh	r3, [r7, #14]
    2192:	f9b7 300e 	ldrsh.w	r3, [r7, #14]
    2196:	2b0c      	cmp	r3, #12
    2198:	ddcb      	ble.n	2132 <memp_sanity+0xe>
    219a:	f04f 0301 	mov.w	r3, #1
    219e:	4618      	mov	r0, r3
    21a0:	f107 0714 	add.w	r7, r7, #20
    21a4:	46bd      	mov	sp, r7
    21a6:	bc80      	pop	{r7}
    21a8:	4770      	bx	lr
    21aa:	bf00      	nop
    21ac:	200009bc 	.word	0x200009bc

000021b0 <memp_malloc>:
    21b0:	b580      	push	{r7, lr}
    21b2:	b084      	sub	sp, #16
    21b4:	af00      	add	r7, sp, #0
    21b6:	4603      	mov	r3, r0
    21b8:	71fb      	strb	r3, [r7, #7]
    21ba:	79fb      	ldrb	r3, [r7, #7]
    21bc:	2b0c      	cmp	r3, #12
    21be:	d902      	bls.n	21c6 <memp_malloc+0x16>
    21c0:	f04f 0300 	mov.w	r3, #0
    21c4:	e088      	b.n	22d8 <memp_malloc+0x128>
    21c6:	f003 fb87 	bl	58d8 <sys_arch_protect>
    21ca:	60b8      	str	r0, [r7, #8]
    21cc:	79fa      	ldrb	r2, [r7, #7]
    21ce:	4b45      	ldr	r3, [pc, #276]	; (22e4 <memp_malloc+0x134>)
    21d0:	f853 3022 	ldr.w	r3, [r3, r2, lsl #2]
    21d4:	60fb      	str	r3, [r7, #12]
    21d6:	68fb      	ldr	r3, [r7, #12]
    21d8:	2b00      	cmp	r3, #0
    21da:	d054      	beq.n	2286 <memp_malloc+0xd6>
    21dc:	79fa      	ldrb	r2, [r7, #7]
    21de:	68fb      	ldr	r3, [r7, #12]
    21e0:	6819      	ldr	r1, [r3, #0]
    21e2:	4b40      	ldr	r3, [pc, #256]	; (22e4 <memp_malloc+0x134>)
    21e4:	f843 1022 	str.w	r1, [r3, r2, lsl #2]
    21e8:	79fa      	ldrb	r2, [r7, #7]
    21ea:	493f      	ldr	r1, [pc, #252]	; (22e8 <memp_malloc+0x138>)
    21ec:	4613      	mov	r3, r2
    21ee:	ea4f 0383 	mov.w	r3, r3, lsl #2
    21f2:	189b      	adds	r3, r3, r2
    21f4:	ea4f 0343 	mov.w	r3, r3, lsl #1
    21f8:	18cb      	adds	r3, r1, r3
    21fa:	f103 039c 	add.w	r3, r3, #156	; 0x9c
    21fe:	881b      	ldrh	r3, [r3, #0]
    2200:	f103 0301 	add.w	r3, r3, #1
    2204:	b299      	uxth	r1, r3
    2206:	4838      	ldr	r0, [pc, #224]	; (22e8 <memp_malloc+0x138>)
    2208:	4613      	mov	r3, r2
    220a:	ea4f 0383 	mov.w	r3, r3, lsl #2
    220e:	189b      	adds	r3, r3, r2
    2210:	ea4f 0343 	mov.w	r3, r3, lsl #1
    2214:	18c3      	adds	r3, r0, r3
    2216:	f103 039c 	add.w	r3, r3, #156	; 0x9c
    221a:	460a      	mov	r2, r1
    221c:	801a      	strh	r2, [r3, #0]
    221e:	79fa      	ldrb	r2, [r7, #7]
    2220:	4931      	ldr	r1, [pc, #196]	; (22e8 <memp_malloc+0x138>)
    2222:	4613      	mov	r3, r2
    2224:	ea4f 0383 	mov.w	r3, r3, lsl #2
    2228:	189b      	adds	r3, r3, r2
    222a:	ea4f 0343 	mov.w	r3, r3, lsl #1
    222e:	18cb      	adds	r3, r1, r3
    2230:	f103 039e 	add.w	r3, r3, #158	; 0x9e
    2234:	8819      	ldrh	r1, [r3, #0]
    2236:	79fa      	ldrb	r2, [r7, #7]
    2238:	482b      	ldr	r0, [pc, #172]	; (22e8 <memp_malloc+0x138>)
    223a:	4613      	mov	r3, r2
    223c:	ea4f 0383 	mov.w	r3, r3, lsl #2
    2240:	189b      	adds	r3, r3, r2
    2242:	ea4f 0343 	mov.w	r3, r3, lsl #1
    2246:	18c3      	adds	r3, r0, r3
    2248:	f103 039c 	add.w	r3, r3, #156	; 0x9c
    224c:	881b      	ldrh	r3, [r3, #0]
    224e:	4299      	cmp	r1, r3
    2250:	d23d      	bcs.n	22ce <memp_malloc+0x11e>
    2252:	79fa      	ldrb	r2, [r7, #7]
    2254:	79f9      	ldrb	r1, [r7, #7]
    2256:	4824      	ldr	r0, [pc, #144]	; (22e8 <memp_malloc+0x138>)
    2258:	460b      	mov	r3, r1
    225a:	ea4f 0383 	mov.w	r3, r3, lsl #2
    225e:	185b      	adds	r3, r3, r1
    2260:	ea4f 0343 	mov.w	r3, r3, lsl #1
    2264:	18c3      	adds	r3, r0, r3
    2266:	f103 039c 	add.w	r3, r3, #156	; 0x9c
    226a:	8819      	ldrh	r1, [r3, #0]
    226c:	481e      	ldr	r0, [pc, #120]	; (22e8 <memp_malloc+0x138>)
    226e:	4613      	mov	r3, r2
    2270:	ea4f 0383 	mov.w	r3, r3, lsl #2
    2274:	189b      	adds	r3, r3, r2
    2276:	ea4f 0343 	mov.w	r3, r3, lsl #1
    227a:	18c3      	adds	r3, r0, r3
    227c:	f103 039e 	add.w	r3, r3, #158	; 0x9e
    2280:	460a      	mov	r2, r1
    2282:	801a      	strh	r2, [r3, #0]
    2284:	e024      	b.n	22d0 <memp_malloc+0x120>
    2286:	79fa      	ldrb	r2, [r7, #7]
    2288:	4b18      	ldr	r3, [pc, #96]	; (22ec <memp_malloc+0x13c>)
    228a:	f853 3022 	ldr.w	r3, [r3, r2, lsl #2]
    228e:	4818      	ldr	r0, [pc, #96]	; (22f0 <memp_malloc+0x140>)
    2290:	4619      	mov	r1, r3
    2292:	f003 fb33 	bl	58fc <DebugPrintf>
    2296:	79fa      	ldrb	r2, [r7, #7]
    2298:	4913      	ldr	r1, [pc, #76]	; (22e8 <memp_malloc+0x138>)
    229a:	4613      	mov	r3, r2
    229c:	ea4f 0383 	mov.w	r3, r3, lsl #2
    22a0:	189b      	adds	r3, r3, r2
    22a2:	ea4f 0343 	mov.w	r3, r3, lsl #1
    22a6:	18cb      	adds	r3, r1, r3
    22a8:	f103 03a0 	add.w	r3, r3, #160	; 0xa0
    22ac:	881b      	ldrh	r3, [r3, #0]
    22ae:	f103 0301 	add.w	r3, r3, #1
    22b2:	b299      	uxth	r1, r3
    22b4:	480c      	ldr	r0, [pc, #48]	; (22e8 <memp_malloc+0x138>)
    22b6:	4613      	mov	r3, r2
    22b8:	ea4f 0383 	mov.w	r3, r3, lsl #2
    22bc:	189b      	adds	r3, r3, r2
    22be:	ea4f 0343 	mov.w	r3, r3, lsl #1
    22c2:	18c3      	adds	r3, r0, r3
    22c4:	f103 03a0 	add.w	r3, r3, #160	; 0xa0
    22c8:	460a      	mov	r2, r1
    22ca:	801a      	strh	r2, [r3, #0]
    22cc:	e000      	b.n	22d0 <memp_malloc+0x120>
    22ce:	bf00      	nop
    22d0:	68b8      	ldr	r0, [r7, #8]
    22d2:	f003 fb09 	bl	58e8 <sys_arch_unprotect>
    22d6:	68fb      	ldr	r3, [r7, #12]
    22d8:	4618      	mov	r0, r3
    22da:	f107 0710 	add.w	r7, r7, #16
    22de:	46bd      	mov	sp, r7
    22e0:	bd80      	pop	{r7, pc}
    22e2:	bf00      	nop
    22e4:	200009bc 	.word	0x200009bc
    22e8:	20004128 	.word	0x20004128
    22ec:	20000034 	.word	0x20000034
    22f0:	0000989c 	.word	0x0000989c

000022f4 <memp_free>:
    22f4:	b580      	push	{r7, lr}
    22f6:	b084      	sub	sp, #16
    22f8:	af00      	add	r7, sp, #0
    22fa:	4603      	mov	r3, r0
    22fc:	6039      	str	r1, [r7, #0]
    22fe:	71fb      	strb	r3, [r7, #7]
    2300:	683b      	ldr	r3, [r7, #0]
    2302:	2b00      	cmp	r3, #0
    2304:	d030      	beq.n	2368 <memp_free+0x74>
    2306:	683b      	ldr	r3, [r7, #0]
    2308:	60fb      	str	r3, [r7, #12]
    230a:	f003 fae5 	bl	58d8 <sys_arch_protect>
    230e:	60b8      	str	r0, [r7, #8]
    2310:	79fa      	ldrb	r2, [r7, #7]
    2312:	4918      	ldr	r1, [pc, #96]	; (2374 <memp_free+0x80>)
    2314:	4613      	mov	r3, r2
    2316:	ea4f 0383 	mov.w	r3, r3, lsl #2
    231a:	189b      	adds	r3, r3, r2
    231c:	ea4f 0343 	mov.w	r3, r3, lsl #1
    2320:	18cb      	adds	r3, r1, r3
    2322:	f103 039c 	add.w	r3, r3, #156	; 0x9c
    2326:	881b      	ldrh	r3, [r3, #0]
    2328:	f103 33ff 	add.w	r3, r3, #4294967295
    232c:	b299      	uxth	r1, r3
    232e:	4811      	ldr	r0, [pc, #68]	; (2374 <memp_free+0x80>)
    2330:	4613      	mov	r3, r2
    2332:	ea4f 0383 	mov.w	r3, r3, lsl #2
    2336:	189b      	adds	r3, r3, r2
    2338:	ea4f 0343 	mov.w	r3, r3, lsl #1
    233c:	18c3      	adds	r3, r0, r3
    233e:	f103 039c 	add.w	r3, r3, #156	; 0x9c
    2342:	460a      	mov	r2, r1
    2344:	801a      	strh	r2, [r3, #0]
    2346:	79fa      	ldrb	r2, [r7, #7]
    2348:	4b0b      	ldr	r3, [pc, #44]	; (2378 <memp_free+0x84>)
    234a:	f853 2022 	ldr.w	r2, [r3, r2, lsl #2]
    234e:	68fb      	ldr	r3, [r7, #12]
    2350:	601a      	str	r2, [r3, #0]
    2352:	79fa      	ldrb	r2, [r7, #7]
    2354:	4b08      	ldr	r3, [pc, #32]	; (2378 <memp_free+0x84>)
    2356:	68f9      	ldr	r1, [r7, #12]
    2358:	f843 1022 	str.w	r1, [r3, r2, lsl #2]
    235c:	f7ff fee2 	bl	2124 <memp_sanity>
    2360:	68b8      	ldr	r0, [r7, #8]
    2362:	f003 fac1 	bl	58e8 <sys_arch_unprotect>
    2366:	e000      	b.n	236a <memp_free+0x76>
    2368:	bf00      	nop
    236a:	f107 0710 	add.w	r7, r7, #16
    236e:	46bd      	mov	sp, r7
    2370:	bd80      	pop	{r7, pc}
    2372:	bf00      	nop
    2374:	20004128 	.word	0x20004128
    2378:	200009bc 	.word	0x200009bc

0000237c <_HandleRequest>:
    237c:	b580      	push	{r7, lr}
    237e:	b086      	sub	sp, #24
    2380:	af00      	add	r7, sp, #0
    2382:	60f8      	str	r0, [r7, #12]
    2384:	60b9      	str	r1, [r7, #8]
    2386:	607a      	str	r2, [r7, #4]
    2388:	68fb      	ldr	r3, [r7, #12]
    238a:	781b      	ldrb	r3, [r3, #0]
    238c:	ea4f 1353 	mov.w	r3, r3, lsr #5
    2390:	b2db      	uxtb	r3, r3
    2392:	f003 0303 	and.w	r3, r3, #3
    2396:	617b      	str	r3, [r7, #20]
    2398:	4b0a      	ldr	r3, [pc, #40]	; (23c4 <_HandleRequest+0x48>)
    239a:	697a      	ldr	r2, [r7, #20]
    239c:	f853 3022 	ldr.w	r3, [r3, r2, lsl #2]
    23a0:	613b      	str	r3, [r7, #16]
    23a2:	693b      	ldr	r3, [r7, #16]
    23a4:	2b00      	cmp	r3, #0
    23a6:	d102      	bne.n	23ae <_HandleRequest+0x32>
    23a8:	f04f 0300 	mov.w	r3, #0
    23ac:	e005      	b.n	23ba <_HandleRequest+0x3e>
    23ae:	693b      	ldr	r3, [r7, #16]
    23b0:	68f8      	ldr	r0, [r7, #12]
    23b2:	68b9      	ldr	r1, [r7, #8]
    23b4:	687a      	ldr	r2, [r7, #4]
    23b6:	4798      	blx	r3
    23b8:	4603      	mov	r3, r0
    23ba:	4618      	mov	r0, r3
    23bc:	f107 0718 	add.w	r7, r7, #24
    23c0:	46bd      	mov	sp, r7
    23c2:	bd80      	pop	{r7, pc}
    23c4:	200035e8 	.word	0x200035e8

000023c8 <StallControlPipe>:
    23c8:	b580      	push	{r7, lr}
    23ca:	b084      	sub	sp, #16
    23cc:	af00      	add	r7, sp, #0
    23ce:	4603      	mov	r3, r0
    23d0:	71fb      	strb	r3, [r7, #7]
    23d2:	f04f 0080 	mov.w	r0, #128	; 0x80
    23d6:	f04f 0101 	mov.w	r1, #1
    23da:	f004 fa3b 	bl	6854 <USBHwEPStall>
    23de:	4b08      	ldr	r3, [pc, #32]	; (2400 <StallControlPipe+0x38>)
    23e0:	60bb      	str	r3, [r7, #8]
    23e2:	f04f 0300 	mov.w	r3, #0
    23e6:	60fb      	str	r3, [r7, #12]
    23e8:	e003      	b.n	23f2 <StallControlPipe+0x2a>
    23ea:	68fb      	ldr	r3, [r7, #12]
    23ec:	f103 0301 	add.w	r3, r3, #1
    23f0:	60fb      	str	r3, [r7, #12]
    23f2:	68fb      	ldr	r3, [r7, #12]
    23f4:	2b07      	cmp	r3, #7
    23f6:	ddf8      	ble.n	23ea <StallControlPipe+0x22>
    23f8:	f107 0710 	add.w	r7, r7, #16
    23fc:	46bd      	mov	sp, r7
    23fe:	bd80      	pop	{r7, pc}
    2400:	200035d4 	.word	0x200035d4

00002404 <DataIn>:
    2404:	b580      	push	{r7, lr}
    2406:	b082      	sub	sp, #8
    2408:	af00      	add	r7, sp, #0
    240a:	4b0f      	ldr	r3, [pc, #60]	; (2448 <DataIn+0x44>)
    240c:	681b      	ldr	r3, [r3, #0]
    240e:	2b40      	cmp	r3, #64	; 0x40
    2410:	bfa8      	it	ge
    2412:	2340      	movge	r3, #64	; 0x40
    2414:	607b      	str	r3, [r7, #4]
    2416:	4b0d      	ldr	r3, [pc, #52]	; (244c <DataIn+0x48>)
    2418:	681b      	ldr	r3, [r3, #0]
    241a:	f04f 0080 	mov.w	r0, #128	; 0x80
    241e:	4619      	mov	r1, r3
    2420:	687a      	ldr	r2, [r7, #4]
    2422:	f004 fa3d 	bl	68a0 <USBHwEPWrite>
    2426:	4b09      	ldr	r3, [pc, #36]	; (244c <DataIn+0x48>)
    2428:	681a      	ldr	r2, [r3, #0]
    242a:	687b      	ldr	r3, [r7, #4]
    242c:	18d2      	adds	r2, r2, r3
    242e:	4b07      	ldr	r3, [pc, #28]	; (244c <DataIn+0x48>)
    2430:	601a      	str	r2, [r3, #0]
    2432:	4b05      	ldr	r3, [pc, #20]	; (2448 <DataIn+0x44>)
    2434:	681a      	ldr	r2, [r3, #0]
    2436:	687b      	ldr	r3, [r7, #4]
    2438:	1ad2      	subs	r2, r2, r3
    243a:	4b03      	ldr	r3, [pc, #12]	; (2448 <DataIn+0x44>)
    243c:	601a      	str	r2, [r3, #0]
    243e:	f107 0708 	add.w	r7, r7, #8
    2442:	46bd      	mov	sp, r7
    2444:	bd80      	pop	{r7, pc}
    2446:	bf00      	nop
    2448:	200035e0 	.word	0x200035e0
    244c:	200035dc 	.word	0x200035dc

00002450 <USBHandleControlTransfer>:
    2450:	b580      	push	{r7, lr}
    2452:	b084      	sub	sp, #16
    2454:	af00      	add	r7, sp, #0
    2456:	4602      	mov	r2, r0
    2458:	460b      	mov	r3, r1
    245a:	71fa      	strb	r2, [r7, #7]
    245c:	71bb      	strb	r3, [r7, #6]
    245e:	79fb      	ldrb	r3, [r7, #7]
    2460:	2b00      	cmp	r3, #0
    2462:	f040 809b 	bne.w	259c <USBHandleControlTransfer+0x14c>
    2466:	79bb      	ldrb	r3, [r7, #6]
    2468:	f003 0304 	and.w	r3, r3, #4
    246c:	2b00      	cmp	r3, #0
    246e:	d046      	beq.n	24fe <USBHandleControlTransfer+0xae>
    2470:	f04f 0000 	mov.w	r0, #0
    2474:	494e      	ldr	r1, [pc, #312]	; (25b0 <USBHandleControlTransfer+0x160>)
    2476:	f04f 0208 	mov.w	r2, #8
    247a:	f004 fa6b 	bl	6954 <USBHwEPRead>
    247e:	4b4c      	ldr	r3, [pc, #304]	; (25b0 <USBHandleControlTransfer+0x160>)
    2480:	781b      	ldrb	r3, [r3, #0]
    2482:	ea4f 1353 	mov.w	r3, r3, lsr #5
    2486:	b2db      	uxtb	r3, r3
    2488:	f003 0303 	and.w	r3, r3, #3
    248c:	60fb      	str	r3, [r7, #12]
    248e:	4b49      	ldr	r3, [pc, #292]	; (25b4 <USBHandleControlTransfer+0x164>)
    2490:	68fa      	ldr	r2, [r7, #12]
    2492:	f853 2022 	ldr.w	r2, [r3, r2, lsl #2]
    2496:	4b48      	ldr	r3, [pc, #288]	; (25b8 <USBHandleControlTransfer+0x168>)
    2498:	601a      	str	r2, [r3, #0]
    249a:	4b45      	ldr	r3, [pc, #276]	; (25b0 <USBHandleControlTransfer+0x160>)
    249c:	88db      	ldrh	r3, [r3, #6]
    249e:	461a      	mov	r2, r3
    24a0:	4b46      	ldr	r3, [pc, #280]	; (25bc <USBHandleControlTransfer+0x16c>)
    24a2:	601a      	str	r2, [r3, #0]
    24a4:	4b42      	ldr	r3, [pc, #264]	; (25b0 <USBHandleControlTransfer+0x160>)
    24a6:	88db      	ldrh	r3, [r3, #6]
    24a8:	461a      	mov	r2, r3
    24aa:	4b45      	ldr	r3, [pc, #276]	; (25c0 <USBHandleControlTransfer+0x170>)
    24ac:	601a      	str	r2, [r3, #0]
    24ae:	4b40      	ldr	r3, [pc, #256]	; (25b0 <USBHandleControlTransfer+0x160>)
    24b0:	88db      	ldrh	r3, [r3, #6]
    24b2:	2b00      	cmp	r3, #0
    24b4:	d009      	beq.n	24ca <USBHandleControlTransfer+0x7a>
    24b6:	4b3e      	ldr	r3, [pc, #248]	; (25b0 <USBHandleControlTransfer+0x160>)
    24b8:	781b      	ldrb	r3, [r3, #0]
    24ba:	ea4f 13d3 	mov.w	r3, r3, lsr #7
    24be:	b2db      	uxtb	r3, r3
    24c0:	f003 0301 	and.w	r3, r3, #1
    24c4:	b2db      	uxtb	r3, r3
    24c6:	2b00      	cmp	r3, #0
    24c8:	d06d      	beq.n	25a6 <USBHandleControlTransfer+0x156>
    24ca:	4839      	ldr	r0, [pc, #228]	; (25b0 <USBHandleControlTransfer+0x160>)
    24cc:	493c      	ldr	r1, [pc, #240]	; (25c0 <USBHandleControlTransfer+0x170>)
    24ce:	4a3a      	ldr	r2, [pc, #232]	; (25b8 <USBHandleControlTransfer+0x168>)
    24d0:	f7ff ff54 	bl	237c <_HandleRequest>
    24d4:	4603      	mov	r3, r0
    24d6:	2b00      	cmp	r3, #0
    24d8:	d104      	bne.n	24e4 <USBHandleControlTransfer+0x94>
    24da:	79bb      	ldrb	r3, [r7, #6]
    24dc:	4618      	mov	r0, r3
    24de:	f7ff ff73 	bl	23c8 <StallControlPipe>
    24e2:	e060      	b.n	25a6 <USBHandleControlTransfer+0x156>
    24e4:	4b32      	ldr	r3, [pc, #200]	; (25b0 <USBHandleControlTransfer+0x160>)
    24e6:	88db      	ldrh	r3, [r3, #6]
    24e8:	461a      	mov	r2, r3
    24ea:	4b35      	ldr	r3, [pc, #212]	; (25c0 <USBHandleControlTransfer+0x170>)
    24ec:	681b      	ldr	r3, [r3, #0]
    24ee:	429a      	cmp	r2, r3
    24f0:	bfa8      	it	ge
    24f2:	461a      	movge	r2, r3
    24f4:	4b31      	ldr	r3, [pc, #196]	; (25bc <USBHandleControlTransfer+0x16c>)
    24f6:	601a      	str	r2, [r3, #0]
    24f8:	f7ff ff84 	bl	2404 <DataIn>
    24fc:	e053      	b.n	25a6 <USBHandleControlTransfer+0x156>
    24fe:	4b2f      	ldr	r3, [pc, #188]	; (25bc <USBHandleControlTransfer+0x16c>)
    2500:	681b      	ldr	r3, [r3, #0]
    2502:	2b00      	cmp	r3, #0
    2504:	dd40      	ble.n	2588 <USBHandleControlTransfer+0x138>
    2506:	4b2c      	ldr	r3, [pc, #176]	; (25b8 <USBHandleControlTransfer+0x168>)
    2508:	681a      	ldr	r2, [r3, #0]
    250a:	4b2c      	ldr	r3, [pc, #176]	; (25bc <USBHandleControlTransfer+0x16c>)
    250c:	681b      	ldr	r3, [r3, #0]
    250e:	f04f 0000 	mov.w	r0, #0
    2512:	4611      	mov	r1, r2
    2514:	461a      	mov	r2, r3
    2516:	f004 fa1d 	bl	6954 <USBHwEPRead>
    251a:	60b8      	str	r0, [r7, #8]
    251c:	68bb      	ldr	r3, [r7, #8]
    251e:	2b00      	cmp	r3, #0
    2520:	da04      	bge.n	252c <USBHandleControlTransfer+0xdc>
    2522:	79bb      	ldrb	r3, [r7, #6]
    2524:	4618      	mov	r0, r3
    2526:	f7ff ff4f 	bl	23c8 <StallControlPipe>
    252a:	e03c      	b.n	25a6 <USBHandleControlTransfer+0x156>
    252c:	4b22      	ldr	r3, [pc, #136]	; (25b8 <USBHandleControlTransfer+0x168>)
    252e:	681a      	ldr	r2, [r3, #0]
    2530:	68bb      	ldr	r3, [r7, #8]
    2532:	18d2      	adds	r2, r2, r3
    2534:	4b20      	ldr	r3, [pc, #128]	; (25b8 <USBHandleControlTransfer+0x168>)
    2536:	601a      	str	r2, [r3, #0]
    2538:	4b20      	ldr	r3, [pc, #128]	; (25bc <USBHandleControlTransfer+0x16c>)
    253a:	681a      	ldr	r2, [r3, #0]
    253c:	68bb      	ldr	r3, [r7, #8]
    253e:	1ad2      	subs	r2, r2, r3
    2540:	4b1e      	ldr	r3, [pc, #120]	; (25bc <USBHandleControlTransfer+0x16c>)
    2542:	601a      	str	r2, [r3, #0]
    2544:	4b1d      	ldr	r3, [pc, #116]	; (25bc <USBHandleControlTransfer+0x16c>)
    2546:	681b      	ldr	r3, [r3, #0]
    2548:	2b00      	cmp	r3, #0
    254a:	d12c      	bne.n	25a6 <USBHandleControlTransfer+0x156>
    254c:	4b18      	ldr	r3, [pc, #96]	; (25b0 <USBHandleControlTransfer+0x160>)
    254e:	781b      	ldrb	r3, [r3, #0]
    2550:	ea4f 1353 	mov.w	r3, r3, lsr #5
    2554:	b2db      	uxtb	r3, r3
    2556:	f003 0303 	and.w	r3, r3, #3
    255a:	60fb      	str	r3, [r7, #12]
    255c:	4b15      	ldr	r3, [pc, #84]	; (25b4 <USBHandleControlTransfer+0x164>)
    255e:	68fa      	ldr	r2, [r7, #12]
    2560:	f853 2022 	ldr.w	r2, [r3, r2, lsl #2]
    2564:	4b14      	ldr	r3, [pc, #80]	; (25b8 <USBHandleControlTransfer+0x168>)
    2566:	601a      	str	r2, [r3, #0]
    2568:	4811      	ldr	r0, [pc, #68]	; (25b0 <USBHandleControlTransfer+0x160>)
    256a:	4915      	ldr	r1, [pc, #84]	; (25c0 <USBHandleControlTransfer+0x170>)
    256c:	4a12      	ldr	r2, [pc, #72]	; (25b8 <USBHandleControlTransfer+0x168>)
    256e:	f7ff ff05 	bl	237c <_HandleRequest>
    2572:	4603      	mov	r3, r0
    2574:	2b00      	cmp	r3, #0
    2576:	d104      	bne.n	2582 <USBHandleControlTransfer+0x132>
    2578:	79bb      	ldrb	r3, [r7, #6]
    257a:	4618      	mov	r0, r3
    257c:	f7ff ff24 	bl	23c8 <StallControlPipe>
    2580:	e011      	b.n	25a6 <USBHandleControlTransfer+0x156>
    2582:	f7ff ff3f 	bl	2404 <DataIn>
    2586:	e00e      	b.n	25a6 <USBHandleControlTransfer+0x156>
    2588:	f04f 0000 	mov.w	r0, #0
    258c:	f04f 0100 	mov.w	r1, #0
    2590:	f04f 0200 	mov.w	r2, #0
    2594:	f004 f9de 	bl	6954 <USBHwEPRead>
    2598:	60b8      	str	r0, [r7, #8]
    259a:	e004      	b.n	25a6 <USBHandleControlTransfer+0x156>
    259c:	79fb      	ldrb	r3, [r7, #7]
    259e:	2b80      	cmp	r3, #128	; 0x80
    25a0:	d101      	bne.n	25a6 <USBHandleControlTransfer+0x156>
    25a2:	f7ff ff2f 	bl	2404 <DataIn>
    25a6:	f107 0710 	add.w	r7, r7, #16
    25aa:	46bd      	mov	sp, r7
    25ac:	bd80      	pop	{r7, pc}
    25ae:	bf00      	nop
    25b0:	200035d4 	.word	0x200035d4
    25b4:	200035f8 	.word	0x200035f8
    25b8:	200035dc 	.word	0x200035dc
    25bc:	200035e0 	.word	0x200035e0
    25c0:	200035e4 	.word	0x200035e4

000025c4 <USBRegisterRequestHandler>:
    25c4:	b480      	push	{r7}
    25c6:	b085      	sub	sp, #20
    25c8:	af00      	add	r7, sp, #0
    25ca:	60f8      	str	r0, [r7, #12]
    25cc:	60b9      	str	r1, [r7, #8]
    25ce:	607a      	str	r2, [r7, #4]
    25d0:	4b07      	ldr	r3, [pc, #28]	; (25f0 <USBRegisterRequestHandler+0x2c>)
    25d2:	68fa      	ldr	r2, [r7, #12]
    25d4:	68b9      	ldr	r1, [r7, #8]
    25d6:	f843 1022 	str.w	r1, [r3, r2, lsl #2]
    25da:	4b06      	ldr	r3, [pc, #24]	; (25f4 <USBRegisterRequestHandler+0x30>)
    25dc:	68fa      	ldr	r2, [r7, #12]
    25de:	6879      	ldr	r1, [r7, #4]
    25e0:	f843 1022 	str.w	r1, [r3, r2, lsl #2]
    25e4:	f107 0714 	add.w	r7, r7, #20
    25e8:	46bd      	mov	sp, r7
    25ea:	bc80      	pop	{r7}
    25ec:	4770      	bx	lr
    25ee:	bf00      	nop
    25f0:	200035e8 	.word	0x200035e8
    25f4:	200035f8 	.word	0x200035f8

000025f8 <netbuf_delete>:
    25f8:	b580      	push	{r7, lr}
    25fa:	b082      	sub	sp, #8
    25fc:	af00      	add	r7, sp, #0
    25fe:	6078      	str	r0, [r7, #4]
    2600:	687b      	ldr	r3, [r7, #4]
    2602:	2b00      	cmp	r3, #0
    2604:	d015      	beq.n	2632 <netbuf_delete+0x3a>
    2606:	687b      	ldr	r3, [r7, #4]
    2608:	681b      	ldr	r3, [r3, #0]
    260a:	2b00      	cmp	r3, #0
    260c:	d00c      	beq.n	2628 <netbuf_delete+0x30>
    260e:	687b      	ldr	r3, [r7, #4]
    2610:	681b      	ldr	r3, [r3, #0]
    2612:	4618      	mov	r0, r3
    2614:	f001 fad6 	bl	3bc4 <pbuf_free>
    2618:	687b      	ldr	r3, [r7, #4]
    261a:	f04f 0200 	mov.w	r2, #0
    261e:	605a      	str	r2, [r3, #4]
    2620:	687b      	ldr	r3, [r7, #4]
    2622:	685a      	ldr	r2, [r3, #4]
    2624:	687b      	ldr	r3, [r7, #4]
    2626:	601a      	str	r2, [r3, #0]
    2628:	f04f 0005 	mov.w	r0, #5
    262c:	6879      	ldr	r1, [r7, #4]
    262e:	f7ff fe61 	bl	22f4 <memp_free>
    2632:	f107 0708 	add.w	r7, r7, #8
    2636:	46bd      	mov	sp, r7
    2638:	bd80      	pop	{r7, pc}
    263a:	bf00      	nop

0000263c <netbuf_data>:
    263c:	b480      	push	{r7}
    263e:	b085      	sub	sp, #20
    2640:	af00      	add	r7, sp, #0
    2642:	60f8      	str	r0, [r7, #12]
    2644:	60b9      	str	r1, [r7, #8]
    2646:	607a      	str	r2, [r7, #4]
    2648:	68fb      	ldr	r3, [r7, #12]
    264a:	2b00      	cmp	r3, #0
    264c:	d102      	bne.n	2654 <netbuf_data+0x18>
    264e:	f04f 03f6 	mov.w	r3, #246	; 0xf6
    2652:	e01e      	b.n	2692 <netbuf_data+0x56>
    2654:	68bb      	ldr	r3, [r7, #8]
    2656:	2b00      	cmp	r3, #0
    2658:	d102      	bne.n	2660 <netbuf_data+0x24>
    265a:	f04f 03f6 	mov.w	r3, #246	; 0xf6
    265e:	e018      	b.n	2692 <netbuf_data+0x56>
    2660:	687b      	ldr	r3, [r7, #4]
    2662:	2b00      	cmp	r3, #0
    2664:	d102      	bne.n	266c <netbuf_data+0x30>
    2666:	f04f 03f6 	mov.w	r3, #246	; 0xf6
    266a:	e012      	b.n	2692 <netbuf_data+0x56>
    266c:	68fb      	ldr	r3, [r7, #12]
    266e:	685b      	ldr	r3, [r3, #4]
    2670:	2b00      	cmp	r3, #0
    2672:	d102      	bne.n	267a <netbuf_data+0x3e>
    2674:	f04f 03fe 	mov.w	r3, #254	; 0xfe
    2678:	e00b      	b.n	2692 <netbuf_data+0x56>
    267a:	68fb      	ldr	r3, [r7, #12]
    267c:	685b      	ldr	r3, [r3, #4]
    267e:	685a      	ldr	r2, [r3, #4]
    2680:	68bb      	ldr	r3, [r7, #8]
    2682:	601a      	str	r2, [r3, #0]
    2684:	68fb      	ldr	r3, [r7, #12]
    2686:	685b      	ldr	r3, [r3, #4]
    2688:	895a      	ldrh	r2, [r3, #10]
    268a:	687b      	ldr	r3, [r7, #4]
    268c:	801a      	strh	r2, [r3, #0]
    268e:	f04f 0300 	mov.w	r3, #0
    2692:	b25b      	sxtb	r3, r3
    2694:	4618      	mov	r0, r3
    2696:	f107 0714 	add.w	r7, r7, #20
    269a:	46bd      	mov	sp, r7
    269c:	bc80      	pop	{r7}
    269e:	4770      	bx	lr

000026a0 <tcpip_tcp_timer>:
    26a0:	b580      	push	{r7, lr}
    26a2:	b082      	sub	sp, #8
    26a4:	af00      	add	r7, sp, #0
    26a6:	6078      	str	r0, [r7, #4]
    26a8:	f7fd ff1a 	bl	4e0 <tcp_tmr>
    26ac:	4b0b      	ldr	r3, [pc, #44]	; (26dc <tcpip_tcp_timer+0x3c>)
    26ae:	681b      	ldr	r3, [r3, #0]
    26b0:	2b00      	cmp	r3, #0
    26b2:	d103      	bne.n	26bc <tcpip_tcp_timer+0x1c>
    26b4:	4b0a      	ldr	r3, [pc, #40]	; (26e0 <tcpip_tcp_timer+0x40>)
    26b6:	681b      	ldr	r3, [r3, #0]
    26b8:	2b00      	cmp	r3, #0
    26ba:	d007      	beq.n	26cc <tcpip_tcp_timer+0x2c>
    26bc:	f04f 00fa 	mov.w	r0, #250	; 0xfa
    26c0:	4908      	ldr	r1, [pc, #32]	; (26e4 <tcpip_tcp_timer+0x44>)
    26c2:	f04f 0200 	mov.w	r2, #0
    26c6:	f000 fbc9 	bl	2e5c <sys_timeout>
    26ca:	e003      	b.n	26d4 <tcpip_tcp_timer+0x34>
    26cc:	4b06      	ldr	r3, [pc, #24]	; (26e8 <tcpip_tcp_timer+0x48>)
    26ce:	f04f 0200 	mov.w	r2, #0
    26d2:	601a      	str	r2, [r3, #0]
    26d4:	f107 0708 	add.w	r7, r7, #8
    26d8:	46bd      	mov	sp, r7
    26da:	bd80      	pop	{r7, pc}
    26dc:	20003dd4 	.word	0x20003dd4
    26e0:	20003de8 	.word	0x20003de8
    26e4:	000026a1 	.word	0x000026a1
    26e8:	20003610 	.word	0x20003610

000026ec <tcp_timer_needed>:
    26ec:	b580      	push	{r7, lr}
    26ee:	af00      	add	r7, sp, #0
    26f0:	4b0b      	ldr	r3, [pc, #44]	; (2720 <tcp_timer_needed+0x34>)
    26f2:	681b      	ldr	r3, [r3, #0]
    26f4:	2b00      	cmp	r3, #0
    26f6:	d112      	bne.n	271e <tcp_timer_needed+0x32>
    26f8:	4b0a      	ldr	r3, [pc, #40]	; (2724 <tcp_timer_needed+0x38>)
    26fa:	681b      	ldr	r3, [r3, #0]
    26fc:	2b00      	cmp	r3, #0
    26fe:	d103      	bne.n	2708 <tcp_timer_needed+0x1c>
    2700:	4b09      	ldr	r3, [pc, #36]	; (2728 <tcp_timer_needed+0x3c>)
    2702:	681b      	ldr	r3, [r3, #0]
    2704:	2b00      	cmp	r3, #0
    2706:	d00a      	beq.n	271e <tcp_timer_needed+0x32>
    2708:	4b05      	ldr	r3, [pc, #20]	; (2720 <tcp_timer_needed+0x34>)
    270a:	f04f 0201 	mov.w	r2, #1
    270e:	601a      	str	r2, [r3, #0]
    2710:	f04f 00fa 	mov.w	r0, #250	; 0xfa
    2714:	4905      	ldr	r1, [pc, #20]	; (272c <tcp_timer_needed+0x40>)
    2716:	f04f 0200 	mov.w	r2, #0
    271a:	f000 fb9f 	bl	2e5c <sys_timeout>
    271e:	bd80      	pop	{r7, pc}
    2720:	20003610 	.word	0x20003610
    2724:	20003dd4 	.word	0x20003dd4
    2728:	20003de8 	.word	0x20003de8
    272c:	000026a1 	.word	0x000026a1

00002730 <tcpip_callback_with_block>:
    2730:	b580      	push	{r7, lr}
    2732:	b086      	sub	sp, #24
    2734:	af00      	add	r7, sp, #0
    2736:	60f8      	str	r0, [r7, #12]
    2738:	60b9      	str	r1, [r7, #8]
    273a:	4613      	mov	r3, r2
    273c:	71fb      	strb	r3, [r7, #7]
    273e:	4b20      	ldr	r3, [pc, #128]	; (27c0 <tcpip_callback_with_block+0x90>)
    2740:	781b      	ldrb	r3, [r3, #0]
    2742:	2bff      	cmp	r3, #255	; 0xff
    2744:	d033      	beq.n	27ae <tcpip_callback_with_block+0x7e>
    2746:	f04f 0007 	mov.w	r0, #7
    274a:	f7ff fd31 	bl	21b0 <memp_malloc>
    274e:	4603      	mov	r3, r0
    2750:	617b      	str	r3, [r7, #20]
    2752:	697b      	ldr	r3, [r7, #20]
    2754:	2b00      	cmp	r3, #0
    2756:	d102      	bne.n	275e <tcpip_callback_with_block+0x2e>
    2758:	f04f 03ff 	mov.w	r3, #255	; 0xff
    275c:	e029      	b.n	27b2 <tcpip_callback_with_block+0x82>
    275e:	697b      	ldr	r3, [r7, #20]
    2760:	f04f 0202 	mov.w	r2, #2
    2764:	701a      	strb	r2, [r3, #0]
    2766:	697b      	ldr	r3, [r7, #20]
    2768:	68fa      	ldr	r2, [r7, #12]
    276a:	609a      	str	r2, [r3, #8]
    276c:	697b      	ldr	r3, [r7, #20]
    276e:	68ba      	ldr	r2, [r7, #8]
    2770:	60da      	str	r2, [r3, #12]
    2772:	79fb      	ldrb	r3, [r7, #7]
    2774:	2b00      	cmp	r3, #0
    2776:	d006      	beq.n	2786 <tcpip_callback_with_block+0x56>
    2778:	4b11      	ldr	r3, [pc, #68]	; (27c0 <tcpip_callback_with_block+0x90>)
    277a:	781b      	ldrb	r3, [r3, #0]
    277c:	4618      	mov	r0, r3
    277e:	6979      	ldr	r1, [r7, #20]
    2780:	f002 fedc 	bl	553c <sys_mbox_post>
    2784:	e010      	b.n	27a8 <tcpip_callback_with_block+0x78>
    2786:	4b0e      	ldr	r3, [pc, #56]	; (27c0 <tcpip_callback_with_block+0x90>)
    2788:	781b      	ldrb	r3, [r3, #0]
    278a:	4618      	mov	r0, r3
    278c:	6979      	ldr	r1, [r7, #20]
    278e:	f002 fee5 	bl	555c <sys_mbox_trypost>
    2792:	4603      	mov	r3, r0
    2794:	2b00      	cmp	r3, #0
    2796:	d007      	beq.n	27a8 <tcpip_callback_with_block+0x78>
    2798:	f04f 0007 	mov.w	r0, #7
    279c:	6979      	ldr	r1, [r7, #20]
    279e:	f7ff fda9 	bl	22f4 <memp_free>
    27a2:	f04f 03ff 	mov.w	r3, #255	; 0xff
    27a6:	e004      	b.n	27b2 <tcpip_callback_with_block+0x82>
    27a8:	f04f 0300 	mov.w	r3, #0
    27ac:	e001      	b.n	27b2 <tcpip_callback_with_block+0x82>
    27ae:	f04f 03f7 	mov.w	r3, #247	; 0xf7
    27b2:	b25b      	sxtb	r3, r3
    27b4:	4618      	mov	r0, r3
    27b6:	f107 0718 	add.w	r7, r7, #24
    27ba:	46bd      	mov	sp, r7
    27bc:	bd80      	pop	{r7, pc}
    27be:	bf00      	nop
    27c0:	20000068 	.word	0x20000068

000027c4 <tcpip_apimsg>:
    27c4:	b580      	push	{r7, lr}
    27c6:	b088      	sub	sp, #32
    27c8:	af00      	add	r7, sp, #0
    27ca:	6078      	str	r0, [r7, #4]
    27cc:	4b11      	ldr	r3, [pc, #68]	; (2814 <tcpip_apimsg+0x50>)
    27ce:	781b      	ldrb	r3, [r3, #0]
    27d0:	2bff      	cmp	r3, #255	; 0xff
    27d2:	d017      	beq.n	2804 <tcpip_apimsg+0x40>
    27d4:	f04f 0300 	mov.w	r3, #0
    27d8:	733b      	strb	r3, [r7, #12]
    27da:	687b      	ldr	r3, [r7, #4]
    27dc:	617b      	str	r3, [r7, #20]
    27de:	4b0d      	ldr	r3, [pc, #52]	; (2814 <tcpip_apimsg+0x50>)
    27e0:	781a      	ldrb	r2, [r3, #0]
    27e2:	f107 030c 	add.w	r3, r7, #12
    27e6:	4610      	mov	r0, r2
    27e8:	4619      	mov	r1, r3
    27ea:	f002 fea7 	bl	553c <sys_mbox_post>
    27ee:	687b      	ldr	r3, [r7, #4]
    27f0:	685b      	ldr	r3, [r3, #4]
    27f2:	7a5b      	ldrb	r3, [r3, #9]
    27f4:	4618      	mov	r0, r3
    27f6:	f04f 0100 	mov.w	r1, #0
    27fa:	f002 ff73 	bl	56e4 <sys_arch_sem_wait>
    27fe:	f04f 0300 	mov.w	r3, #0
    2802:	e001      	b.n	2808 <tcpip_apimsg+0x44>
    2804:	f04f 03f7 	mov.w	r3, #247	; 0xf7
    2808:	b25b      	sxtb	r3, r3
    280a:	4618      	mov	r0, r3
    280c:	f107 0720 	add.w	r7, r7, #32
    2810:	46bd      	mov	sp, r7
    2812:	bd80      	pop	{r7, pc}
    2814:	20000068 	.word	0x20000068

00002818 <CreateTCBList>:
    2818:	b480      	push	{r7}
    281a:	b085      	sub	sp, #20
    281c:	af00      	add	r7, sp, #0
    281e:	4b18      	ldr	r3, [pc, #96]	; (2880 <CreateTCBList+0x68>)
    2820:	60bb      	str	r3, [r7, #8]
    2822:	4b18      	ldr	r3, [pc, #96]	; (2884 <CreateTCBList+0x6c>)
    2824:	607b      	str	r3, [r7, #4]
    2826:	f04f 0300 	mov.w	r3, #0
    282a:	73fb      	strb	r3, [r7, #15]
    282c:	e015      	b.n	285a <CreateTCBList+0x42>
    282e:	68bb      	ldr	r3, [r7, #8]
    2830:	7bfa      	ldrb	r2, [r7, #15]
    2832:	719a      	strb	r2, [r3, #6]
    2834:	68bb      	ldr	r3, [r7, #8]
    2836:	f04f 0203 	mov.w	r2, #3
    283a:	715a      	strb	r2, [r3, #5]
    283c:	68bb      	ldr	r3, [r7, #8]
    283e:	687a      	ldr	r2, [r7, #4]
    2840:	625a      	str	r2, [r3, #36]	; 0x24
    2842:	68bb      	ldr	r3, [r7, #8]
    2844:	f103 032c 	add.w	r3, r3, #44	; 0x2c
    2848:	60bb      	str	r3, [r7, #8]
    284a:	687b      	ldr	r3, [r7, #4]
    284c:	f103 032c 	add.w	r3, r3, #44	; 0x2c
    2850:	607b      	str	r3, [r7, #4]
    2852:	7bfb      	ldrb	r3, [r7, #15]
    2854:	f103 0301 	add.w	r3, r3, #1
    2858:	73fb      	strb	r3, [r7, #15]
    285a:	7bfb      	ldrb	r3, [r7, #15]
    285c:	2b04      	cmp	r3, #4
    285e:	d9e6      	bls.n	282e <CreateTCBList+0x16>
    2860:	68bb      	ldr	r3, [r7, #8]
    2862:	7bfa      	ldrb	r2, [r7, #15]
    2864:	719a      	strb	r2, [r3, #6]
    2866:	68bb      	ldr	r3, [r7, #8]
    2868:	f04f 0200 	mov.w	r2, #0
    286c:	625a      	str	r2, [r3, #36]	; 0x24
    286e:	4b06      	ldr	r3, [pc, #24]	; (2888 <CreateTCBList+0x70>)
    2870:	4a03      	ldr	r2, [pc, #12]	; (2880 <CreateTCBList+0x68>)
    2872:	601a      	str	r2, [r3, #0]
    2874:	f107 0714 	add.w	r7, r7, #20
    2878:	46bd      	mov	sp, r7
    287a:	bc80      	pop	{r7}
    287c:	4770      	bx	lr
    287e:	bf00      	nop
    2880:	20003618 	.word	0x20003618
    2884:	20003644 	.word	0x20003644
    2888:	20003784 	.word	0x20003784

0000288c <InsertToTCBRdyList>:
    288c:	b480      	push	{r7}
    288e:	b087      	sub	sp, #28
    2890:	af00      	add	r7, sp, #0
    2892:	6078      	str	r0, [r7, #4]
    2894:	687b      	ldr	r3, [r7, #4]
    2896:	791b      	ldrb	r3, [r3, #4]
    2898:	73fb      	strb	r3, [r7, #15]
    289a:	687b      	ldr	r3, [r7, #4]
    289c:	f04f 0200 	mov.w	r2, #0
    28a0:	715a      	strb	r2, [r3, #5]
    28a2:	4b37      	ldr	r3, [pc, #220]	; (2980 <InsertToTCBRdyList+0xf4>)
    28a4:	681b      	ldr	r3, [r3, #0]
    28a6:	613b      	str	r3, [r7, #16]
    28a8:	693b      	ldr	r3, [r7, #16]
    28aa:	791b      	ldrb	r3, [r3, #4]
    28ac:	7bfa      	ldrb	r2, [r7, #15]
    28ae:	429a      	cmp	r2, r3
    28b0:	d11e      	bne.n	28f0 <InsertToTCBRdyList+0x64>
    28b2:	693a      	ldr	r2, [r7, #16]
    28b4:	687b      	ldr	r3, [r7, #4]
    28b6:	429a      	cmp	r2, r3
    28b8:	d01a      	beq.n	28f0 <InsertToTCBRdyList+0x64>
    28ba:	693b      	ldr	r3, [r7, #16]
    28bc:	2b00      	cmp	r3, #0
    28be:	d017      	beq.n	28f0 <InsertToTCBRdyList+0x64>
    28c0:	4b30      	ldr	r3, [pc, #192]	; (2984 <InsertToTCBRdyList+0xf8>)
    28c2:	e9d3 0100 	ldrd	r0, r1, [r3]
    28c6:	4b30      	ldr	r3, [pc, #192]	; (2988 <InsertToTCBRdyList+0xfc>)
    28c8:	e9d3 2300 	ldrd	r2, r3, [r3]
    28cc:	4290      	cmp	r0, r2
    28ce:	eb71 0c03 	sbcs.w	ip, r1, r3
    28d2:	d20d      	bcs.n	28f0 <InsertToTCBRdyList+0x64>
    28d4:	693b      	ldr	r3, [r7, #16]
    28d6:	895b      	ldrh	r3, [r3, #10]
    28d8:	4618      	mov	r0, r3
    28da:	f04f 0100 	mov.w	r1, #0
    28de:	4b2a      	ldr	r3, [pc, #168]	; (2988 <InsertToTCBRdyList+0xfc>)
    28e0:	e9d3 2300 	ldrd	r2, r3, [r3]
    28e4:	1812      	adds	r2, r2, r0
    28e6:	eb43 0301 	adc.w	r3, r3, r1
    28ea:	4926      	ldr	r1, [pc, #152]	; (2984 <InsertToTCBRdyList+0xf8>)
    28ec:	e9c1 2300 	strd	r2, r3, [r1]
    28f0:	4b26      	ldr	r3, [pc, #152]	; (298c <InsertToTCBRdyList+0x100>)
    28f2:	681b      	ldr	r3, [r3, #0]
    28f4:	613b      	str	r3, [r7, #16]
    28f6:	693b      	ldr	r3, [r7, #16]
    28f8:	2b00      	cmp	r3, #0
    28fa:	d107      	bne.n	290c <InsertToTCBRdyList+0x80>
    28fc:	4b24      	ldr	r3, [pc, #144]	; (2990 <InsertToTCBRdyList+0x104>)
    28fe:	f04f 0201 	mov.w	r2, #1
    2902:	701a      	strb	r2, [r3, #0]
    2904:	4b21      	ldr	r3, [pc, #132]	; (298c <InsertToTCBRdyList+0x100>)
    2906:	687a      	ldr	r2, [r7, #4]
    2908:	601a      	str	r2, [r3, #0]
    290a:	e034      	b.n	2976 <InsertToTCBRdyList+0xea>
    290c:	693b      	ldr	r3, [r7, #16]
    290e:	791b      	ldrb	r3, [r3, #4]
    2910:	7bfa      	ldrb	r2, [r7, #15]
    2912:	429a      	cmp	r2, r3
    2914:	d20d      	bcs.n	2932 <InsertToTCBRdyList+0xa6>
    2916:	4b1e      	ldr	r3, [pc, #120]	; (2990 <InsertToTCBRdyList+0x104>)
    2918:	f04f 0201 	mov.w	r2, #1
    291c:	701a      	strb	r2, [r3, #0]
    291e:	687b      	ldr	r3, [r7, #4]
    2920:	693a      	ldr	r2, [r7, #16]
    2922:	625a      	str	r2, [r3, #36]	; 0x24
    2924:	693b      	ldr	r3, [r7, #16]
    2926:	687a      	ldr	r2, [r7, #4]
    2928:	629a      	str	r2, [r3, #40]	; 0x28
    292a:	4b18      	ldr	r3, [pc, #96]	; (298c <InsertToTCBRdyList+0x100>)
    292c:	687a      	ldr	r2, [r7, #4]
    292e:	601a      	str	r2, [r3, #0]
    2930:	e021      	b.n	2976 <InsertToTCBRdyList+0xea>
    2932:	693b      	ldr	r3, [r7, #16]
    2934:	6a5b      	ldr	r3, [r3, #36]	; 0x24
    2936:	617b      	str	r3, [r7, #20]
    2938:	e009      	b.n	294e <InsertToTCBRdyList+0xc2>
    293a:	697b      	ldr	r3, [r7, #20]
    293c:	791b      	ldrb	r3, [r3, #4]
    293e:	7bfa      	ldrb	r2, [r7, #15]
    2940:	429a      	cmp	r2, r3
    2942:	d308      	bcc.n	2956 <InsertToTCBRdyList+0xca>
    2944:	697b      	ldr	r3, [r7, #20]
    2946:	613b      	str	r3, [r7, #16]
    2948:	697b      	ldr	r3, [r7, #20]
    294a:	6a5b      	ldr	r3, [r3, #36]	; 0x24
    294c:	617b      	str	r3, [r7, #20]
    294e:	697b      	ldr	r3, [r7, #20]
    2950:	2b00      	cmp	r3, #0
    2952:	d1f2      	bne.n	293a <InsertToTCBRdyList+0xae>
    2954:	e000      	b.n	2958 <InsertToTCBRdyList+0xcc>
    2956:	bf00      	nop
    2958:	687b      	ldr	r3, [r7, #4]
    295a:	697a      	ldr	r2, [r7, #20]
    295c:	625a      	str	r2, [r3, #36]	; 0x24
    295e:	693b      	ldr	r3, [r7, #16]
    2960:	687a      	ldr	r2, [r7, #4]
    2962:	625a      	str	r2, [r3, #36]	; 0x24
    2964:	687b      	ldr	r3, [r7, #4]
    2966:	693a      	ldr	r2, [r7, #16]
    2968:	629a      	str	r2, [r3, #40]	; 0x28
    296a:	697b      	ldr	r3, [r7, #20]
    296c:	2b00      	cmp	r3, #0
    296e:	d002      	beq.n	2976 <InsertToTCBRdyList+0xea>
    2970:	697b      	ldr	r3, [r7, #20]
    2972:	687a      	ldr	r2, [r7, #4]
    2974:	629a      	str	r2, [r3, #40]	; 0x28
    2976:	f107 071c 	add.w	r7, r7, #28
    297a:	46bd      	mov	sp, r7
    297c:	bc80      	pop	{r7}
    297e:	4770      	bx	lr
    2980:	20003790 	.word	0x20003790
    2984:	20003798 	.word	0x20003798
    2988:	20003dc8 	.word	0x20003dc8
    298c:	20003788 	.word	0x20003788
    2990:	20000983 	.word	0x20000983

00002994 <RemoveFromTCBRdyList>:
    2994:	b480      	push	{r7}
    2996:	b083      	sub	sp, #12
    2998:	af00      	add	r7, sp, #0
    299a:	6078      	str	r0, [r7, #4]
    299c:	687b      	ldr	r3, [r7, #4]
    299e:	6a5b      	ldr	r3, [r3, #36]	; 0x24
    29a0:	2b00      	cmp	r3, #0
    29a2:	d108      	bne.n	29b6 <RemoveFromTCBRdyList+0x22>
    29a4:	687b      	ldr	r3, [r7, #4]
    29a6:	6a9b      	ldr	r3, [r3, #40]	; 0x28
    29a8:	2b00      	cmp	r3, #0
    29aa:	d104      	bne.n	29b6 <RemoveFromTCBRdyList+0x22>
    29ac:	4b1d      	ldr	r3, [pc, #116]	; (2a24 <RemoveFromTCBRdyList+0x90>)
    29ae:	f04f 0200 	mov.w	r2, #0
    29b2:	601a      	str	r2, [r3, #0]
    29b4:	e031      	b.n	2a1a <RemoveFromTCBRdyList+0x86>
    29b6:	687b      	ldr	r3, [r7, #4]
    29b8:	6a9b      	ldr	r3, [r3, #40]	; 0x28
    29ba:	2b00      	cmp	r3, #0
    29bc:	d10d      	bne.n	29da <RemoveFromTCBRdyList+0x46>
    29be:	687b      	ldr	r3, [r7, #4]
    29c0:	6a5a      	ldr	r2, [r3, #36]	; 0x24
    29c2:	4b18      	ldr	r3, [pc, #96]	; (2a24 <RemoveFromTCBRdyList+0x90>)
    29c4:	601a      	str	r2, [r3, #0]
    29c6:	687b      	ldr	r3, [r7, #4]
    29c8:	f04f 0200 	mov.w	r2, #0
    29cc:	625a      	str	r2, [r3, #36]	; 0x24
    29ce:	4b15      	ldr	r3, [pc, #84]	; (2a24 <RemoveFromTCBRdyList+0x90>)
    29d0:	681b      	ldr	r3, [r3, #0]
    29d2:	f04f 0200 	mov.w	r2, #0
    29d6:	629a      	str	r2, [r3, #40]	; 0x28
    29d8:	e01f      	b.n	2a1a <RemoveFromTCBRdyList+0x86>
    29da:	687b      	ldr	r3, [r7, #4]
    29dc:	6a5b      	ldr	r3, [r3, #36]	; 0x24
    29de:	2b00      	cmp	r3, #0
    29e0:	d109      	bne.n	29f6 <RemoveFromTCBRdyList+0x62>
    29e2:	687b      	ldr	r3, [r7, #4]
    29e4:	6a9b      	ldr	r3, [r3, #40]	; 0x28
    29e6:	f04f 0200 	mov.w	r2, #0
    29ea:	625a      	str	r2, [r3, #36]	; 0x24
    29ec:	687b      	ldr	r3, [r7, #4]
    29ee:	f04f 0200 	mov.w	r2, #0
    29f2:	629a      	str	r2, [r3, #40]	; 0x28
    29f4:	e011      	b.n	2a1a <RemoveFromTCBRdyList+0x86>
    29f6:	687b      	ldr	r3, [r7, #4]
    29f8:	6a9b      	ldr	r3, [r3, #40]	; 0x28
    29fa:	687a      	ldr	r2, [r7, #4]
    29fc:	6a52      	ldr	r2, [r2, #36]	; 0x24
    29fe:	625a      	str	r2, [r3, #36]	; 0x24
    2a00:	687b      	ldr	r3, [r7, #4]
    2a02:	6a5b      	ldr	r3, [r3, #36]	; 0x24
    2a04:	687a      	ldr	r2, [r7, #4]
    2a06:	6a92      	ldr	r2, [r2, #40]	; 0x28
    2a08:	629a      	str	r2, [r3, #40]	; 0x28
    2a0a:	687b      	ldr	r3, [r7, #4]
    2a0c:	f04f 0200 	mov.w	r2, #0
    2a10:	625a      	str	r2, [r3, #36]	; 0x24
    2a12:	687b      	ldr	r3, [r7, #4]
    2a14:	f04f 0200 	mov.w	r2, #0
    2a18:	629a      	str	r2, [r3, #40]	; 0x28
    2a1a:	f107 070c 	add.w	r7, r7, #12
    2a1e:	46bd      	mov	sp, r7
    2a20:	bc80      	pop	{r7}
    2a22:	4770      	bx	lr
    2a24:	20003788 	.word	0x20003788

00002a28 <Schedule>:
    2a28:	b580      	push	{r7, lr}
    2a2a:	b084      	sub	sp, #16
    2a2c:	af00      	add	r7, sp, #0
    2a2e:	4b4e      	ldr	r3, [pc, #312]	; (2b68 <Schedule+0x140>)
    2a30:	681b      	ldr	r3, [r3, #0]
    2a32:	60fb      	str	r3, [r7, #12]
    2a34:	4b4d      	ldr	r3, [pc, #308]	; (2b6c <Schedule+0x144>)
    2a36:	681b      	ldr	r3, [r3, #0]
    2a38:	60bb      	str	r3, [r7, #8]
    2a3a:	68bb      	ldr	r3, [r7, #8]
    2a3c:	2b00      	cmp	r3, #0
    2a3e:	f000 8083 	beq.w	2b48 <Schedule+0x120>
    2a42:	4b4b      	ldr	r3, [pc, #300]	; (2b70 <Schedule+0x148>)
    2a44:	681b      	ldr	r3, [r3, #0]
    2a46:	68fa      	ldr	r2, [r7, #12]
    2a48:	429a      	cmp	r2, r3
    2a4a:	d17f      	bne.n	2b4c <Schedule+0x124>
    2a4c:	4b49      	ldr	r3, [pc, #292]	; (2b74 <Schedule+0x14c>)
    2a4e:	781b      	ldrb	r3, [r3, #0]
    2a50:	b2db      	uxtb	r3, r3
    2a52:	2b01      	cmp	r3, #1
    2a54:	d87c      	bhi.n	2b50 <Schedule+0x128>
    2a56:	4b48      	ldr	r3, [pc, #288]	; (2b78 <Schedule+0x150>)
    2a58:	781b      	ldrb	r3, [r3, #0]
    2a5a:	b2db      	uxtb	r3, r3
    2a5c:	2b00      	cmp	r3, #0
    2a5e:	d179      	bne.n	2b54 <Schedule+0x12c>
    2a60:	4b46      	ldr	r3, [pc, #280]	; (2b7c <Schedule+0x154>)
    2a62:	f04f 0200 	mov.w	r2, #0
    2a66:	701a      	strb	r2, [r3, #0]
    2a68:	68fb      	ldr	r3, [r7, #12]
    2a6a:	791b      	ldrb	r3, [r3, #4]
    2a6c:	71fb      	strb	r3, [r7, #7]
    2a6e:	68bb      	ldr	r3, [r7, #8]
    2a70:	791b      	ldrb	r3, [r3, #4]
    2a72:	71bb      	strb	r3, [r7, #6]
    2a74:	68fb      	ldr	r3, [r7, #12]
    2a76:	795b      	ldrb	r3, [r3, #5]
    2a78:	2b01      	cmp	r3, #1
    2a7a:	d00a      	beq.n	2a92 <Schedule+0x6a>
    2a7c:	4b3c      	ldr	r3, [pc, #240]	; (2b70 <Schedule+0x148>)
    2a7e:	68ba      	ldr	r2, [r7, #8]
    2a80:	601a      	str	r2, [r3, #0]
    2a82:	68bb      	ldr	r3, [r7, #8]
    2a84:	f04f 0201 	mov.w	r2, #1
    2a88:	715a      	strb	r2, [r3, #5]
    2a8a:	68b8      	ldr	r0, [r7, #8]
    2a8c:	f7ff ff82 	bl	2994 <RemoveFromTCBRdyList>
    2a90:	e02f      	b.n	2af2 <Schedule+0xca>
    2a92:	79ba      	ldrb	r2, [r7, #6]
    2a94:	79fb      	ldrb	r3, [r7, #7]
    2a96:	429a      	cmp	r2, r3
    2a98:	d20d      	bcs.n	2ab6 <Schedule+0x8e>
    2a9a:	4b35      	ldr	r3, [pc, #212]	; (2b70 <Schedule+0x148>)
    2a9c:	68ba      	ldr	r2, [r7, #8]
    2a9e:	601a      	str	r2, [r3, #0]
    2aa0:	68f8      	ldr	r0, [r7, #12]
    2aa2:	f7ff fef3 	bl	288c <InsertToTCBRdyList>
    2aa6:	68b8      	ldr	r0, [r7, #8]
    2aa8:	f7ff ff74 	bl	2994 <RemoveFromTCBRdyList>
    2aac:	68bb      	ldr	r3, [r7, #8]
    2aae:	f04f 0201 	mov.w	r2, #1
    2ab2:	715a      	strb	r2, [r3, #5]
    2ab4:	e01d      	b.n	2af2 <Schedule+0xca>
    2ab6:	79fa      	ldrb	r2, [r7, #7]
    2ab8:	79bb      	ldrb	r3, [r7, #6]
    2aba:	429a      	cmp	r2, r3
    2abc:	d14c      	bne.n	2b58 <Schedule+0x130>
    2abe:	4b30      	ldr	r3, [pc, #192]	; (2b80 <Schedule+0x158>)
    2ac0:	e9d3 0100 	ldrd	r0, r1, [r3]
    2ac4:	4b2f      	ldr	r3, [pc, #188]	; (2b84 <Schedule+0x15c>)
    2ac6:	e9d3 2300 	ldrd	r2, r3, [r3]
    2aca:	ea82 0200 	eor.w	r2, r2, r0
    2ace:	ea83 0301 	eor.w	r3, r3, r1
    2ad2:	ea52 0103 	orrs.w	r1, r2, r3
    2ad6:	d141      	bne.n	2b5c <Schedule+0x134>
    2ad8:	4b25      	ldr	r3, [pc, #148]	; (2b70 <Schedule+0x148>)
    2ada:	68ba      	ldr	r2, [r7, #8]
    2adc:	601a      	str	r2, [r3, #0]
    2ade:	68f8      	ldr	r0, [r7, #12]
    2ae0:	f7ff fed4 	bl	288c <InsertToTCBRdyList>
    2ae4:	68b8      	ldr	r0, [r7, #8]
    2ae6:	f7ff ff55 	bl	2994 <RemoveFromTCBRdyList>
    2aea:	68bb      	ldr	r3, [r7, #8]
    2aec:	f04f 0201 	mov.w	r2, #1
    2af0:	715a      	strb	r2, [r3, #5]
    2af2:	4b1f      	ldr	r3, [pc, #124]	; (2b70 <Schedule+0x148>)
    2af4:	681b      	ldr	r3, [r3, #0]
    2af6:	791a      	ldrb	r2, [r3, #4]
    2af8:	4b1c      	ldr	r3, [pc, #112]	; (2b6c <Schedule+0x144>)
    2afa:	681b      	ldr	r3, [r3, #0]
    2afc:	791b      	ldrb	r3, [r3, #4]
    2afe:	429a      	cmp	r2, r3
    2b00:	d10e      	bne.n	2b20 <Schedule+0xf8>
    2b02:	4b1b      	ldr	r3, [pc, #108]	; (2b70 <Schedule+0x148>)
    2b04:	681b      	ldr	r3, [r3, #0]
    2b06:	895b      	ldrh	r3, [r3, #10]
    2b08:	4618      	mov	r0, r3
    2b0a:	f04f 0100 	mov.w	r1, #0
    2b0e:	4b1d      	ldr	r3, [pc, #116]	; (2b84 <Schedule+0x15c>)
    2b10:	e9d3 2300 	ldrd	r2, r3, [r3]
    2b14:	1812      	adds	r2, r2, r0
    2b16:	eb43 0301 	adc.w	r3, r3, r1
    2b1a:	4919      	ldr	r1, [pc, #100]	; (2b80 <Schedule+0x158>)
    2b1c:	e9c1 2300 	strd	r2, r3, [r1]
    2b20:	68fb      	ldr	r3, [r7, #12]
    2b22:	681a      	ldr	r2, [r3, #0]
    2b24:	68fb      	ldr	r3, [r7, #12]
    2b26:	68db      	ldr	r3, [r3, #12]
    2b28:	429a      	cmp	r2, r3
    2b2a:	d305      	bcc.n	2b38 <Schedule+0x110>
    2b2c:	68fb      	ldr	r3, [r7, #12]
    2b2e:	68db      	ldr	r3, [r3, #12]
    2b30:	681a      	ldr	r2, [r3, #0]
    2b32:	4b15      	ldr	r3, [pc, #84]	; (2b88 <Schedule+0x160>)
    2b34:	429a      	cmp	r2, r3
    2b36:	d004      	beq.n	2b42 <Schedule+0x11a>
    2b38:	68fb      	ldr	r3, [r7, #12]
    2b3a:	799b      	ldrb	r3, [r3, #6]
    2b3c:	4618      	mov	r0, r3
    2b3e:	f004 fea3 	bl	7888 <CoStkOverflowHook>
    2b42:	f003 f947 	bl	5dd4 <SwitchContext>
    2b46:	e00a      	b.n	2b5e <Schedule+0x136>
    2b48:	bf00      	nop
    2b4a:	e008      	b.n	2b5e <Schedule+0x136>
    2b4c:	bf00      	nop
    2b4e:	e006      	b.n	2b5e <Schedule+0x136>
    2b50:	bf00      	nop
    2b52:	e004      	b.n	2b5e <Schedule+0x136>
    2b54:	bf00      	nop
    2b56:	e002      	b.n	2b5e <Schedule+0x136>
    2b58:	bf00      	nop
    2b5a:	e000      	b.n	2b5e <Schedule+0x136>
    2b5c:	bf00      	nop
    2b5e:	f107 0710 	add.w	r7, r7, #16
    2b62:	46bd      	mov	sp, r7
    2b64:	bd80      	pop	{r7, pc}
    2b66:	bf00      	nop
    2b68:	20003790 	.word	0x20003790
    2b6c:	20003788 	.word	0x20003788
    2b70:	2000378c 	.word	0x2000378c
    2b74:	20000982 	.word	0x20000982
    2b78:	20000981 	.word	0x20000981
    2b7c:	20000983 	.word	0x20000983
    2b80:	20003798 	.word	0x20003798
    2b84:	20003dc8 	.word	0x20003dc8
    2b88:	5a5aa5a5 	.word	0x5a5aa5a5

00002b8c <AssignTCB>:
    2b8c:	b580      	push	{r7, lr}
    2b8e:	b082      	sub	sp, #8
    2b90:	af00      	add	r7, sp, #0
    2b92:	4b10      	ldr	r3, [pc, #64]	; (2bd4 <AssignTCB+0x48>)
    2b94:	781b      	ldrb	r3, [r3, #0]
    2b96:	b2db      	uxtb	r3, r3
    2b98:	f103 0301 	add.w	r3, r3, #1
    2b9c:	b2da      	uxtb	r2, r3
    2b9e:	4b0d      	ldr	r3, [pc, #52]	; (2bd4 <AssignTCB+0x48>)
    2ba0:	701a      	strb	r2, [r3, #0]
    2ba2:	4b0d      	ldr	r3, [pc, #52]	; (2bd8 <AssignTCB+0x4c>)
    2ba4:	681b      	ldr	r3, [r3, #0]
    2ba6:	2b00      	cmp	r3, #0
    2ba8:	d104      	bne.n	2bb4 <AssignTCB+0x28>
    2baa:	f7fe fe7b 	bl	18a4 <OsSchedUnlock>
    2bae:	f04f 0300 	mov.w	r3, #0
    2bb2:	e00a      	b.n	2bca <AssignTCB+0x3e>
    2bb4:	4b08      	ldr	r3, [pc, #32]	; (2bd8 <AssignTCB+0x4c>)
    2bb6:	681b      	ldr	r3, [r3, #0]
    2bb8:	607b      	str	r3, [r7, #4]
    2bba:	4b07      	ldr	r3, [pc, #28]	; (2bd8 <AssignTCB+0x4c>)
    2bbc:	681b      	ldr	r3, [r3, #0]
    2bbe:	6a5a      	ldr	r2, [r3, #36]	; 0x24
    2bc0:	4b05      	ldr	r3, [pc, #20]	; (2bd8 <AssignTCB+0x4c>)
    2bc2:	601a      	str	r2, [r3, #0]
    2bc4:	f7fe fe6e 	bl	18a4 <OsSchedUnlock>
    2bc8:	687b      	ldr	r3, [r7, #4]
    2bca:	4618      	mov	r0, r3
    2bcc:	f107 0708 	add.w	r7, r7, #8
    2bd0:	46bd      	mov	sp, r7
    2bd2:	bd80      	pop	{r7, pc}
    2bd4:	20000982 	.word	0x20000982
    2bd8:	20003784 	.word	0x20003784

00002bdc <CreateTask>:
    2bdc:	b580      	push	{r7, lr}
    2bde:	b088      	sub	sp, #32
    2be0:	af00      	add	r7, sp, #0
    2be2:	60f8      	str	r0, [r7, #12]
    2be4:	60b9      	str	r1, [r7, #8]
    2be6:	607a      	str	r2, [r7, #4]
    2be8:	603b      	str	r3, [r7, #0]
    2bea:	687a      	ldr	r2, [r7, #4]
    2bec:	4b4a      	ldr	r3, [pc, #296]	; (2d18 <CreateTask+0x13c>)
    2bee:	ea02 0303 	and.w	r3, r2, r3
    2bf2:	ea4f 2313 	mov.w	r3, r3, lsr #8
    2bf6:	83bb      	strh	r3, [r7, #28]
    2bf8:	687b      	ldr	r3, [r7, #4]
    2bfa:	76fb      	strb	r3, [r7, #27]
    2bfc:	68fb      	ldr	r3, [r7, #12]
    2bfe:	2b00      	cmp	r3, #0
    2c00:	d102      	bne.n	2c08 <CreateTask+0x2c>
    2c02:	f04f 03ff 	mov.w	r3, #255	; 0xff
    2c06:	e082      	b.n	2d0e <CreateTask+0x132>
    2c08:	683b      	ldr	r3, [r7, #0]
    2c0a:	2b00      	cmp	r3, #0
    2c0c:	d102      	bne.n	2c14 <CreateTask+0x38>
    2c0e:	f04f 03ff 	mov.w	r3, #255	; 0xff
    2c12:	e07c      	b.n	2d0e <CreateTask+0x132>
    2c14:	7efb      	ldrb	r3, [r7, #27]
    2c16:	2b40      	cmp	r3, #64	; 0x40
    2c18:	d902      	bls.n	2c20 <CreateTask+0x44>
    2c1a:	f04f 03ff 	mov.w	r3, #255	; 0xff
    2c1e:	e076      	b.n	2d0e <CreateTask+0x132>
    2c20:	8bbb      	ldrh	r3, [r7, #28]
    2c22:	2b13      	cmp	r3, #19
    2c24:	d802      	bhi.n	2c2c <CreateTask+0x50>
    2c26:	f04f 03ff 	mov.w	r3, #255	; 0xff
    2c2a:	e070      	b.n	2d0e <CreateTask+0x132>
    2c2c:	68f8      	ldr	r0, [r7, #12]
    2c2e:	68b9      	ldr	r1, [r7, #8]
    2c30:	683a      	ldr	r2, [r7, #0]
    2c32:	f004 fa71 	bl	7118 <InitTaskContext>
    2c36:	6178      	str	r0, [r7, #20]
    2c38:	f7ff ffa8 	bl	2b8c <AssignTCB>
    2c3c:	6138      	str	r0, [r7, #16]
    2c3e:	693b      	ldr	r3, [r7, #16]
    2c40:	2b00      	cmp	r3, #0
    2c42:	d102      	bne.n	2c4a <CreateTask+0x6e>
    2c44:	f04f 03ff 	mov.w	r3, #255	; 0xff
    2c48:	e061      	b.n	2d0e <CreateTask+0x132>
    2c4a:	693b      	ldr	r3, [r7, #16]
    2c4c:	697a      	ldr	r2, [r7, #20]
    2c4e:	601a      	str	r2, [r3, #0]
    2c50:	693b      	ldr	r3, [r7, #16]
    2c52:	7efa      	ldrb	r2, [r7, #27]
    2c54:	711a      	strb	r2, [r3, #4]
    2c56:	8bba      	ldrh	r2, [r7, #28]
    2c58:	4613      	mov	r3, r2
    2c5a:	ea4f 7383 	mov.w	r3, r3, lsl #30
    2c5e:	1a9b      	subs	r3, r3, r2
    2c60:	ea4f 0383 	mov.w	r3, r3, lsl #2
    2c64:	f103 0304 	add.w	r3, r3, #4
    2c68:	683a      	ldr	r2, [r7, #0]
    2c6a:	18d2      	adds	r2, r2, r3
    2c6c:	693b      	ldr	r3, [r7, #16]
    2c6e:	60da      	str	r2, [r3, #12]
    2c70:	693b      	ldr	r3, [r7, #16]
    2c72:	68db      	ldr	r3, [r3, #12]
    2c74:	4a29      	ldr	r2, [pc, #164]	; (2d1c <CreateTask+0x140>)
    2c76:	601a      	str	r2, [r3, #0]
    2c78:	693b      	ldr	r3, [r7, #16]
    2c7a:	f04f 32ff 	mov.w	r2, #4294967295
    2c7e:	621a      	str	r2, [r3, #32]
    2c80:	693b      	ldr	r3, [r7, #16]
    2c82:	f04f 0200 	mov.w	r2, #0
    2c86:	625a      	str	r2, [r3, #36]	; 0x24
    2c88:	693b      	ldr	r3, [r7, #16]
    2c8a:	f04f 0200 	mov.w	r2, #0
    2c8e:	629a      	str	r2, [r3, #40]	; 0x28
    2c90:	687a      	ldr	r2, [r7, #4]
    2c92:	4b23      	ldr	r3, [pc, #140]	; (2d20 <CreateTask+0x144>)
    2c94:	ea02 0303 	and.w	r3, r2, r3
    2c98:	ea4f 5313 	mov.w	r3, r3, lsr #20
    2c9c:	83fb      	strh	r3, [r7, #30]
    2c9e:	8bfb      	ldrh	r3, [r7, #30]
    2ca0:	2b00      	cmp	r3, #0
    2ca2:	d102      	bne.n	2caa <CreateTask+0xce>
    2ca4:	f04f 030a 	mov.w	r3, #10
    2ca8:	83fb      	strh	r3, [r7, #30]
    2caa:	693b      	ldr	r3, [r7, #16]
    2cac:	8bfa      	ldrh	r2, [r7, #30]
    2cae:	815a      	strh	r2, [r3, #10]
    2cb0:	693b      	ldr	r3, [r7, #16]
    2cb2:	f04f 0200 	mov.w	r2, #0
    2cb6:	61da      	str	r2, [r3, #28]
    2cb8:	693b      	ldr	r3, [r7, #16]
    2cba:	f04f 02ff 	mov.w	r2, #255	; 0xff
    2cbe:	721a      	strb	r2, [r3, #8]
    2cc0:	693b      	ldr	r3, [r7, #16]
    2cc2:	f04f 0200 	mov.w	r2, #0
    2cc6:	611a      	str	r2, [r3, #16]
    2cc8:	693b      	ldr	r3, [r7, #16]
    2cca:	f04f 0200 	mov.w	r2, #0
    2cce:	615a      	str	r2, [r3, #20]
    2cd0:	693b      	ldr	r3, [r7, #16]
    2cd2:	f04f 0200 	mov.w	r2, #0
    2cd6:	619a      	str	r2, [r3, #24]
    2cd8:	693b      	ldr	r3, [r7, #16]
    2cda:	f04f 02ff 	mov.w	r2, #255	; 0xff
    2cde:	71da      	strb	r2, [r3, #7]
    2ce0:	687b      	ldr	r3, [r7, #4]
    2ce2:	2b00      	cmp	r3, #0
    2ce4:	db0d      	blt.n	2d02 <CreateTask+0x126>
    2ce6:	4b0f      	ldr	r3, [pc, #60]	; (2d24 <CreateTask+0x148>)
    2ce8:	781b      	ldrb	r3, [r3, #0]
    2cea:	b2db      	uxtb	r3, r3
    2cec:	f103 0301 	add.w	r3, r3, #1
    2cf0:	b2da      	uxtb	r2, r3
    2cf2:	4b0c      	ldr	r3, [pc, #48]	; (2d24 <CreateTask+0x148>)
    2cf4:	701a      	strb	r2, [r3, #0]
    2cf6:	6938      	ldr	r0, [r7, #16]
    2cf8:	f7ff fdc8 	bl	288c <InsertToTCBRdyList>
    2cfc:	f7fe fdd2 	bl	18a4 <OsSchedUnlock>
    2d00:	e003      	b.n	2d0a <CreateTask+0x12e>
    2d02:	693b      	ldr	r3, [r7, #16]
    2d04:	f04f 0202 	mov.w	r2, #2
    2d08:	715a      	strb	r2, [r3, #5]
    2d0a:	693b      	ldr	r3, [r7, #16]
    2d0c:	799b      	ldrb	r3, [r3, #6]
    2d0e:	4618      	mov	r0, r3
    2d10:	f107 0720 	add.w	r7, r7, #32
    2d14:	46bd      	mov	sp, r7
    2d16:	bd80      	pop	{r7, pc}
    2d18:	000fff00 	.word	0x000fff00
    2d1c:	5a5aa5a5 	.word	0x5a5aa5a5
    2d20:	7fff0000 	.word	0x7fff0000
    2d24:	20000982 	.word	0x20000982

00002d28 <CoGetCurTaskID>:
    2d28:	b480      	push	{r7}
    2d2a:	af00      	add	r7, sp, #0
    2d2c:	4b03      	ldr	r3, [pc, #12]	; (2d3c <CoGetCurTaskID+0x14>)
    2d2e:	681b      	ldr	r3, [r3, #0]
    2d30:	799b      	ldrb	r3, [r3, #6]
    2d32:	4618      	mov	r0, r3
    2d34:	46bd      	mov	sp, r7
    2d36:	bc80      	pop	{r7}
    2d38:	4770      	bx	lr
    2d3a:	bf00      	nop
    2d3c:	20003790 	.word	0x20003790

00002d40 <RespondSRQ>:
    2d40:	b580      	push	{r7, lr}
    2d42:	b082      	sub	sp, #8
    2d44:	af00      	add	r7, sp, #0
    2d46:	4b40      	ldr	r3, [pc, #256]	; (2e48 <RespondSRQ+0x108>)
    2d48:	781b      	ldrb	r3, [r3, #0]
    2d4a:	2b01      	cmp	r3, #1
    2d4c:	d105      	bne.n	2d5a <RespondSRQ+0x1a>
    2d4e:	f001 f9d5 	bl	40fc <TimeDispose>
    2d52:	4b3d      	ldr	r3, [pc, #244]	; (2e48 <RespondSRQ+0x108>)
    2d54:	f04f 0200 	mov.w	r2, #0
    2d58:	701a      	strb	r2, [r3, #0]
    2d5a:	4b3c      	ldr	r3, [pc, #240]	; (2e4c <RespondSRQ+0x10c>)
    2d5c:	781b      	ldrb	r3, [r3, #0]
    2d5e:	2b01      	cmp	r3, #1
    2d60:	d15a      	bne.n	2e18 <RespondSRQ+0xd8>
    2d62:	f7ff f8cb 	bl	1efc <TmrDispose>
    2d66:	4b39      	ldr	r3, [pc, #228]	; (2e4c <RespondSRQ+0x10c>)
    2d68:	f04f 0200 	mov.w	r2, #0
    2d6c:	701a      	strb	r2, [r3, #0]
    2d6e:	e056      	b.n	2e1e <RespondSRQ+0xde>
    2d70:	f003 f824 	bl	5dbc <IRQ_DISABLE_SAVE>
    2d74:	4b36      	ldr	r3, [pc, #216]	; (2e50 <RespondSRQ+0x110>)
    2d76:	785b      	ldrb	r3, [r3, #1]
    2d78:	4a35      	ldr	r2, [pc, #212]	; (2e50 <RespondSRQ+0x110>)
    2d7a:	ea4f 03c3 	mov.w	r3, r3, lsl #3
    2d7e:	18d3      	adds	r3, r2, r3
    2d80:	463a      	mov	r2, r7
    2d82:	f103 0304 	add.w	r3, r3, #4
    2d86:	e893 0003 	ldmia.w	r3, {r0, r1}
    2d8a:	e882 0003 	stmia.w	r2, {r0, r1}
    2d8e:	4b30      	ldr	r3, [pc, #192]	; (2e50 <RespondSRQ+0x110>)
    2d90:	785b      	ldrb	r3, [r3, #1]
    2d92:	f103 0101 	add.w	r1, r3, #1
    2d96:	4b2f      	ldr	r3, [pc, #188]	; (2e54 <RespondSRQ+0x114>)
    2d98:	fb83 2301 	smull	r2, r3, r3, r1
    2d9c:	ea4f 0263 	mov.w	r2, r3, asr #1
    2da0:	ea4f 73e1 	mov.w	r3, r1, asr #31
    2da4:	1ad2      	subs	r2, r2, r3
    2da6:	4613      	mov	r3, r2
    2da8:	ea4f 0383 	mov.w	r3, r3, lsl #2
    2dac:	189b      	adds	r3, r3, r2
    2dae:	1aca      	subs	r2, r1, r3
    2db0:	b2d2      	uxtb	r2, r2
    2db2:	4b27      	ldr	r3, [pc, #156]	; (2e50 <RespondSRQ+0x110>)
    2db4:	705a      	strb	r2, [r3, #1]
    2db6:	4b26      	ldr	r3, [pc, #152]	; (2e50 <RespondSRQ+0x110>)
    2db8:	781b      	ldrb	r3, [r3, #0]
    2dba:	f103 33ff 	add.w	r3, r3, #4294967295
    2dbe:	b2da      	uxtb	r2, r3
    2dc0:	4b23      	ldr	r3, [pc, #140]	; (2e50 <RespondSRQ+0x110>)
    2dc2:	701a      	strb	r2, [r3, #0]
    2dc4:	f002 fff4 	bl	5db0 <IRQ_ENABLE_RESTORE>
    2dc8:	783b      	ldrb	r3, [r7, #0]
    2dca:	f103 33ff 	add.w	r3, r3, #4294967295
    2dce:	2b03      	cmp	r3, #3
    2dd0:	d824      	bhi.n	2e1c <RespondSRQ+0xdc>
    2dd2:	a201      	add	r2, pc, #4	; (adr r2, 2dd8 <RespondSRQ+0x98>)
    2dd4:	f852 f023 	ldr.w	pc, [r2, r3, lsl #2]
    2dd8:	00002de9 	.word	0x00002de9
    2ddc:	00002df3 	.word	0x00002df3
    2de0:	00002e01 	.word	0x00002e01
    2de4:	00002e0b 	.word	0x00002e0b
    2de8:	787b      	ldrb	r3, [r7, #1]
    2dea:	4618      	mov	r0, r3
    2dec:	f004 fd02 	bl	77f4 <CoPostSem>
    2df0:	e015      	b.n	2e1e <RespondSRQ+0xde>
    2df2:	787a      	ldrb	r2, [r7, #1]
    2df4:	687b      	ldr	r3, [r7, #4]
    2df6:	4610      	mov	r0, r2
    2df8:	4619      	mov	r1, r3
    2dfa:	f000 fbaf 	bl	355c <CoPostMail>
    2dfe:	e00e      	b.n	2e1e <RespondSRQ+0xde>
    2e00:	787b      	ldrb	r3, [r7, #1]
    2e02:	4618      	mov	r0, r3
    2e04:	f003 fa92 	bl	632c <CoSetFlag>
    2e08:	e009      	b.n	2e1e <RespondSRQ+0xde>
    2e0a:	787a      	ldrb	r2, [r7, #1]
    2e0c:	687b      	ldr	r3, [r7, #4]
    2e0e:	4610      	mov	r0, r2
    2e10:	4619      	mov	r1, r3
    2e12:	f003 fa29 	bl	6268 <CoPostQueueMail>
    2e16:	e002      	b.n	2e1e <RespondSRQ+0xde>
    2e18:	bf00      	nop
    2e1a:	e000      	b.n	2e1e <RespondSRQ+0xde>
    2e1c:	bf00      	nop
    2e1e:	4b0c      	ldr	r3, [pc, #48]	; (2e50 <RespondSRQ+0x110>)
    2e20:	781b      	ldrb	r3, [r3, #0]
    2e22:	2b00      	cmp	r3, #0
    2e24:	d1a4      	bne.n	2d70 <RespondSRQ+0x30>
    2e26:	f002 ffc9 	bl	5dbc <IRQ_DISABLE_SAVE>
    2e2a:	4b09      	ldr	r3, [pc, #36]	; (2e50 <RespondSRQ+0x110>)
    2e2c:	781b      	ldrb	r3, [r3, #0]
    2e2e:	2b00      	cmp	r3, #0
    2e30:	d103      	bne.n	2e3a <RespondSRQ+0xfa>
    2e32:	4b09      	ldr	r3, [pc, #36]	; (2e58 <RespondSRQ+0x118>)
    2e34:	f04f 0200 	mov.w	r2, #0
    2e38:	701a      	strb	r2, [r3, #0]
    2e3a:	f002 ffb9 	bl	5db0 <IRQ_ENABLE_RESTORE>
    2e3e:	f107 0708 	add.w	r7, r7, #8
    2e42:	46bd      	mov	sp, r7
    2e44:	bd80      	pop	{r7, pc}
    2e46:	bf00      	nop
    2e48:	200037cd 	.word	0x200037cd
    2e4c:	200037ce 	.word	0x200037ce
    2e50:	200037a0 	.word	0x200037a0
    2e54:	66666667 	.word	0x66666667
    2e58:	200037cc 	.word	0x200037cc

00002e5c <sys_timeout>:
    2e5c:	b580      	push	{r7, lr}
    2e5e:	b08a      	sub	sp, #40	; 0x28
    2e60:	af02      	add	r7, sp, #8
    2e62:	60f8      	str	r0, [r7, #12]
    2e64:	60b9      	str	r1, [r7, #8]
    2e66:	607a      	str	r2, [r7, #4]
    2e68:	f04f 000a 	mov.w	r0, #10
    2e6c:	f7ff f9a0 	bl	21b0 <memp_malloc>
    2e70:	4603      	mov	r3, r0
    2e72:	61bb      	str	r3, [r7, #24]
    2e74:	69bb      	ldr	r3, [r7, #24]
    2e76:	2b00      	cmp	r3, #0
    2e78:	d06c      	beq.n	2f54 <sys_timeout+0xf8>
    2e7a:	69bb      	ldr	r3, [r7, #24]
    2e7c:	f04f 0200 	mov.w	r2, #0
    2e80:	601a      	str	r2, [r3, #0]
    2e82:	68ba      	ldr	r2, [r7, #8]
    2e84:	69bb      	ldr	r3, [r7, #24]
    2e86:	609a      	str	r2, [r3, #8]
    2e88:	69bb      	ldr	r3, [r7, #24]
    2e8a:	687a      	ldr	r2, [r7, #4]
    2e8c:	60da      	str	r2, [r3, #12]
    2e8e:	69bb      	ldr	r3, [r7, #24]
    2e90:	68fa      	ldr	r2, [r7, #12]
    2e92:	605a      	str	r2, [r3, #4]
    2e94:	f002 fc9a 	bl	57cc <sys_arch_timeouts>
    2e98:	6178      	str	r0, [r7, #20]
    2e9a:	f107 0308 	add.w	r3, r7, #8
    2e9e:	681b      	ldr	r3, [r3, #0]
    2ea0:	687a      	ldr	r2, [r7, #4]
    2ea2:	9200      	str	r2, [sp, #0]
    2ea4:	482f      	ldr	r0, [pc, #188]	; (2f64 <sys_timeout+0x108>)
    2ea6:	69b9      	ldr	r1, [r7, #24]
    2ea8:	68fa      	ldr	r2, [r7, #12]
    2eaa:	f002 fd27 	bl	58fc <DebugPrintf>
    2eae:	697b      	ldr	r3, [r7, #20]
    2eb0:	2b00      	cmp	r3, #0
    2eb2:	d051      	beq.n	2f58 <sys_timeout+0xfc>
    2eb4:	697b      	ldr	r3, [r7, #20]
    2eb6:	681b      	ldr	r3, [r3, #0]
    2eb8:	2b00      	cmp	r3, #0
    2eba:	d103      	bne.n	2ec4 <sys_timeout+0x68>
    2ebc:	697b      	ldr	r3, [r7, #20]
    2ebe:	69ba      	ldr	r2, [r7, #24]
    2ec0:	601a      	str	r2, [r3, #0]
    2ec2:	e04a      	b.n	2f5a <sys_timeout+0xfe>
    2ec4:	697b      	ldr	r3, [r7, #20]
    2ec6:	681b      	ldr	r3, [r3, #0]
    2ec8:	685a      	ldr	r2, [r3, #4]
    2eca:	68fb      	ldr	r3, [r7, #12]
    2ecc:	429a      	cmp	r2, r3
    2ece:	d90f      	bls.n	2ef0 <sys_timeout+0x94>
    2ed0:	697b      	ldr	r3, [r7, #20]
    2ed2:	681b      	ldr	r3, [r3, #0]
    2ed4:	697a      	ldr	r2, [r7, #20]
    2ed6:	6812      	ldr	r2, [r2, #0]
    2ed8:	6851      	ldr	r1, [r2, #4]
    2eda:	68fa      	ldr	r2, [r7, #12]
    2edc:	1a8a      	subs	r2, r1, r2
    2ede:	605a      	str	r2, [r3, #4]
    2ee0:	697b      	ldr	r3, [r7, #20]
    2ee2:	681a      	ldr	r2, [r3, #0]
    2ee4:	69bb      	ldr	r3, [r7, #24]
    2ee6:	601a      	str	r2, [r3, #0]
    2ee8:	697b      	ldr	r3, [r7, #20]
    2eea:	69ba      	ldr	r2, [r7, #24]
    2eec:	601a      	str	r2, [r3, #0]
    2eee:	e034      	b.n	2f5a <sys_timeout+0xfe>
    2ef0:	697b      	ldr	r3, [r7, #20]
    2ef2:	681b      	ldr	r3, [r3, #0]
    2ef4:	61fb      	str	r3, [r7, #28]
    2ef6:	e029      	b.n	2f4c <sys_timeout+0xf0>
    2ef8:	69bb      	ldr	r3, [r7, #24]
    2efa:	685a      	ldr	r2, [r3, #4]
    2efc:	69fb      	ldr	r3, [r7, #28]
    2efe:	685b      	ldr	r3, [r3, #4]
    2f00:	1ad2      	subs	r2, r2, r3
    2f02:	69bb      	ldr	r3, [r7, #24]
    2f04:	605a      	str	r2, [r3, #4]
    2f06:	69fb      	ldr	r3, [r7, #28]
    2f08:	681b      	ldr	r3, [r3, #0]
    2f0a:	2b00      	cmp	r3, #0
    2f0c:	d006      	beq.n	2f1c <sys_timeout+0xc0>
    2f0e:	69fb      	ldr	r3, [r7, #28]
    2f10:	681b      	ldr	r3, [r3, #0]
    2f12:	685a      	ldr	r2, [r3, #4]
    2f14:	69bb      	ldr	r3, [r7, #24]
    2f16:	685b      	ldr	r3, [r3, #4]
    2f18:	429a      	cmp	r2, r3
    2f1a:	d914      	bls.n	2f46 <sys_timeout+0xea>
    2f1c:	69fb      	ldr	r3, [r7, #28]
    2f1e:	681b      	ldr	r3, [r3, #0]
    2f20:	2b00      	cmp	r3, #0
    2f22:	d008      	beq.n	2f36 <sys_timeout+0xda>
    2f24:	69fb      	ldr	r3, [r7, #28]
    2f26:	681b      	ldr	r3, [r3, #0]
    2f28:	69fa      	ldr	r2, [r7, #28]
    2f2a:	6812      	ldr	r2, [r2, #0]
    2f2c:	6851      	ldr	r1, [r2, #4]
    2f2e:	69ba      	ldr	r2, [r7, #24]
    2f30:	6852      	ldr	r2, [r2, #4]
    2f32:	1a8a      	subs	r2, r1, r2
    2f34:	605a      	str	r2, [r3, #4]
    2f36:	69fb      	ldr	r3, [r7, #28]
    2f38:	681a      	ldr	r2, [r3, #0]
    2f3a:	69bb      	ldr	r3, [r7, #24]
    2f3c:	601a      	str	r2, [r3, #0]
    2f3e:	69fb      	ldr	r3, [r7, #28]
    2f40:	69ba      	ldr	r2, [r7, #24]
    2f42:	601a      	str	r2, [r3, #0]
    2f44:	e009      	b.n	2f5a <sys_timeout+0xfe>
    2f46:	69fb      	ldr	r3, [r7, #28]
    2f48:	681b      	ldr	r3, [r3, #0]
    2f4a:	61fb      	str	r3, [r7, #28]
    2f4c:	69fb      	ldr	r3, [r7, #28]
    2f4e:	2b00      	cmp	r3, #0
    2f50:	d1d2      	bne.n	2ef8 <sys_timeout+0x9c>
    2f52:	e002      	b.n	2f5a <sys_timeout+0xfe>
    2f54:	bf00      	nop
    2f56:	e000      	b.n	2f5a <sys_timeout+0xfe>
    2f58:	bf00      	nop
    2f5a:	f107 0720 	add.w	r7, r7, #32
    2f5e:	46bd      	mov	sp, r7
    2f60:	bd80      	pop	{r7, pc}
    2f62:	bf00      	nop
    2f64:	000098ec 	.word	0x000098ec

00002f68 <lwip_standard_chksum>:
    2f68:	b580      	push	{r7, lr}
    2f6a:	b086      	sub	sp, #24
    2f6c:	af00      	add	r7, sp, #0
    2f6e:	6078      	str	r0, [r7, #4]
    2f70:	460b      	mov	r3, r1
    2f72:	807b      	strh	r3, [r7, #2]
    2f74:	f04f 0300 	mov.w	r3, #0
    2f78:	617b      	str	r3, [r7, #20]
    2f7a:	687b      	ldr	r3, [r7, #4]
    2f7c:	613b      	str	r3, [r7, #16]
    2f7e:	e01b      	b.n	2fb8 <lwip_standard_chksum+0x50>
    2f80:	693b      	ldr	r3, [r7, #16]
    2f82:	781b      	ldrb	r3, [r3, #0]
    2f84:	ea4f 2303 	mov.w	r3, r3, lsl #8
    2f88:	81fb      	strh	r3, [r7, #14]
    2f8a:	693b      	ldr	r3, [r7, #16]
    2f8c:	f103 0301 	add.w	r3, r3, #1
    2f90:	613b      	str	r3, [r7, #16]
    2f92:	693b      	ldr	r3, [r7, #16]
    2f94:	781b      	ldrb	r3, [r3, #0]
    2f96:	461a      	mov	r2, r3
    2f98:	89fb      	ldrh	r3, [r7, #14]
    2f9a:	ea42 0303 	orr.w	r3, r2, r3
    2f9e:	81fb      	strh	r3, [r7, #14]
    2fa0:	693b      	ldr	r3, [r7, #16]
    2fa2:	f103 0301 	add.w	r3, r3, #1
    2fa6:	613b      	str	r3, [r7, #16]
    2fa8:	89fb      	ldrh	r3, [r7, #14]
    2faa:	697a      	ldr	r2, [r7, #20]
    2fac:	18d3      	adds	r3, r2, r3
    2fae:	617b      	str	r3, [r7, #20]
    2fb0:	887b      	ldrh	r3, [r7, #2]
    2fb2:	f1a3 0302 	sub.w	r3, r3, #2
    2fb6:	807b      	strh	r3, [r7, #2]
    2fb8:	887b      	ldrh	r3, [r7, #2]
    2fba:	2b01      	cmp	r3, #1
    2fbc:	d8e0      	bhi.n	2f80 <lwip_standard_chksum+0x18>
    2fbe:	887b      	ldrh	r3, [r7, #2]
    2fc0:	2b00      	cmp	r3, #0
    2fc2:	d008      	beq.n	2fd6 <lwip_standard_chksum+0x6e>
    2fc4:	693b      	ldr	r3, [r7, #16]
    2fc6:	781b      	ldrb	r3, [r3, #0]
    2fc8:	ea4f 2303 	mov.w	r3, r3, lsl #8
    2fcc:	81fb      	strh	r3, [r7, #14]
    2fce:	89fb      	ldrh	r3, [r7, #14]
    2fd0:	697a      	ldr	r2, [r7, #20]
    2fd2:	18d3      	adds	r3, r2, r3
    2fd4:	617b      	str	r3, [r7, #20]
    2fd6:	697b      	ldr	r3, [r7, #20]
    2fd8:	ea4f 4213 	mov.w	r2, r3, lsr #16
    2fdc:	697b      	ldr	r3, [r7, #20]
    2fde:	ea4f 4303 	mov.w	r3, r3, lsl #16
    2fe2:	ea4f 4313 	mov.w	r3, r3, lsr #16
    2fe6:	18d3      	adds	r3, r2, r3
    2fe8:	617b      	str	r3, [r7, #20]
    2fea:	697b      	ldr	r3, [r7, #20]
    2fec:	ea4f 4313 	mov.w	r3, r3, lsr #16
    2ff0:	ea4f 4303 	mov.w	r3, r3, lsl #16
    2ff4:	2b00      	cmp	r3, #0
    2ff6:	d009      	beq.n	300c <lwip_standard_chksum+0xa4>
    2ff8:	697b      	ldr	r3, [r7, #20]
    2ffa:	ea4f 4213 	mov.w	r2, r3, lsr #16
    2ffe:	697b      	ldr	r3, [r7, #20]
    3000:	ea4f 4303 	mov.w	r3, r3, lsl #16
    3004:	ea4f 4313 	mov.w	r3, r3, lsr #16
    3008:	18d3      	adds	r3, r2, r3
    300a:	617b      	str	r3, [r7, #20]
    300c:	697b      	ldr	r3, [r7, #20]
    300e:	b29b      	uxth	r3, r3
    3010:	4618      	mov	r0, r3
    3012:	f000 ff29 	bl	3e68 <htons>
    3016:	4603      	mov	r3, r0
    3018:	4618      	mov	r0, r3
    301a:	f107 0718 	add.w	r7, r7, #24
    301e:	46bd      	mov	sp, r7
    3020:	bd80      	pop	{r7, pc}
    3022:	bf00      	nop

00003024 <inet_chksum_pseudo>:
    3024:	b580      	push	{r7, lr}
    3026:	b088      	sub	sp, #32
    3028:	af00      	add	r7, sp, #0
    302a:	60f8      	str	r0, [r7, #12]
    302c:	60b9      	str	r1, [r7, #8]
    302e:	607a      	str	r2, [r7, #4]
    3030:	70fb      	strb	r3, [r7, #3]
    3032:	f04f 0300 	mov.w	r3, #0
    3036:	61fb      	str	r3, [r7, #28]
    3038:	f04f 0300 	mov.w	r3, #0
    303c:	75fb      	strb	r3, [r7, #23]
    303e:	68fb      	ldr	r3, [r7, #12]
    3040:	61bb      	str	r3, [r7, #24]
    3042:	e038      	b.n	30b6 <inet_chksum_pseudo+0x92>
    3044:	69bb      	ldr	r3, [r7, #24]
    3046:	681b      	ldr	r3, [r3, #0]
    3048:	484e      	ldr	r0, [pc, #312]	; (3184 <inet_chksum_pseudo+0x160>)
    304a:	69b9      	ldr	r1, [r7, #24]
    304c:	461a      	mov	r2, r3
    304e:	f002 fc55 	bl	58fc <DebugPrintf>
    3052:	69bb      	ldr	r3, [r7, #24]
    3054:	685a      	ldr	r2, [r3, #4]
    3056:	69bb      	ldr	r3, [r7, #24]
    3058:	895b      	ldrh	r3, [r3, #10]
    305a:	4610      	mov	r0, r2
    305c:	4619      	mov	r1, r3
    305e:	f7ff ff83 	bl	2f68 <lwip_standard_chksum>
    3062:	4603      	mov	r3, r0
    3064:	69fa      	ldr	r2, [r7, #28]
    3066:	18d3      	adds	r3, r2, r3
    3068:	61fb      	str	r3, [r7, #28]
    306a:	69fb      	ldr	r3, [r7, #28]
    306c:	ea4f 4213 	mov.w	r2, r3, lsr #16
    3070:	69fb      	ldr	r3, [r7, #28]
    3072:	ea4f 4303 	mov.w	r3, r3, lsl #16
    3076:	ea4f 4313 	mov.w	r3, r3, lsr #16
    307a:	18d3      	adds	r3, r2, r3
    307c:	61fb      	str	r3, [r7, #28]
    307e:	69bb      	ldr	r3, [r7, #24]
    3080:	895b      	ldrh	r3, [r3, #10]
    3082:	f003 0301 	and.w	r3, r3, #1
    3086:	b2db      	uxtb	r3, r3
    3088:	2b00      	cmp	r3, #0
    308a:	d011      	beq.n	30b0 <inet_chksum_pseudo+0x8c>
    308c:	7dfb      	ldrb	r3, [r7, #23]
    308e:	f1c3 0301 	rsb	r3, r3, #1
    3092:	75fb      	strb	r3, [r7, #23]
    3094:	69fb      	ldr	r3, [r7, #28]
    3096:	ea4f 2303 	mov.w	r3, r3, lsl #8
    309a:	ea4f 4303 	mov.w	r3, r3, lsl #16
    309e:	ea4f 4313 	mov.w	r3, r3, lsr #16
    30a2:	69fa      	ldr	r2, [r7, #28]
    30a4:	f402 427f 	and.w	r2, r2, #65280	; 0xff00
    30a8:	ea4f 2212 	mov.w	r2, r2, lsr #8
    30ac:	4313      	orrs	r3, r2
    30ae:	61fb      	str	r3, [r7, #28]
    30b0:	69bb      	ldr	r3, [r7, #24]
    30b2:	681b      	ldr	r3, [r3, #0]
    30b4:	61bb      	str	r3, [r7, #24]
    30b6:	69bb      	ldr	r3, [r7, #24]
    30b8:	2b00      	cmp	r3, #0
    30ba:	d1c3      	bne.n	3044 <inet_chksum_pseudo+0x20>
    30bc:	7dfb      	ldrb	r3, [r7, #23]
    30be:	2b00      	cmp	r3, #0
    30c0:	d00d      	beq.n	30de <inet_chksum_pseudo+0xba>
    30c2:	69fb      	ldr	r3, [r7, #28]
    30c4:	ea4f 2303 	mov.w	r3, r3, lsl #8
    30c8:	ea4f 4303 	mov.w	r3, r3, lsl #16
    30cc:	ea4f 4313 	mov.w	r3, r3, lsr #16
    30d0:	69fa      	ldr	r2, [r7, #28]
    30d2:	f402 427f 	and.w	r2, r2, #65280	; 0xff00
    30d6:	ea4f 2212 	mov.w	r2, r2, lsr #8
    30da:	4313      	orrs	r3, r2
    30dc:	61fb      	str	r3, [r7, #28]
    30de:	68bb      	ldr	r3, [r7, #8]
    30e0:	681b      	ldr	r3, [r3, #0]
    30e2:	ea4f 4303 	mov.w	r3, r3, lsl #16
    30e6:	ea4f 4313 	mov.w	r3, r3, lsr #16
    30ea:	69fa      	ldr	r2, [r7, #28]
    30ec:	18d3      	adds	r3, r2, r3
    30ee:	61fb      	str	r3, [r7, #28]
    30f0:	68bb      	ldr	r3, [r7, #8]
    30f2:	681b      	ldr	r3, [r3, #0]
    30f4:	ea4f 4313 	mov.w	r3, r3, lsr #16
    30f8:	69fa      	ldr	r2, [r7, #28]
    30fa:	18d3      	adds	r3, r2, r3
    30fc:	61fb      	str	r3, [r7, #28]
    30fe:	687b      	ldr	r3, [r7, #4]
    3100:	681b      	ldr	r3, [r3, #0]
    3102:	ea4f 4303 	mov.w	r3, r3, lsl #16
    3106:	ea4f 4313 	mov.w	r3, r3, lsr #16
    310a:	69fa      	ldr	r2, [r7, #28]
    310c:	18d3      	adds	r3, r2, r3
    310e:	61fb      	str	r3, [r7, #28]
    3110:	687b      	ldr	r3, [r7, #4]
    3112:	681b      	ldr	r3, [r3, #0]
    3114:	ea4f 4313 	mov.w	r3, r3, lsr #16
    3118:	69fa      	ldr	r2, [r7, #28]
    311a:	18d3      	adds	r3, r2, r3
    311c:	61fb      	str	r3, [r7, #28]
    311e:	78fb      	ldrb	r3, [r7, #3]
    3120:	b29b      	uxth	r3, r3
    3122:	4618      	mov	r0, r3
    3124:	f000 fea0 	bl	3e68 <htons>
    3128:	4603      	mov	r3, r0
    312a:	69fa      	ldr	r2, [r7, #28]
    312c:	18d3      	adds	r3, r2, r3
    312e:	61fb      	str	r3, [r7, #28]
    3130:	8d3b      	ldrh	r3, [r7, #40]	; 0x28
    3132:	4618      	mov	r0, r3
    3134:	f000 fe98 	bl	3e68 <htons>
    3138:	4603      	mov	r3, r0
    313a:	69fa      	ldr	r2, [r7, #28]
    313c:	18d3      	adds	r3, r2, r3
    313e:	61fb      	str	r3, [r7, #28]
    3140:	69fb      	ldr	r3, [r7, #28]
    3142:	ea4f 4213 	mov.w	r2, r3, lsr #16
    3146:	69fb      	ldr	r3, [r7, #28]
    3148:	ea4f 4303 	mov.w	r3, r3, lsl #16
    314c:	ea4f 4313 	mov.w	r3, r3, lsr #16
    3150:	18d3      	adds	r3, r2, r3
    3152:	61fb      	str	r3, [r7, #28]
    3154:	69fb      	ldr	r3, [r7, #28]
    3156:	ea4f 4213 	mov.w	r2, r3, lsr #16
    315a:	69fb      	ldr	r3, [r7, #28]
    315c:	ea4f 4303 	mov.w	r3, r3, lsl #16
    3160:	ea4f 4313 	mov.w	r3, r3, lsr #16
    3164:	18d3      	adds	r3, r2, r3
    3166:	61fb      	str	r3, [r7, #28]
    3168:	4807      	ldr	r0, [pc, #28]	; (3188 <inet_chksum_pseudo+0x164>)
    316a:	69f9      	ldr	r1, [r7, #28]
    316c:	f002 fbc6 	bl	58fc <DebugPrintf>
    3170:	69fb      	ldr	r3, [r7, #28]
    3172:	b29b      	uxth	r3, r3
    3174:	ea6f 0303 	mvn.w	r3, r3
    3178:	b29b      	uxth	r3, r3
    317a:	4618      	mov	r0, r3
    317c:	f107 0720 	add.w	r7, r7, #32
    3180:	46bd      	mov	sp, r7
    3182:	bd80      	pop	{r7, pc}
    3184:	00009914 	.word	0x00009914
    3188:	00009950 	.word	0x00009950

0000318c <inet_chksum>:
    318c:	b580      	push	{r7, lr}
    318e:	b082      	sub	sp, #8
    3190:	af00      	add	r7, sp, #0
    3192:	6078      	str	r0, [r7, #4]
    3194:	460b      	mov	r3, r1
    3196:	807b      	strh	r3, [r7, #2]
    3198:	887b      	ldrh	r3, [r7, #2]
    319a:	6878      	ldr	r0, [r7, #4]
    319c:	4619      	mov	r1, r3
    319e:	f7ff fee3 	bl	2f68 <lwip_standard_chksum>
    31a2:	4603      	mov	r3, r0
    31a4:	ea6f 0303 	mvn.w	r3, r3
    31a8:	b29b      	uxth	r3, r3
    31aa:	4618      	mov	r0, r3
    31ac:	f107 0708 	add.w	r7, r7, #8
    31b0:	46bd      	mov	sp, r7
    31b2:	bd80      	pop	{r7, pc}

000031b4 <cli_init>:
    31b4:	b480      	push	{r7}
    31b6:	af00      	add	r7, sp, #0
    31b8:	46bd      	mov	sp, r7
    31ba:	bc80      	pop	{r7}
    31bc:	4770      	bx	lr
    31be:	bf00      	nop

000031c0 <ip_init>:
    31c0:	b480      	push	{r7}
    31c2:	af00      	add	r7, sp, #0
    31c4:	46bd      	mov	sp, r7
    31c6:	bc80      	pop	{r7}
    31c8:	4770      	bx	lr
    31ca:	bf00      	nop

000031cc <main>:
    31cc:	b580      	push	{r7, lr}
    31ce:	af00      	add	r7, sp, #0
    31d0:	f7fe feec 	bl	1fac <SystemInit>
    31d4:	f004 fa24 	bl	7620 <serial_init>
    31d8:	f7fe fba2 	bl	1920 <CoInitOS>
    31dc:	f7ff ffea 	bl	31b4 <cli_init>
    31e0:	f7ff ffee 	bl	31c0 <ip_init>
    31e4:	f000 f922 	bl	342c <http_init>
    31e8:	f7fe fbdc 	bl	19a4 <CoStartOS>
    31ec:	e7fe      	b.n	31ec <main+0x20>
    31ee:	bf00      	nop

000031f0 <NVIC_EnableIRQ>:
    31f0:	b480      	push	{r7}
    31f2:	b083      	sub	sp, #12
    31f4:	af00      	add	r7, sp, #0
    31f6:	4603      	mov	r3, r0
    31f8:	71fb      	strb	r3, [r7, #7]
    31fa:	4b09      	ldr	r3, [pc, #36]	; (3220 <NVIC_EnableIRQ+0x30>)
    31fc:	f997 2007 	ldrsb.w	r2, [r7, #7]
    3200:	ea4f 1252 	mov.w	r2, r2, lsr #5
    3204:	79f9      	ldrb	r1, [r7, #7]
    3206:	f001 011f 	and.w	r1, r1, #31
    320a:	f04f 0001 	mov.w	r0, #1
    320e:	fa00 f101 	lsl.w	r1, r0, r1
    3212:	f843 1022 	str.w	r1, [r3, r2, lsl #2]
    3216:	f107 070c 	add.w	r7, r7, #12
    321a:	46bd      	mov	sp, r7
    321c:	bc80      	pop	{r7}
    321e:	4770      	bx	lr
    3220:	e000e100 	.word	0xe000e100

00003224 <BulkOut>:
    3224:	b580      	push	{r7, lr}
    3226:	b084      	sub	sp, #16
    3228:	af00      	add	r7, sp, #0
    322a:	4602      	mov	r2, r0
    322c:	460b      	mov	r3, r1
    322e:	71fa      	strb	r2, [r7, #7]
    3230:	71bb      	strb	r3, [r7, #6]
    3232:	4816      	ldr	r0, [pc, #88]	; (328c <BulkOut+0x68>)
    3234:	f7fe fcb8 	bl	1ba8 <_fifo_free>
    3238:	4603      	mov	r3, r0
    323a:	2b3f      	cmp	r3, #63	; 0x3f
    323c:	dd1f      	ble.n	327e <BulkOut+0x5a>
    323e:	79fb      	ldrb	r3, [r7, #7]
    3240:	4618      	mov	r0, r3
    3242:	4913      	ldr	r1, [pc, #76]	; (3290 <BulkOut+0x6c>)
    3244:	f04f 0240 	mov.w	r2, #64	; 0x40
    3248:	f003 fb84 	bl	6954 <USBHwEPRead>
    324c:	60b8      	str	r0, [r7, #8]
    324e:	f04f 0300 	mov.w	r3, #0
    3252:	60fb      	str	r3, [r7, #12]
    3254:	e00e      	b.n	3274 <BulkOut+0x50>
    3256:	4a0e      	ldr	r2, [pc, #56]	; (3290 <BulkOut+0x6c>)
    3258:	68fb      	ldr	r3, [r7, #12]
    325a:	18d3      	adds	r3, r2, r3
    325c:	781b      	ldrb	r3, [r3, #0]
    325e:	480b      	ldr	r0, [pc, #44]	; (328c <BulkOut+0x68>)
    3260:	4619      	mov	r1, r3
    3262:	f7fe fc07 	bl	1a74 <_fifo_put>
    3266:	4603      	mov	r3, r0
    3268:	2b00      	cmp	r3, #0
    326a:	d00a      	beq.n	3282 <BulkOut+0x5e>
    326c:	68fb      	ldr	r3, [r7, #12]
    326e:	f103 0301 	add.w	r3, r3, #1
    3272:	60fb      	str	r3, [r7, #12]
    3274:	68fa      	ldr	r2, [r7, #12]
    3276:	68bb      	ldr	r3, [r7, #8]
    3278:	429a      	cmp	r2, r3
    327a:	dbec      	blt.n	3256 <BulkOut+0x32>
    327c:	e002      	b.n	3284 <BulkOut+0x60>
    327e:	bf00      	nop
    3280:	e000      	b.n	3284 <BulkOut+0x60>
    3282:	bf00      	nop
    3284:	f107 0710 	add.w	r7, r7, #16
    3288:	46bd      	mov	sp, r7
    328a:	bd80      	pop	{r7, pc}
    328c:	20003df0 	.word	0x20003df0
    3290:	200039d0 	.word	0x200039d0

00003294 <BulkIn>:
    3294:	b580      	push	{r7, lr}
    3296:	b084      	sub	sp, #16
    3298:	af00      	add	r7, sp, #0
    329a:	4602      	mov	r2, r0
    329c:	460b      	mov	r3, r1
    329e:	71fa      	strb	r2, [r7, #7]
    32a0:	71bb      	strb	r3, [r7, #6]
    32a2:	4818      	ldr	r0, [pc, #96]	; (3304 <BulkIn+0x70>)
    32a4:	f7fe fc62 	bl	1b6c <_fifo_avail>
    32a8:	4603      	mov	r3, r0
    32aa:	2b00      	cmp	r3, #0
    32ac:	d104      	bne.n	32b8 <BulkIn+0x24>
    32ae:	f04f 0000 	mov.w	r0, #0
    32b2:	f003 faa3 	bl	67fc <USBHwNakIntEnable>
    32b6:	e021      	b.n	32fc <BulkIn+0x68>
    32b8:	f04f 0300 	mov.w	r3, #0
    32bc:	60fb      	str	r3, [r7, #12]
    32be:	e00d      	b.n	32dc <BulkIn+0x48>
    32c0:	68fa      	ldr	r2, [r7, #12]
    32c2:	4b11      	ldr	r3, [pc, #68]	; (3308 <BulkIn+0x74>)
    32c4:	18d3      	adds	r3, r2, r3
    32c6:	480f      	ldr	r0, [pc, #60]	; (3304 <BulkIn+0x70>)
    32c8:	4619      	mov	r1, r3
    32ca:	f7fe fc05 	bl	1ad8 <_fifo_get>
    32ce:	4603      	mov	r3, r0
    32d0:	2b00      	cmp	r3, #0
    32d2:	d007      	beq.n	32e4 <BulkIn+0x50>
    32d4:	68fb      	ldr	r3, [r7, #12]
    32d6:	f103 0301 	add.w	r3, r3, #1
    32da:	60fb      	str	r3, [r7, #12]
    32dc:	68fb      	ldr	r3, [r7, #12]
    32de:	2b3f      	cmp	r3, #63	; 0x3f
    32e0:	ddee      	ble.n	32c0 <BulkIn+0x2c>
    32e2:	e000      	b.n	32e6 <BulkIn+0x52>
    32e4:	bf00      	nop
    32e6:	68fb      	ldr	r3, [r7, #12]
    32e8:	60bb      	str	r3, [r7, #8]
    32ea:	68bb      	ldr	r3, [r7, #8]
    32ec:	2b00      	cmp	r3, #0
    32ee:	dd05      	ble.n	32fc <BulkIn+0x68>
    32f0:	79fb      	ldrb	r3, [r7, #7]
    32f2:	4618      	mov	r0, r3
    32f4:	4904      	ldr	r1, [pc, #16]	; (3308 <BulkIn+0x74>)
    32f6:	68ba      	ldr	r2, [r7, #8]
    32f8:	f003 fad2 	bl	68a0 <USBHwEPWrite>
    32fc:	f107 0710 	add.w	r7, r7, #16
    3300:	46bd      	mov	sp, r7
    3302:	bd80      	pop	{r7, pc}
    3304:	20003dfc 	.word	0x20003dfc
    3308:	200039d0 	.word	0x200039d0

0000330c <HandleClassRequest>:
    330c:	b580      	push	{r7, lr}
    330e:	b084      	sub	sp, #16
    3310:	af00      	add	r7, sp, #0
    3312:	60f8      	str	r0, [r7, #12]
    3314:	60b9      	str	r1, [r7, #8]
    3316:	607a      	str	r2, [r7, #4]
    3318:	68fb      	ldr	r3, [r7, #12]
    331a:	785b      	ldrb	r3, [r3, #1]
    331c:	2b21      	cmp	r3, #33	; 0x21
    331e:	d010      	beq.n	3342 <HandleClassRequest+0x36>
    3320:	2b22      	cmp	r3, #34	; 0x22
    3322:	d019      	beq.n	3358 <HandleClassRequest+0x4c>
    3324:	2b20      	cmp	r3, #32
    3326:	d114      	bne.n	3352 <HandleClassRequest+0x46>
    3328:	687b      	ldr	r3, [r7, #4]
    332a:	681b      	ldr	r3, [r3, #0]
    332c:	480e      	ldr	r0, [pc, #56]	; (3368 <HandleClassRequest+0x5c>)
    332e:	4619      	mov	r1, r3
    3330:	f04f 0207 	mov.w	r2, #7
    3334:	f005 fda2 	bl	8e7c <memcpy>
    3338:	68bb      	ldr	r3, [r7, #8]
    333a:	f04f 0207 	mov.w	r2, #7
    333e:	601a      	str	r2, [r3, #0]
    3340:	e00b      	b.n	335a <HandleClassRequest+0x4e>
    3342:	4a09      	ldr	r2, [pc, #36]	; (3368 <HandleClassRequest+0x5c>)
    3344:	687b      	ldr	r3, [r7, #4]
    3346:	601a      	str	r2, [r3, #0]
    3348:	68bb      	ldr	r3, [r7, #8]
    334a:	f04f 0207 	mov.w	r2, #7
    334e:	601a      	str	r2, [r3, #0]
    3350:	e003      	b.n	335a <HandleClassRequest+0x4e>
    3352:	f04f 0300 	mov.w	r3, #0
    3356:	e002      	b.n	335e <HandleClassRequest+0x52>
    3358:	bf00      	nop
    335a:	f04f 0301 	mov.w	r3, #1
    335e:	4618      	mov	r0, r3
    3360:	f107 0710 	add.w	r7, r7, #16
    3364:	46bd      	mov	sp, r7
    3366:	bd80      	pop	{r7, pc}
    3368:	2000006c 	.word	0x2000006c

0000336c <USBFrameHandler>:
    336c:	b580      	push	{r7, lr}
    336e:	b082      	sub	sp, #8
    3370:	af00      	add	r7, sp, #0
    3372:	4603      	mov	r3, r0
    3374:	80fb      	strh	r3, [r7, #6]
    3376:	4807      	ldr	r0, [pc, #28]	; (3394 <USBFrameHandler+0x28>)
    3378:	f7fe fbf8 	bl	1b6c <_fifo_avail>
    337c:	4603      	mov	r3, r0
    337e:	2b00      	cmp	r3, #0
    3380:	dd03      	ble.n	338a <USBFrameHandler+0x1e>
    3382:	f04f 0020 	mov.w	r0, #32
    3386:	f003 fa39 	bl	67fc <USBHwNakIntEnable>
    338a:	f107 0708 	add.w	r7, r7, #8
    338e:	46bd      	mov	sp, r7
    3390:	bd80      	pop	{r7, pc}
    3392:	bf00      	nop
    3394:	20003dfc 	.word	0x20003dfc

00003398 <USBSerial_Init>:
    3398:	b580      	push	{r7, lr}
    339a:	af00      	add	r7, sp, #0
    339c:	f7fc fe5a 	bl	54 <USBInit>
    33a0:	4818      	ldr	r0, [pc, #96]	; (3404 <USBSerial_Init+0x6c>)
    33a2:	f002 fab3 	bl	590c <USBRegisterDescriptors>
    33a6:	f04f 0001 	mov.w	r0, #1
    33aa:	4917      	ldr	r1, [pc, #92]	; (3408 <USBSerial_Init+0x70>)
    33ac:	4a17      	ldr	r2, [pc, #92]	; (340c <USBSerial_Init+0x74>)
    33ae:	f7ff f909 	bl	25c4 <USBRegisterRequestHandler>
    33b2:	f04f 0081 	mov.w	r0, #129	; 0x81
    33b6:	f04f 0100 	mov.w	r1, #0
    33ba:	f003 f98d 	bl	66d8 <USBHwRegisterEPIntHandler>
    33be:	f04f 0082 	mov.w	r0, #130	; 0x82
    33c2:	4913      	ldr	r1, [pc, #76]	; (3410 <USBSerial_Init+0x78>)
    33c4:	f003 f988 	bl	66d8 <USBHwRegisterEPIntHandler>
    33c8:	f04f 0005 	mov.w	r0, #5
    33cc:	4911      	ldr	r1, [pc, #68]	; (3414 <USBSerial_Init+0x7c>)
    33ce:	f003 f983 	bl	66d8 <USBHwRegisterEPIntHandler>
    33d2:	4811      	ldr	r0, [pc, #68]	; (3418 <USBSerial_Init+0x80>)
    33d4:	f003 f9d4 	bl	6780 <USBHwRegisterFrameHandler>
    33d8:	f04f 0020 	mov.w	r0, #32
    33dc:	f003 fa0e 	bl	67fc <USBHwNakIntEnable>
    33e0:	480e      	ldr	r0, [pc, #56]	; (341c <USBSerial_Init+0x84>)
    33e2:	490f      	ldr	r1, [pc, #60]	; (3420 <USBSerial_Init+0x88>)
    33e4:	f7fe fb30 	bl	1a48 <fifo_init>
    33e8:	480e      	ldr	r0, [pc, #56]	; (3424 <USBSerial_Init+0x8c>)
    33ea:	490f      	ldr	r1, [pc, #60]	; (3428 <USBSerial_Init+0x90>)
    33ec:	f7fe fb2c 	bl	1a48 <fifo_init>
    33f0:	f04f 0018 	mov.w	r0, #24
    33f4:	f7ff fefc 	bl	31f0 <NVIC_EnableIRQ>
    33f8:	f04f 0001 	mov.w	r0, #1
    33fc:	f003 f9ea 	bl	67d4 <USBHwConnect>
    3400:	bd80      	pop	{r7, pc}
    3402:	bf00      	nop
    3404:	00009984 	.word	0x00009984
    3408:	0000330d 	.word	0x0000330d
    340c:	20003a10 	.word	0x20003a10
    3410:	00003295 	.word	0x00003295
    3414:	00003225 	.word	0x00003225
    3418:	0000336d 	.word	0x0000336d
    341c:	20003df0 	.word	0x20003df0
    3420:	200038d0 	.word	0x200038d0
    3424:	20003dfc 	.word	0x20003dfc
    3428:	200037d0 	.word	0x200037d0

0000342c <http_init>:
    342c:	b580      	push	{r7, lr}
    342e:	b084      	sub	sp, #16
    3430:	af02      	add	r7, sp, #8
    3432:	4b0d      	ldr	r3, [pc, #52]	; (3468 <http_init+0x3c>)
    3434:	f04f 0205 	mov.w	r2, #5
    3438:	9200      	str	r2, [sp, #0]
    343a:	f04f 0000 	mov.w	r0, #0
    343e:	490b      	ldr	r1, [pc, #44]	; (346c <http_init+0x40>)
    3440:	461a      	mov	r2, r3
    3442:	f04f 03c8 	mov.w	r3, #200	; 0xc8
    3446:	f002 fa09 	bl	585c <sys_thread_new>
    344a:	4603      	mov	r3, r0
    344c:	71fb      	strb	r3, [r7, #7]
    344e:	79fb      	ldrb	r3, [r7, #7]
    3450:	2bff      	cmp	r3, #255	; 0xff
    3452:	d102      	bne.n	345a <http_init+0x2e>
    3454:	f04f 0301 	mov.w	r3, #1
    3458:	e001      	b.n	345e <http_init+0x32>
    345a:	f04f 0300 	mov.w	r3, #0
    345e:	4618      	mov	r0, r3
    3460:	f107 0708 	add.w	r7, r7, #8
    3464:	46bd      	mov	sp, r7
    3466:	bd80      	pop	{r7, pc}
    3468:	20004124 	.word	0x20004124
    346c:	00003515 	.word	0x00003515

00003470 <http_server_serve>:
    3470:	b580      	push	{r7, lr}
    3472:	b086      	sub	sp, #24
    3474:	af00      	add	r7, sp, #0
    3476:	6078      	str	r0, [r7, #4]
    3478:	6878      	ldr	r0, [r7, #4]
    347a:	f003 ffa1 	bl	73c0 <netconn_recv>
    347e:	6178      	str	r0, [r7, #20]
    3480:	687b      	ldr	r3, [r7, #4]
    3482:	7a1b      	ldrb	r3, [r3, #8]
    3484:	2b00      	cmp	r3, #0
    3486:	d137      	bne.n	34f8 <http_server_serve+0x88>
    3488:	f107 0210 	add.w	r2, r7, #16
    348c:	f107 030e 	add.w	r3, r7, #14
    3490:	6978      	ldr	r0, [r7, #20]
    3492:	4611      	mov	r1, r2
    3494:	461a      	mov	r2, r3
    3496:	f7ff f8d1 	bl	263c <netbuf_data>
    349a:	89fb      	ldrh	r3, [r7, #14]
    349c:	2b04      	cmp	r3, #4
    349e:	d92b      	bls.n	34f8 <http_server_serve+0x88>
    34a0:	693b      	ldr	r3, [r7, #16]
    34a2:	781b      	ldrb	r3, [r3, #0]
    34a4:	2b47      	cmp	r3, #71	; 0x47
    34a6:	d127      	bne.n	34f8 <http_server_serve+0x88>
    34a8:	693b      	ldr	r3, [r7, #16]
    34aa:	f103 0301 	add.w	r3, r3, #1
    34ae:	781b      	ldrb	r3, [r3, #0]
    34b0:	2b45      	cmp	r3, #69	; 0x45
    34b2:	d121      	bne.n	34f8 <http_server_serve+0x88>
    34b4:	693b      	ldr	r3, [r7, #16]
    34b6:	f103 0302 	add.w	r3, r3, #2
    34ba:	781b      	ldrb	r3, [r3, #0]
    34bc:	2b54      	cmp	r3, #84	; 0x54
    34be:	d11b      	bne.n	34f8 <http_server_serve+0x88>
    34c0:	693b      	ldr	r3, [r7, #16]
    34c2:	f103 0303 	add.w	r3, r3, #3
    34c6:	781b      	ldrb	r3, [r3, #0]
    34c8:	2b20      	cmp	r3, #32
    34ca:	d115      	bne.n	34f8 <http_server_serve+0x88>
    34cc:	693b      	ldr	r3, [r7, #16]
    34ce:	f103 0304 	add.w	r3, r3, #4
    34d2:	781b      	ldrb	r3, [r3, #0]
    34d4:	2b2f      	cmp	r3, #47	; 0x2f
    34d6:	d10f      	bne.n	34f8 <http_server_serve+0x88>
    34d8:	6878      	ldr	r0, [r7, #4]
    34da:	490c      	ldr	r1, [pc, #48]	; (350c <http_server_serve+0x9c>)
    34dc:	f04f 022c 	mov.w	r2, #44	; 0x2c
    34e0:	f04f 0300 	mov.w	r3, #0
    34e4:	f004 f850 	bl	7588 <netconn_write>
    34e8:	6878      	ldr	r0, [r7, #4]
    34ea:	4909      	ldr	r1, [pc, #36]	; (3510 <http_server_serve+0xa0>)
    34ec:	f04f 028a 	mov.w	r2, #138	; 0x8a
    34f0:	f04f 0300 	mov.w	r3, #0
    34f4:	f004 f848 	bl	7588 <netconn_write>
    34f8:	6878      	ldr	r0, [r7, #4]
    34fa:	f004 f873 	bl	75e4 <netconn_close>
    34fe:	6978      	ldr	r0, [r7, #20]
    3500:	f7ff f87a 	bl	25f8 <netbuf_delete>
    3504:	f107 0718 	add.w	r7, r7, #24
    3508:	46bd      	mov	sp, r7
    350a:	bd80      	pop	{r7, pc}
    350c:	00009a2c 	.word	0x00009a2c
    3510:	00009a5c 	.word	0x00009a5c

00003514 <http_server>:
    3514:	b580      	push	{r7, lr}
    3516:	b084      	sub	sp, #16
    3518:	af00      	add	r7, sp, #0
    351a:	6078      	str	r0, [r7, #4]
    351c:	f04f 0010 	mov.w	r0, #16
    3520:	f04f 0100 	mov.w	r1, #0
    3524:	f04f 0200 	mov.w	r2, #0
    3528:	f003 fe7a 	bl	7220 <netconn_new_with_proto_and_callback>
    352c:	60f8      	str	r0, [r7, #12]
    352e:	68f8      	ldr	r0, [r7, #12]
    3530:	f04f 0100 	mov.w	r1, #0
    3534:	f04f 0250 	mov.w	r2, #80	; 0x50
    3538:	f003 fed0 	bl	72dc <netconn_bind>
    353c:	68f8      	ldr	r0, [r7, #12]
    353e:	f04f 01ff 	mov.w	r1, #255	; 0xff
    3542:	f003 feef 	bl	7324 <netconn_listen_with_backlog>
    3546:	68f8      	ldr	r0, [r7, #12]
    3548:	f003 ff0c 	bl	7364 <netconn_accept>
    354c:	60b8      	str	r0, [r7, #8]
    354e:	68b8      	ldr	r0, [r7, #8]
    3550:	f7ff ff8e 	bl	3470 <http_server_serve>
    3554:	68b8      	ldr	r0, [r7, #8]
    3556:	f003 fe9d 	bl	7294 <netconn_delete>
    355a:	e7f4      	b.n	3546 <http_server+0x32>

0000355c <CoPostMail>:
    355c:	b580      	push	{r7, lr}
    355e:	b084      	sub	sp, #16
    3560:	af00      	add	r7, sp, #0
    3562:	4603      	mov	r3, r0
    3564:	6039      	str	r1, [r7, #0]
    3566:	71fb      	strb	r3, [r7, #7]
    3568:	79fb      	ldrb	r3, [r7, #7]
    356a:	2b13      	cmp	r3, #19
    356c:	d902      	bls.n	3574 <CoPostMail+0x18>
    356e:	f04f 0301 	mov.w	r3, #1
    3572:	e02c      	b.n	35ce <CoPostMail+0x72>
    3574:	79fb      	ldrb	r3, [r7, #7]
    3576:	ea4f 1203 	mov.w	r2, r3, lsl #4
    357a:	4b17      	ldr	r3, [pc, #92]	; (35d8 <CoPostMail+0x7c>)
    357c:	18d3      	adds	r3, r2, r3
    357e:	60fb      	str	r3, [r7, #12]
    3580:	68fb      	ldr	r3, [r7, #12]
    3582:	795b      	ldrb	r3, [r3, #5]
    3584:	f003 030f 	and.w	r3, r3, #15
    3588:	b2db      	uxtb	r3, r3
    358a:	2b02      	cmp	r3, #2
    358c:	d002      	beq.n	3594 <CoPostMail+0x38>
    358e:	f04f 0301 	mov.w	r3, #1
    3592:	e01c      	b.n	35ce <CoPostMail+0x72>
    3594:	68fb      	ldr	r3, [r7, #12]
    3596:	88db      	ldrh	r3, [r3, #6]
    3598:	2b00      	cmp	r3, #0
    359a:	d116      	bne.n	35ca <CoPostMail+0x6e>
    359c:	4b0f      	ldr	r3, [pc, #60]	; (35dc <CoPostMail+0x80>)
    359e:	781b      	ldrb	r3, [r3, #0]
    35a0:	b2db      	uxtb	r3, r3
    35a2:	f103 0301 	add.w	r3, r3, #1
    35a6:	b2da      	uxtb	r2, r3
    35a8:	4b0c      	ldr	r3, [pc, #48]	; (35dc <CoPostMail+0x80>)
    35aa:	701a      	strb	r2, [r3, #0]
    35ac:	68fb      	ldr	r3, [r7, #12]
    35ae:	683a      	ldr	r2, [r7, #0]
    35b0:	601a      	str	r2, [r3, #0]
    35b2:	68fb      	ldr	r3, [r7, #12]
    35b4:	f04f 0201 	mov.w	r2, #1
    35b8:	80da      	strh	r2, [r3, #6]
    35ba:	68f8      	ldr	r0, [r7, #12]
    35bc:	f001 fe6a 	bl	5294 <EventTaskToRdy>
    35c0:	f7fe f970 	bl	18a4 <OsSchedUnlock>
    35c4:	f04f 0300 	mov.w	r3, #0
    35c8:	e001      	b.n	35ce <CoPostMail+0x72>
    35ca:	f04f 0307 	mov.w	r3, #7
    35ce:	4618      	mov	r0, r3
    35d0:	f107 0710 	add.w	r7, r7, #16
    35d4:	46bd      	mov	sp, r7
    35d6:	bd80      	pop	{r7, pc}
    35d8:	20003a44 	.word	0x20003a44
    35dc:	20000982 	.word	0x20000982

000035e0 <CoGetMemoryBuffer>:
    35e0:	b580      	push	{r7, lr}
    35e2:	b084      	sub	sp, #16
    35e4:	af00      	add	r7, sp, #0
    35e6:	4603      	mov	r3, r0
    35e8:	71fb      	strb	r3, [r7, #7]
    35ea:	79fb      	ldrb	r3, [r7, #7]
    35ec:	2b01      	cmp	r3, #1
    35ee:	d902      	bls.n	35f6 <CoGetMemoryBuffer+0x16>
    35f0:	f04f 0300 	mov.w	r3, #0
    35f4:	e030      	b.n	3658 <CoGetMemoryBuffer+0x78>
    35f6:	79fb      	ldrb	r3, [r7, #7]
    35f8:	f04f 0201 	mov.w	r2, #1
    35fc:	fa02 f303 	lsl.w	r3, r2, r3
    3600:	461a      	mov	r2, r3
    3602:	4b18      	ldr	r3, [pc, #96]	; (3664 <CoGetMemoryBuffer+0x84>)
    3604:	681b      	ldr	r3, [r3, #0]
    3606:	ea02 0303 	and.w	r3, r2, r3
    360a:	2b00      	cmp	r3, #0
    360c:	d102      	bne.n	3614 <CoGetMemoryBuffer+0x34>
    360e:	f04f 0300 	mov.w	r3, #0
    3612:	e021      	b.n	3658 <CoGetMemoryBuffer+0x78>
    3614:	79fb      	ldrb	r3, [r7, #7]
    3616:	ea4f 1203 	mov.w	r2, r3, lsl #4
    361a:	4b13      	ldr	r3, [pc, #76]	; (3668 <CoGetMemoryBuffer+0x88>)
    361c:	18d3      	adds	r3, r2, r3
    361e:	60fb      	str	r3, [r7, #12]
    3620:	4b12      	ldr	r3, [pc, #72]	; (366c <CoGetMemoryBuffer+0x8c>)
    3622:	781b      	ldrb	r3, [r3, #0]
    3624:	b2db      	uxtb	r3, r3
    3626:	f103 0301 	add.w	r3, r3, #1
    362a:	b2da      	uxtb	r2, r3
    362c:	4b0f      	ldr	r3, [pc, #60]	; (366c <CoGetMemoryBuffer+0x8c>)
    362e:	701a      	strb	r2, [r3, #0]
    3630:	68fb      	ldr	r3, [r7, #12]
    3632:	685b      	ldr	r3, [r3, #4]
    3634:	2b00      	cmp	r3, #0
    3636:	d104      	bne.n	3642 <CoGetMemoryBuffer+0x62>
    3638:	f7fe f934 	bl	18a4 <OsSchedUnlock>
    363c:	f04f 0300 	mov.w	r3, #0
    3640:	e00a      	b.n	3658 <CoGetMemoryBuffer+0x78>
    3642:	68fb      	ldr	r3, [r7, #12]
    3644:	685b      	ldr	r3, [r3, #4]
    3646:	60bb      	str	r3, [r7, #8]
    3648:	68bb      	ldr	r3, [r7, #8]
    364a:	681b      	ldr	r3, [r3, #0]
    364c:	461a      	mov	r2, r3
    364e:	68fb      	ldr	r3, [r7, #12]
    3650:	605a      	str	r2, [r3, #4]
    3652:	f7fe f927 	bl	18a4 <OsSchedUnlock>
    3656:	68bb      	ldr	r3, [r7, #8]
    3658:	4618      	mov	r0, r3
    365a:	f107 0710 	add.w	r7, r7, #16
    365e:	46bd      	mov	sp, r7
    3660:	bd80      	pop	{r7, pc}
    3662:	bf00      	nop
    3664:	20003a38 	.word	0x20003a38
    3668:	20003a18 	.word	0x20003a18
    366c:	20000982 	.word	0x20000982

00003670 <CoFreeMemoryBuffer>:
    3670:	b580      	push	{r7, lr}
    3672:	b084      	sub	sp, #16
    3674:	af00      	add	r7, sp, #0
    3676:	4603      	mov	r3, r0
    3678:	6039      	str	r1, [r7, #0]
    367a:	71fb      	strb	r3, [r7, #7]
    367c:	79fb      	ldrb	r3, [r7, #7]
    367e:	2b01      	cmp	r3, #1
    3680:	d902      	bls.n	3688 <CoFreeMemoryBuffer+0x18>
    3682:	f04f 0301 	mov.w	r3, #1
    3686:	e057      	b.n	3738 <CoFreeMemoryBuffer+0xc8>
    3688:	79fb      	ldrb	r3, [r7, #7]
    368a:	f04f 0201 	mov.w	r2, #1
    368e:	fa02 f303 	lsl.w	r3, r2, r3
    3692:	461a      	mov	r2, r3
    3694:	4b2b      	ldr	r3, [pc, #172]	; (3744 <CoFreeMemoryBuffer+0xd4>)
    3696:	681b      	ldr	r3, [r3, #0]
    3698:	ea02 0303 	and.w	r3, r2, r3
    369c:	2b00      	cmp	r3, #0
    369e:	d102      	bne.n	36a6 <CoFreeMemoryBuffer+0x36>
    36a0:	f04f 0301 	mov.w	r3, #1
    36a4:	e048      	b.n	3738 <CoFreeMemoryBuffer+0xc8>
    36a6:	683b      	ldr	r3, [r7, #0]
    36a8:	2b00      	cmp	r3, #0
    36aa:	d102      	bne.n	36b2 <CoFreeMemoryBuffer+0x42>
    36ac:	f04f 0302 	mov.w	r3, #2
    36b0:	e042      	b.n	3738 <CoFreeMemoryBuffer+0xc8>
    36b2:	79fb      	ldrb	r3, [r7, #7]
    36b4:	ea4f 1203 	mov.w	r2, r3, lsl #4
    36b8:	4b23      	ldr	r3, [pc, #140]	; (3748 <CoFreeMemoryBuffer+0xd8>)
    36ba:	18d3      	adds	r3, r2, r3
    36bc:	60fb      	str	r3, [r7, #12]
    36be:	683a      	ldr	r2, [r7, #0]
    36c0:	68fb      	ldr	r3, [r7, #12]
    36c2:	681b      	ldr	r3, [r3, #0]
    36c4:	429a      	cmp	r2, r3
    36c6:	d202      	bcs.n	36ce <CoFreeMemoryBuffer+0x5e>
    36c8:	f04f 0302 	mov.w	r3, #2
    36cc:	e034      	b.n	3738 <CoFreeMemoryBuffer+0xc8>
    36ce:	683a      	ldr	r2, [r7, #0]
    36d0:	68fb      	ldr	r3, [r7, #12]
    36d2:	6819      	ldr	r1, [r3, #0]
    36d4:	68fb      	ldr	r3, [r7, #12]
    36d6:	689b      	ldr	r3, [r3, #8]
    36d8:	68f8      	ldr	r0, [r7, #12]
    36da:	68c0      	ldr	r0, [r0, #12]
    36dc:	fb00 f303 	mul.w	r3, r0, r3
    36e0:	18cb      	adds	r3, r1, r3
    36e2:	429a      	cmp	r2, r3
    36e4:	d902      	bls.n	36ec <CoFreeMemoryBuffer+0x7c>
    36e6:	f04f 0302 	mov.w	r3, #2
    36ea:	e025      	b.n	3738 <CoFreeMemoryBuffer+0xc8>
    36ec:	683a      	ldr	r2, [r7, #0]
    36ee:	68fb      	ldr	r3, [r7, #12]
    36f0:	681b      	ldr	r3, [r3, #0]
    36f2:	1ad3      	subs	r3, r2, r3
    36f4:	68fa      	ldr	r2, [r7, #12]
    36f6:	6892      	ldr	r2, [r2, #8]
    36f8:	fbb3 f1f2 	udiv	r1, r3, r2
    36fc:	fb02 f201 	mul.w	r2, r2, r1
    3700:	1a9b      	subs	r3, r3, r2
    3702:	2b00      	cmp	r3, #0
    3704:	d002      	beq.n	370c <CoFreeMemoryBuffer+0x9c>
    3706:	f04f 0302 	mov.w	r3, #2
    370a:	e015      	b.n	3738 <CoFreeMemoryBuffer+0xc8>
    370c:	683b      	ldr	r3, [r7, #0]
    370e:	60bb      	str	r3, [r7, #8]
    3710:	4b0e      	ldr	r3, [pc, #56]	; (374c <CoFreeMemoryBuffer+0xdc>)
    3712:	781b      	ldrb	r3, [r3, #0]
    3714:	b2db      	uxtb	r3, r3
    3716:	f103 0301 	add.w	r3, r3, #1
    371a:	b2da      	uxtb	r2, r3
    371c:	4b0b      	ldr	r3, [pc, #44]	; (374c <CoFreeMemoryBuffer+0xdc>)
    371e:	701a      	strb	r2, [r3, #0]
    3720:	68fb      	ldr	r3, [r7, #12]
    3722:	685b      	ldr	r3, [r3, #4]
    3724:	461a      	mov	r2, r3
    3726:	68bb      	ldr	r3, [r7, #8]
    3728:	601a      	str	r2, [r3, #0]
    372a:	683a      	ldr	r2, [r7, #0]
    372c:	68fb      	ldr	r3, [r7, #12]
    372e:	605a      	str	r2, [r3, #4]
    3730:	f7fe f8b8 	bl	18a4 <OsSchedUnlock>
    3734:	f04f 0300 	mov.w	r3, #0
    3738:	4618      	mov	r0, r3
    373a:	f107 0710 	add.w	r7, r7, #16
    373e:	46bd      	mov	sp, r7
    3740:	bd80      	pop	{r7, pc}
    3742:	bf00      	nop
    3744:	20003a38 	.word	0x20003a38
    3748:	20003a18 	.word	0x20003a18
    374c:	20000982 	.word	0x20000982

00003750 <pbuf_free_ooseq>:
    3750:	b580      	push	{r7, lr}
    3752:	b084      	sub	sp, #16
    3754:	af00      	add	r7, sp, #0
    3756:	6078      	str	r0, [r7, #4]
    3758:	f002 f8be 	bl	58d8 <sys_arch_protect>
    375c:	60b8      	str	r0, [r7, #8]
    375e:	4b13      	ldr	r3, [pc, #76]	; (37ac <pbuf_free_ooseq+0x5c>)
    3760:	f04f 0200 	mov.w	r2, #0
    3764:	701a      	strb	r2, [r3, #0]
    3766:	68b8      	ldr	r0, [r7, #8]
    3768:	f002 f8be 	bl	58e8 <sys_arch_unprotect>
    376c:	4b10      	ldr	r3, [pc, #64]	; (37b0 <pbuf_free_ooseq+0x60>)
    376e:	681b      	ldr	r3, [r3, #0]
    3770:	60fb      	str	r3, [r7, #12]
    3772:	e013      	b.n	379c <pbuf_free_ooseq+0x4c>
    3774:	68fb      	ldr	r3, [r7, #12]
    3776:	6fdb      	ldr	r3, [r3, #124]	; 0x7c
    3778:	2b00      	cmp	r3, #0
    377a:	d00c      	beq.n	3796 <pbuf_free_ooseq+0x46>
    377c:	480d      	ldr	r0, [pc, #52]	; (37b4 <pbuf_free_ooseq+0x64>)
    377e:	f002 f8bd 	bl	58fc <DebugPrintf>
    3782:	68fb      	ldr	r3, [r7, #12]
    3784:	6fdb      	ldr	r3, [r3, #124]	; 0x7c
    3786:	4618      	mov	r0, r3
    3788:	f7fd fd6a 	bl	1260 <tcp_segs_free>
    378c:	68fb      	ldr	r3, [r7, #12]
    378e:	f04f 0200 	mov.w	r2, #0
    3792:	67da      	str	r2, [r3, #124]	; 0x7c
    3794:	e005      	b.n	37a2 <pbuf_free_ooseq+0x52>
    3796:	68fb      	ldr	r3, [r7, #12]
    3798:	68db      	ldr	r3, [r3, #12]
    379a:	60fb      	str	r3, [r7, #12]
    379c:	68fb      	ldr	r3, [r7, #12]
    379e:	2b00      	cmp	r3, #0
    37a0:	d1e8      	bne.n	3774 <pbuf_free_ooseq+0x24>
    37a2:	f107 0710 	add.w	r7, r7, #16
    37a6:	46bd      	mov	sp, r7
    37a8:	bd80      	pop	{r7, pc}
    37aa:	bf00      	nop
    37ac:	20003a3c 	.word	0x20003a3c
    37b0:	20003dd4 	.word	0x20003dd4
    37b4:	00009ae8 	.word	0x00009ae8

000037b8 <pbuf_pool_is_empty>:
    37b8:	b580      	push	{r7, lr}
    37ba:	b082      	sub	sp, #8
    37bc:	af00      	add	r7, sp, #0
    37be:	f002 f88b 	bl	58d8 <sys_arch_protect>
    37c2:	6078      	str	r0, [r7, #4]
    37c4:	4b12      	ldr	r3, [pc, #72]	; (3810 <pbuf_pool_is_empty+0x58>)
    37c6:	781b      	ldrb	r3, [r3, #0]
    37c8:	70fb      	strb	r3, [r7, #3]
    37ca:	4b11      	ldr	r3, [pc, #68]	; (3810 <pbuf_pool_is_empty+0x58>)
    37cc:	f04f 0201 	mov.w	r2, #1
    37d0:	701a      	strb	r2, [r3, #0]
    37d2:	6878      	ldr	r0, [r7, #4]
    37d4:	f002 f888 	bl	58e8 <sys_arch_unprotect>
    37d8:	78fb      	ldrb	r3, [r7, #3]
    37da:	2b00      	cmp	r3, #0
    37dc:	d113      	bne.n	3806 <pbuf_pool_is_empty+0x4e>
    37de:	480d      	ldr	r0, [pc, #52]	; (3814 <pbuf_pool_is_empty+0x5c>)
    37e0:	f04f 0100 	mov.w	r1, #0
    37e4:	f04f 0200 	mov.w	r2, #0
    37e8:	f7fe ffa2 	bl	2730 <tcpip_callback_with_block>
    37ec:	4603      	mov	r3, r0
    37ee:	2b00      	cmp	r3, #0
    37f0:	d009      	beq.n	3806 <pbuf_pool_is_empty+0x4e>
    37f2:	f002 f871 	bl	58d8 <sys_arch_protect>
    37f6:	6078      	str	r0, [r7, #4]
    37f8:	4b05      	ldr	r3, [pc, #20]	; (3810 <pbuf_pool_is_empty+0x58>)
    37fa:	f04f 0200 	mov.w	r2, #0
    37fe:	701a      	strb	r2, [r3, #0]
    3800:	6878      	ldr	r0, [r7, #4]
    3802:	f002 f871 	bl	58e8 <sys_arch_unprotect>
    3806:	f107 0708 	add.w	r7, r7, #8
    380a:	46bd      	mov	sp, r7
    380c:	bd80      	pop	{r7, pc}
    380e:	bf00      	nop
    3810:	20003a3c 	.word	0x20003a3c
    3814:	00003751 	.word	0x00003751

00003818 <pbuf_alloc>:
    3818:	b580      	push	{r7, lr}
    381a:	b088      	sub	sp, #32
    381c:	af00      	add	r7, sp, #0
    381e:	4613      	mov	r3, r2
    3820:	4602      	mov	r2, r0
    3822:	71fa      	strb	r2, [r7, #7]
    3824:	460a      	mov	r2, r1
    3826:	80ba      	strh	r2, [r7, #4]
    3828:	70fb      	strb	r3, [r7, #3]
    382a:	88bb      	ldrh	r3, [r7, #4]
    382c:	488d      	ldr	r0, [pc, #564]	; (3a64 <pbuf_alloc+0x24c>)
    382e:	4619      	mov	r1, r3
    3830:	f002 f864 	bl	58fc <DebugPrintf>
    3834:	f04f 0300 	mov.w	r3, #0
    3838:	82fb      	strh	r3, [r7, #22]
    383a:	79fb      	ldrb	r3, [r7, #7]
    383c:	2b03      	cmp	r3, #3
    383e:	d818      	bhi.n	3872 <pbuf_alloc+0x5a>
    3840:	a201      	add	r2, pc, #4	; (adr r2, 3848 <pbuf_alloc+0x30>)
    3842:	f852 f023 	ldr.w	pc, [r2, r3, lsl #2]
    3846:	bf00      	nop
    3848:	00003859 	.word	0x00003859
    384c:	00003861 	.word	0x00003861
    3850:	00003869 	.word	0x00003869
    3854:	00003879 	.word	0x00003879
    3858:	8afb      	ldrh	r3, [r7, #22]
    385a:	f103 0314 	add.w	r3, r3, #20
    385e:	82fb      	strh	r3, [r7, #22]
    3860:	8afb      	ldrh	r3, [r7, #22]
    3862:	f103 0314 	add.w	r3, r3, #20
    3866:	82fb      	strh	r3, [r7, #22]
    3868:	8afb      	ldrh	r3, [r7, #22]
    386a:	f103 0310 	add.w	r3, r3, #16
    386e:	82fb      	strh	r3, [r7, #22]
    3870:	e003      	b.n	387a <pbuf_alloc+0x62>
    3872:	f04f 0300 	mov.w	r3, #0
    3876:	e10e      	b.n	3a96 <pbuf_alloc+0x27e>
    3878:	bf00      	nop
    387a:	78fb      	ldrb	r3, [r7, #3]
    387c:	2b03      	cmp	r3, #3
    387e:	f200 80ee 	bhi.w	3a5e <pbuf_alloc+0x246>
    3882:	a201      	add	r2, pc, #4	; (adr r2, 3888 <pbuf_alloc+0x70>)
    3884:	f852 f023 	ldr.w	pc, [r2, r3, lsl #2]
    3888:	000039a1 	.word	0x000039a1
    388c:	00003a0d 	.word	0x00003a0d
    3890:	00003a0d 	.word	0x00003a0d
    3894:	00003899 	.word	0x00003899
    3898:	f04f 000c 	mov.w	r0, #12
    389c:	f7fe fc88 	bl	21b0 <memp_malloc>
    38a0:	4603      	mov	r3, r0
    38a2:	61fb      	str	r3, [r7, #28]
    38a4:	4870      	ldr	r0, [pc, #448]	; (3a68 <pbuf_alloc+0x250>)
    38a6:	69f9      	ldr	r1, [r7, #28]
    38a8:	f002 f828 	bl	58fc <DebugPrintf>
    38ac:	69fb      	ldr	r3, [r7, #28]
    38ae:	2b00      	cmp	r3, #0
    38b0:	d104      	bne.n	38bc <pbuf_alloc+0xa4>
    38b2:	f7ff ff81 	bl	37b8 <pbuf_pool_is_empty>
    38b6:	f04f 0300 	mov.w	r3, #0
    38ba:	e0ec      	b.n	3a96 <pbuf_alloc+0x27e>
    38bc:	69fb      	ldr	r3, [r7, #28]
    38be:	78fa      	ldrb	r2, [r7, #3]
    38c0:	731a      	strb	r2, [r3, #12]
    38c2:	69fb      	ldr	r3, [r7, #28]
    38c4:	f04f 0200 	mov.w	r2, #0
    38c8:	601a      	str	r2, [r3, #0]
    38ca:	8afb      	ldrh	r3, [r7, #22]
    38cc:	f103 0310 	add.w	r3, r3, #16
    38d0:	69fa      	ldr	r2, [r7, #28]
    38d2:	18d3      	adds	r3, r2, r3
    38d4:	f103 0303 	add.w	r3, r3, #3
    38d8:	f023 0303 	bic.w	r3, r3, #3
    38dc:	461a      	mov	r2, r3
    38de:	69fb      	ldr	r3, [r7, #28]
    38e0:	605a      	str	r2, [r3, #4]
    38e2:	69fb      	ldr	r3, [r7, #28]
    38e4:	88ba      	ldrh	r2, [r7, #4]
    38e6:	811a      	strh	r2, [r3, #8]
    38e8:	8afb      	ldrh	r3, [r7, #22]
    38ea:	f103 0303 	add.w	r3, r3, #3
    38ee:	f023 0303 	bic.w	r3, r3, #3
    38f2:	f5c3 7280 	rsb	r2, r3, #256	; 0x100
    38f6:	88bb      	ldrh	r3, [r7, #4]
    38f8:	429a      	cmp	r2, r3
    38fa:	bfb8      	it	lt
    38fc:	4613      	movlt	r3, r2
    38fe:	b29a      	uxth	r2, r3
    3900:	69fb      	ldr	r3, [r7, #28]
    3902:	815a      	strh	r2, [r3, #10]
    3904:	69fb      	ldr	r3, [r7, #28]
    3906:	f04f 0201 	mov.w	r2, #1
    390a:	81da      	strh	r2, [r3, #14]
    390c:	69fb      	ldr	r3, [r7, #28]
    390e:	61bb      	str	r3, [r7, #24]
    3910:	88ba      	ldrh	r2, [r7, #4]
    3912:	69fb      	ldr	r3, [r7, #28]
    3914:	895b      	ldrh	r3, [r3, #10]
    3916:	1ad3      	subs	r3, r2, r3
    3918:	613b      	str	r3, [r7, #16]
    391a:	e03d      	b.n	3998 <pbuf_alloc+0x180>
    391c:	f04f 000c 	mov.w	r0, #12
    3920:	f7fe fc46 	bl	21b0 <memp_malloc>
    3924:	4603      	mov	r3, r0
    3926:	60fb      	str	r3, [r7, #12]
    3928:	68fb      	ldr	r3, [r7, #12]
    392a:	2b00      	cmp	r3, #0
    392c:	d107      	bne.n	393e <pbuf_alloc+0x126>
    392e:	f7ff ff43 	bl	37b8 <pbuf_pool_is_empty>
    3932:	69f8      	ldr	r0, [r7, #28]
    3934:	f000 f946 	bl	3bc4 <pbuf_free>
    3938:	f04f 0300 	mov.w	r3, #0
    393c:	e0ab      	b.n	3a96 <pbuf_alloc+0x27e>
    393e:	68fb      	ldr	r3, [r7, #12]
    3940:	78fa      	ldrb	r2, [r7, #3]
    3942:	731a      	strb	r2, [r3, #12]
    3944:	68fb      	ldr	r3, [r7, #12]
    3946:	f04f 0200 	mov.w	r2, #0
    394a:	735a      	strb	r2, [r3, #13]
    394c:	68fb      	ldr	r3, [r7, #12]
    394e:	f04f 0200 	mov.w	r2, #0
    3952:	601a      	str	r2, [r3, #0]
    3954:	69bb      	ldr	r3, [r7, #24]
    3956:	68fa      	ldr	r2, [r7, #12]
    3958:	601a      	str	r2, [r3, #0]
    395a:	693b      	ldr	r3, [r7, #16]
    395c:	b29a      	uxth	r2, r3
    395e:	68fb      	ldr	r3, [r7, #12]
    3960:	811a      	strh	r2, [r3, #8]
    3962:	693b      	ldr	r3, [r7, #16]
    3964:	b29b      	uxth	r3, r3
    3966:	2bff      	cmp	r3, #255	; 0xff
    3968:	d802      	bhi.n	3970 <pbuf_alloc+0x158>
    396a:	693b      	ldr	r3, [r7, #16]
    396c:	b29b      	uxth	r3, r3
    396e:	e001      	b.n	3974 <pbuf_alloc+0x15c>
    3970:	f44f 7380 	mov.w	r3, #256	; 0x100
    3974:	68fa      	ldr	r2, [r7, #12]
    3976:	8153      	strh	r3, [r2, #10]
    3978:	68fb      	ldr	r3, [r7, #12]
    397a:	f103 0210 	add.w	r2, r3, #16
    397e:	68fb      	ldr	r3, [r7, #12]
    3980:	605a      	str	r2, [r3, #4]
    3982:	68fb      	ldr	r3, [r7, #12]
    3984:	f04f 0201 	mov.w	r2, #1
    3988:	81da      	strh	r2, [r3, #14]
    398a:	68fb      	ldr	r3, [r7, #12]
    398c:	895b      	ldrh	r3, [r3, #10]
    398e:	693a      	ldr	r2, [r7, #16]
    3990:	1ad3      	subs	r3, r2, r3
    3992:	613b      	str	r3, [r7, #16]
    3994:	68fb      	ldr	r3, [r7, #12]
    3996:	61bb      	str	r3, [r7, #24]
    3998:	693b      	ldr	r3, [r7, #16]
    399a:	2b00      	cmp	r3, #0
    399c:	dcbe      	bgt.n	391c <pbuf_alloc+0x104>
    399e:	e06b      	b.n	3a78 <pbuf_alloc+0x260>
    39a0:	8afb      	ldrh	r3, [r7, #22]
    39a2:	f103 0313 	add.w	r3, r3, #19
    39a6:	b29b      	uxth	r3, r3
    39a8:	f023 0303 	bic.w	r3, r3, #3
    39ac:	b29a      	uxth	r2, r3
    39ae:	88bb      	ldrh	r3, [r7, #4]
    39b0:	f103 0303 	add.w	r3, r3, #3
    39b4:	b29b      	uxth	r3, r3
    39b6:	f023 0303 	bic.w	r3, r3, #3
    39ba:	b29b      	uxth	r3, r3
    39bc:	18d3      	adds	r3, r2, r3
    39be:	b29b      	uxth	r3, r3
    39c0:	4618      	mov	r0, r3
    39c2:	f7fc fc4d 	bl	260 <mem_malloc>
    39c6:	4603      	mov	r3, r0
    39c8:	61fb      	str	r3, [r7, #28]
    39ca:	69fb      	ldr	r3, [r7, #28]
    39cc:	2b00      	cmp	r3, #0
    39ce:	d102      	bne.n	39d6 <pbuf_alloc+0x1be>
    39d0:	f04f 0300 	mov.w	r3, #0
    39d4:	e05f      	b.n	3a96 <pbuf_alloc+0x27e>
    39d6:	8afb      	ldrh	r3, [r7, #22]
    39d8:	f103 0310 	add.w	r3, r3, #16
    39dc:	69fa      	ldr	r2, [r7, #28]
    39de:	18d3      	adds	r3, r2, r3
    39e0:	f103 0303 	add.w	r3, r3, #3
    39e4:	f023 0303 	bic.w	r3, r3, #3
    39e8:	461a      	mov	r2, r3
    39ea:	69fb      	ldr	r3, [r7, #28]
    39ec:	605a      	str	r2, [r3, #4]
    39ee:	69fb      	ldr	r3, [r7, #28]
    39f0:	88ba      	ldrh	r2, [r7, #4]
    39f2:	811a      	strh	r2, [r3, #8]
    39f4:	69fb      	ldr	r3, [r7, #28]
    39f6:	891a      	ldrh	r2, [r3, #8]
    39f8:	69fb      	ldr	r3, [r7, #28]
    39fa:	815a      	strh	r2, [r3, #10]
    39fc:	69fb      	ldr	r3, [r7, #28]
    39fe:	f04f 0200 	mov.w	r2, #0
    3a02:	601a      	str	r2, [r3, #0]
    3a04:	69fb      	ldr	r3, [r7, #28]
    3a06:	78fa      	ldrb	r2, [r7, #3]
    3a08:	731a      	strb	r2, [r3, #12]
    3a0a:	e035      	b.n	3a78 <pbuf_alloc+0x260>
    3a0c:	f04f 000b 	mov.w	r0, #11
    3a10:	f7fe fbce 	bl	21b0 <memp_malloc>
    3a14:	4603      	mov	r3, r0
    3a16:	61fb      	str	r3, [r7, #28]
    3a18:	69fb      	ldr	r3, [r7, #28]
    3a1a:	2b00      	cmp	r3, #0
    3a1c:	d10c      	bne.n	3a38 <pbuf_alloc+0x220>
    3a1e:	78fb      	ldrb	r3, [r7, #3]
    3a20:	2b01      	cmp	r3, #1
    3a22:	d101      	bne.n	3a28 <pbuf_alloc+0x210>
    3a24:	4b11      	ldr	r3, [pc, #68]	; (3a6c <pbuf_alloc+0x254>)
    3a26:	e000      	b.n	3a2a <pbuf_alloc+0x212>
    3a28:	4b11      	ldr	r3, [pc, #68]	; (3a70 <pbuf_alloc+0x258>)
    3a2a:	4812      	ldr	r0, [pc, #72]	; (3a74 <pbuf_alloc+0x25c>)
    3a2c:	4619      	mov	r1, r3
    3a2e:	f001 ff65 	bl	58fc <DebugPrintf>
    3a32:	f04f 0300 	mov.w	r3, #0
    3a36:	e02e      	b.n	3a96 <pbuf_alloc+0x27e>
    3a38:	69fb      	ldr	r3, [r7, #28]
    3a3a:	f04f 0200 	mov.w	r2, #0
    3a3e:	605a      	str	r2, [r3, #4]
    3a40:	69fb      	ldr	r3, [r7, #28]
    3a42:	88ba      	ldrh	r2, [r7, #4]
    3a44:	811a      	strh	r2, [r3, #8]
    3a46:	69fb      	ldr	r3, [r7, #28]
    3a48:	891a      	ldrh	r2, [r3, #8]
    3a4a:	69fb      	ldr	r3, [r7, #28]
    3a4c:	815a      	strh	r2, [r3, #10]
    3a4e:	69fb      	ldr	r3, [r7, #28]
    3a50:	f04f 0200 	mov.w	r2, #0
    3a54:	601a      	str	r2, [r3, #0]
    3a56:	69fb      	ldr	r3, [r7, #28]
    3a58:	78fa      	ldrb	r2, [r7, #3]
    3a5a:	731a      	strb	r2, [r3, #12]
    3a5c:	e00c      	b.n	3a78 <pbuf_alloc+0x260>
    3a5e:	f04f 0300 	mov.w	r3, #0
    3a62:	e018      	b.n	3a96 <pbuf_alloc+0x27e>
    3a64:	00009b18 	.word	0x00009b18
    3a68:	00009b30 	.word	0x00009b30
    3a6c:	00009b50 	.word	0x00009b50
    3a70:	00009b54 	.word	0x00009b54
    3a74:	00009b58 	.word	0x00009b58
    3a78:	69fb      	ldr	r3, [r7, #28]
    3a7a:	f04f 0201 	mov.w	r2, #1
    3a7e:	81da      	strh	r2, [r3, #14]
    3a80:	69fb      	ldr	r3, [r7, #28]
    3a82:	f04f 0200 	mov.w	r2, #0
    3a86:	735a      	strb	r2, [r3, #13]
    3a88:	88bb      	ldrh	r3, [r7, #4]
    3a8a:	4805      	ldr	r0, [pc, #20]	; (3aa0 <pbuf_alloc+0x288>)
    3a8c:	4619      	mov	r1, r3
    3a8e:	69fa      	ldr	r2, [r7, #28]
    3a90:	f001 ff34 	bl	58fc <DebugPrintf>
    3a94:	69fb      	ldr	r3, [r7, #28]
    3a96:	4618      	mov	r0, r3
    3a98:	f107 0720 	add.w	r7, r7, #32
    3a9c:	46bd      	mov	sp, r7
    3a9e:	bd80      	pop	{r7, pc}
    3aa0:	00009b90 	.word	0x00009b90

00003aa4 <pbuf_header>:
    3aa4:	b580      	push	{r7, lr}
    3aa6:	b084      	sub	sp, #16
    3aa8:	af00      	add	r7, sp, #0
    3aaa:	6078      	str	r0, [r7, #4]
    3aac:	460b      	mov	r3, r1
    3aae:	807b      	strh	r3, [r7, #2]
    3ab0:	f9b7 3002 	ldrsh.w	r3, [r7, #2]
    3ab4:	2b00      	cmp	r3, #0
    3ab6:	d002      	beq.n	3abe <pbuf_header+0x1a>
    3ab8:	687b      	ldr	r3, [r7, #4]
    3aba:	2b00      	cmp	r3, #0
    3abc:	d102      	bne.n	3ac4 <pbuf_header+0x20>
    3abe:	f04f 0300 	mov.w	r3, #0
    3ac2:	e075      	b.n	3bb0 <pbuf_header+0x10c>
    3ac4:	f9b7 3002 	ldrsh.w	r3, [r7, #2]
    3ac8:	2b00      	cmp	r3, #0
    3aca:	da0b      	bge.n	3ae4 <pbuf_header+0x40>
    3acc:	887b      	ldrh	r3, [r7, #2]
    3ace:	f1c3 0300 	rsb	r3, r3, #0
    3ad2:	81fb      	strh	r3, [r7, #14]
    3ad4:	687b      	ldr	r3, [r7, #4]
    3ad6:	895b      	ldrh	r3, [r3, #10]
    3ad8:	89fa      	ldrh	r2, [r7, #14]
    3ada:	429a      	cmp	r2, r3
    3adc:	d904      	bls.n	3ae8 <pbuf_header+0x44>
    3ade:	f04f 0301 	mov.w	r3, #1
    3ae2:	e065      	b.n	3bb0 <pbuf_header+0x10c>
    3ae4:	887b      	ldrh	r3, [r7, #2]
    3ae6:	81fb      	strh	r3, [r7, #14]
    3ae8:	687b      	ldr	r3, [r7, #4]
    3aea:	7b1b      	ldrb	r3, [r3, #12]
    3aec:	81bb      	strh	r3, [r7, #12]
    3aee:	687b      	ldr	r3, [r7, #4]
    3af0:	685b      	ldr	r3, [r3, #4]
    3af2:	60bb      	str	r3, [r7, #8]
    3af4:	89bb      	ldrh	r3, [r7, #12]
    3af6:	2b00      	cmp	r3, #0
    3af8:	d002      	beq.n	3b00 <pbuf_header+0x5c>
    3afa:	89bb      	ldrh	r3, [r7, #12]
    3afc:	2b03      	cmp	r3, #3
    3afe:	d120      	bne.n	3b42 <pbuf_header+0x9e>
    3b00:	687b      	ldr	r3, [r7, #4]
    3b02:	685a      	ldr	r2, [r3, #4]
    3b04:	f9b7 3002 	ldrsh.w	r3, [r7, #2]
    3b08:	f1c3 0300 	rsb	r3, r3, #0
    3b0c:	18d2      	adds	r2, r2, r3
    3b0e:	687b      	ldr	r3, [r7, #4]
    3b10:	605a      	str	r2, [r3, #4]
    3b12:	687b      	ldr	r3, [r7, #4]
    3b14:	685b      	ldr	r3, [r3, #4]
    3b16:	461a      	mov	r2, r3
    3b18:	687b      	ldr	r3, [r7, #4]
    3b1a:	f103 0310 	add.w	r3, r3, #16
    3b1e:	429a      	cmp	r2, r3
    3b20:	d22e      	bcs.n	3b80 <pbuf_header+0xdc>
    3b22:	687b      	ldr	r3, [r7, #4]
    3b24:	685a      	ldr	r2, [r3, #4]
    3b26:	687b      	ldr	r3, [r7, #4]
    3b28:	f103 0310 	add.w	r3, r3, #16
    3b2c:	4823      	ldr	r0, [pc, #140]	; (3bbc <pbuf_header+0x118>)
    3b2e:	4611      	mov	r1, r2
    3b30:	461a      	mov	r2, r3
    3b32:	f001 fee3 	bl	58fc <DebugPrintf>
    3b36:	687b      	ldr	r3, [r7, #4]
    3b38:	68ba      	ldr	r2, [r7, #8]
    3b3a:	605a      	str	r2, [r3, #4]
    3b3c:	f04f 0301 	mov.w	r3, #1
    3b40:	e036      	b.n	3bb0 <pbuf_header+0x10c>
    3b42:	89bb      	ldrh	r3, [r7, #12]
    3b44:	2b02      	cmp	r3, #2
    3b46:	d002      	beq.n	3b4e <pbuf_header+0xaa>
    3b48:	89bb      	ldrh	r3, [r7, #12]
    3b4a:	2b01      	cmp	r3, #1
    3b4c:	d115      	bne.n	3b7a <pbuf_header+0xd6>
    3b4e:	f9b7 3002 	ldrsh.w	r3, [r7, #2]
    3b52:	2b00      	cmp	r3, #0
    3b54:	da0e      	bge.n	3b74 <pbuf_header+0xd0>
    3b56:	687b      	ldr	r3, [r7, #4]
    3b58:	895b      	ldrh	r3, [r3, #10]
    3b5a:	89fa      	ldrh	r2, [r7, #14]
    3b5c:	429a      	cmp	r2, r3
    3b5e:	d809      	bhi.n	3b74 <pbuf_header+0xd0>
    3b60:	687b      	ldr	r3, [r7, #4]
    3b62:	685a      	ldr	r2, [r3, #4]
    3b64:	f9b7 3002 	ldrsh.w	r3, [r7, #2]
    3b68:	f1c3 0300 	rsb	r3, r3, #0
    3b6c:	18d2      	adds	r2, r2, r3
    3b6e:	687b      	ldr	r3, [r7, #4]
    3b70:	605a      	str	r2, [r3, #4]
    3b72:	e005      	b.n	3b80 <pbuf_header+0xdc>
    3b74:	f04f 0301 	mov.w	r3, #1
    3b78:	e01a      	b.n	3bb0 <pbuf_header+0x10c>
    3b7a:	f04f 0301 	mov.w	r3, #1
    3b7e:	e017      	b.n	3bb0 <pbuf_header+0x10c>
    3b80:	687b      	ldr	r3, [r7, #4]
    3b82:	895a      	ldrh	r2, [r3, #10]
    3b84:	887b      	ldrh	r3, [r7, #2]
    3b86:	18d3      	adds	r3, r2, r3
    3b88:	b29a      	uxth	r2, r3
    3b8a:	687b      	ldr	r3, [r7, #4]
    3b8c:	815a      	strh	r2, [r3, #10]
    3b8e:	687b      	ldr	r3, [r7, #4]
    3b90:	891a      	ldrh	r2, [r3, #8]
    3b92:	887b      	ldrh	r3, [r7, #2]
    3b94:	18d3      	adds	r3, r2, r3
    3b96:	b29a      	uxth	r2, r3
    3b98:	687b      	ldr	r3, [r7, #4]
    3b9a:	811a      	strh	r2, [r3, #8]
    3b9c:	687b      	ldr	r3, [r7, #4]
    3b9e:	685a      	ldr	r2, [r3, #4]
    3ba0:	f9b7 3002 	ldrsh.w	r3, [r7, #2]
    3ba4:	4806      	ldr	r0, [pc, #24]	; (3bc0 <pbuf_header+0x11c>)
    3ba6:	68b9      	ldr	r1, [r7, #8]
    3ba8:	f001 fea8 	bl	58fc <DebugPrintf>
    3bac:	f04f 0300 	mov.w	r3, #0
    3bb0:	4618      	mov	r0, r3
    3bb2:	f107 0710 	add.w	r7, r7, #16
    3bb6:	46bd      	mov	sp, r7
    3bb8:	bd80      	pop	{r7, pc}
    3bba:	bf00      	nop
    3bbc:	00009bb0 	.word	0x00009bb0
    3bc0:	00009bf8 	.word	0x00009bf8

00003bc4 <pbuf_free>:
    3bc4:	b580      	push	{r7, lr}
    3bc6:	b088      	sub	sp, #32
    3bc8:	af00      	add	r7, sp, #0
    3bca:	6078      	str	r0, [r7, #4]
    3bcc:	687b      	ldr	r3, [r7, #4]
    3bce:	2b00      	cmp	r3, #0
    3bd0:	d105      	bne.n	3bde <pbuf_free+0x1a>
    3bd2:	4833      	ldr	r0, [pc, #204]	; (3ca0 <pbuf_free+0xdc>)
    3bd4:	f001 fe92 	bl	58fc <DebugPrintf>
    3bd8:	f04f 0300 	mov.w	r3, #0
    3bdc:	e05b      	b.n	3c96 <pbuf_free+0xd2>
    3bde:	4831      	ldr	r0, [pc, #196]	; (3ca4 <pbuf_free+0xe0>)
    3be0:	6879      	ldr	r1, [r7, #4]
    3be2:	f001 fe8b 	bl	58fc <DebugPrintf>
    3be6:	687b      	ldr	r3, [r7, #4]
    3be8:	7b1b      	ldrb	r3, [r3, #12]
    3bea:	2b00      	cmp	r3, #0
    3bec:	d006      	beq.n	3bfc <pbuf_free+0x38>
    3bee:	687b      	ldr	r3, [r7, #4]
    3bf0:	7b1b      	ldrb	r3, [r3, #12]
    3bf2:	2b01      	cmp	r3, #1
    3bf4:	d002      	beq.n	3bfc <pbuf_free+0x38>
    3bf6:	687b      	ldr	r3, [r7, #4]
    3bf8:	7b1b      	ldrb	r3, [r3, #12]
    3bfa:	2b02      	cmp	r3, #2
    3bfc:	f04f 0300 	mov.w	r3, #0
    3c00:	77fb      	strb	r3, [r7, #31]
    3c02:	e044      	b.n	3c8e <pbuf_free+0xca>
    3c04:	f001 fe68 	bl	58d8 <sys_arch_protect>
    3c08:	61b8      	str	r0, [r7, #24]
    3c0a:	687b      	ldr	r3, [r7, #4]
    3c0c:	89db      	ldrh	r3, [r3, #14]
    3c0e:	f103 33ff 	add.w	r3, r3, #4294967295
    3c12:	b29a      	uxth	r2, r3
    3c14:	687b      	ldr	r3, [r7, #4]
    3c16:	81da      	strh	r2, [r3, #14]
    3c18:	687b      	ldr	r3, [r7, #4]
    3c1a:	89db      	ldrh	r3, [r3, #14]
    3c1c:	82fb      	strh	r3, [r7, #22]
    3c1e:	69b8      	ldr	r0, [r7, #24]
    3c20:	f001 fe62 	bl	58e8 <sys_arch_unprotect>
    3c24:	8afb      	ldrh	r3, [r7, #22]
    3c26:	2b00      	cmp	r3, #0
    3c28:	d128      	bne.n	3c7c <pbuf_free+0xb8>
    3c2a:	687b      	ldr	r3, [r7, #4]
    3c2c:	681b      	ldr	r3, [r3, #0]
    3c2e:	613b      	str	r3, [r7, #16]
    3c30:	481d      	ldr	r0, [pc, #116]	; (3ca8 <pbuf_free+0xe4>)
    3c32:	6879      	ldr	r1, [r7, #4]
    3c34:	f001 fe62 	bl	58fc <DebugPrintf>
    3c38:	687b      	ldr	r3, [r7, #4]
    3c3a:	7b1b      	ldrb	r3, [r3, #12]
    3c3c:	81fb      	strh	r3, [r7, #14]
    3c3e:	89fb      	ldrh	r3, [r7, #14]
    3c40:	2b03      	cmp	r3, #3
    3c42:	d105      	bne.n	3c50 <pbuf_free+0x8c>
    3c44:	f04f 000c 	mov.w	r0, #12
    3c48:	6879      	ldr	r1, [r7, #4]
    3c4a:	f7fe fb53 	bl	22f4 <memp_free>
    3c4e:	e00e      	b.n	3c6e <pbuf_free+0xaa>
    3c50:	89fb      	ldrh	r3, [r7, #14]
    3c52:	2b01      	cmp	r3, #1
    3c54:	d002      	beq.n	3c5c <pbuf_free+0x98>
    3c56:	89fb      	ldrh	r3, [r7, #14]
    3c58:	2b02      	cmp	r3, #2
    3c5a:	d105      	bne.n	3c68 <pbuf_free+0xa4>
    3c5c:	f04f 000b 	mov.w	r0, #11
    3c60:	6879      	ldr	r1, [r7, #4]
    3c62:	f7fe fb47 	bl	22f4 <memp_free>
    3c66:	e002      	b.n	3c6e <pbuf_free+0xaa>
    3c68:	6878      	ldr	r0, [r7, #4]
    3c6a:	f7fc fa89 	bl	180 <mem_free>
    3c6e:	7ffb      	ldrb	r3, [r7, #31]
    3c70:	f103 0301 	add.w	r3, r3, #1
    3c74:	77fb      	strb	r3, [r7, #31]
    3c76:	693b      	ldr	r3, [r7, #16]
    3c78:	607b      	str	r3, [r7, #4]
    3c7a:	e008      	b.n	3c8e <pbuf_free+0xca>
    3c7c:	8afb      	ldrh	r3, [r7, #22]
    3c7e:	480b      	ldr	r0, [pc, #44]	; (3cac <pbuf_free+0xe8>)
    3c80:	6879      	ldr	r1, [r7, #4]
    3c82:	461a      	mov	r2, r3
    3c84:	f001 fe3a 	bl	58fc <DebugPrintf>
    3c88:	f04f 0300 	mov.w	r3, #0
    3c8c:	607b      	str	r3, [r7, #4]
    3c8e:	687b      	ldr	r3, [r7, #4]
    3c90:	2b00      	cmp	r3, #0
    3c92:	d1b7      	bne.n	3c04 <pbuf_free+0x40>
    3c94:	7ffb      	ldrb	r3, [r7, #31]
    3c96:	4618      	mov	r0, r3
    3c98:	f107 0720 	add.w	r7, r7, #32
    3c9c:	46bd      	mov	sp, r7
    3c9e:	bd80      	pop	{r7, pc}
    3ca0:	00009c1c 	.word	0x00009c1c
    3ca4:	00009c40 	.word	0x00009c40
    3ca8:	00009c50 	.word	0x00009c50
    3cac:	00009c6c 	.word	0x00009c6c

00003cb0 <pbuf_clen>:
    3cb0:	b480      	push	{r7}
    3cb2:	b085      	sub	sp, #20
    3cb4:	af00      	add	r7, sp, #0
    3cb6:	6078      	str	r0, [r7, #4]
    3cb8:	f04f 0300 	mov.w	r3, #0
    3cbc:	73fb      	strb	r3, [r7, #15]
    3cbe:	e006      	b.n	3cce <pbuf_clen+0x1e>
    3cc0:	7bfb      	ldrb	r3, [r7, #15]
    3cc2:	f103 0301 	add.w	r3, r3, #1
    3cc6:	73fb      	strb	r3, [r7, #15]
    3cc8:	687b      	ldr	r3, [r7, #4]
    3cca:	681b      	ldr	r3, [r3, #0]
    3ccc:	607b      	str	r3, [r7, #4]
    3cce:	687b      	ldr	r3, [r7, #4]
    3cd0:	2b00      	cmp	r3, #0
    3cd2:	d1f5      	bne.n	3cc0 <pbuf_clen+0x10>
    3cd4:	7bfb      	ldrb	r3, [r7, #15]
    3cd6:	4618      	mov	r0, r3
    3cd8:	f107 0714 	add.w	r7, r7, #20
    3cdc:	46bd      	mov	sp, r7
    3cde:	bc80      	pop	{r7}
    3ce0:	4770      	bx	lr
    3ce2:	bf00      	nop

00003ce4 <pbuf_cat>:
    3ce4:	b480      	push	{r7}
    3ce6:	b085      	sub	sp, #20
    3ce8:	af00      	add	r7, sp, #0
    3cea:	6078      	str	r0, [r7, #4]
    3cec:	6039      	str	r1, [r7, #0]
    3cee:	687b      	ldr	r3, [r7, #4]
    3cf0:	2b00      	cmp	r3, #0
    3cf2:	d01f      	beq.n	3d34 <pbuf_cat+0x50>
    3cf4:	683b      	ldr	r3, [r7, #0]
    3cf6:	2b00      	cmp	r3, #0
    3cf8:	d01c      	beq.n	3d34 <pbuf_cat+0x50>
    3cfa:	687b      	ldr	r3, [r7, #4]
    3cfc:	60fb      	str	r3, [r7, #12]
    3cfe:	e00a      	b.n	3d16 <pbuf_cat+0x32>
    3d00:	68fb      	ldr	r3, [r7, #12]
    3d02:	891a      	ldrh	r2, [r3, #8]
    3d04:	683b      	ldr	r3, [r7, #0]
    3d06:	891b      	ldrh	r3, [r3, #8]
    3d08:	18d3      	adds	r3, r2, r3
    3d0a:	b29a      	uxth	r2, r3
    3d0c:	68fb      	ldr	r3, [r7, #12]
    3d0e:	811a      	strh	r2, [r3, #8]
    3d10:	68fb      	ldr	r3, [r7, #12]
    3d12:	681b      	ldr	r3, [r3, #0]
    3d14:	60fb      	str	r3, [r7, #12]
    3d16:	68fb      	ldr	r3, [r7, #12]
    3d18:	681b      	ldr	r3, [r3, #0]
    3d1a:	2b00      	cmp	r3, #0
    3d1c:	d1f0      	bne.n	3d00 <pbuf_cat+0x1c>
    3d1e:	68fb      	ldr	r3, [r7, #12]
    3d20:	891a      	ldrh	r2, [r3, #8]
    3d22:	683b      	ldr	r3, [r7, #0]
    3d24:	891b      	ldrh	r3, [r3, #8]
    3d26:	18d3      	adds	r3, r2, r3
    3d28:	b29a      	uxth	r2, r3
    3d2a:	68fb      	ldr	r3, [r7, #12]
    3d2c:	811a      	strh	r2, [r3, #8]
    3d2e:	68fb      	ldr	r3, [r7, #12]
    3d30:	683a      	ldr	r2, [r7, #0]
    3d32:	601a      	str	r2, [r3, #0]
    3d34:	f107 0714 	add.w	r7, r7, #20
    3d38:	46bd      	mov	sp, r7
    3d3a:	bc80      	pop	{r7}
    3d3c:	4770      	bx	lr
    3d3e:	bf00      	nop

00003d40 <pbuf_copy>:
    3d40:	b580      	push	{r7, lr}
    3d42:	b084      	sub	sp, #16
    3d44:	af00      	add	r7, sp, #0
    3d46:	6078      	str	r0, [r7, #4]
    3d48:	6039      	str	r1, [r7, #0]
    3d4a:	f04f 0300 	mov.w	r3, #0
    3d4e:	81fb      	strh	r3, [r7, #14]
    3d50:	f04f 0300 	mov.w	r3, #0
    3d54:	81bb      	strh	r3, [r7, #12]
    3d56:	4842      	ldr	r0, [pc, #264]	; (3e60 <pbuf_copy+0x120>)
    3d58:	6879      	ldr	r1, [r7, #4]
    3d5a:	683a      	ldr	r2, [r7, #0]
    3d5c:	f001 fdce 	bl	58fc <DebugPrintf>
    3d60:	687b      	ldr	r3, [r7, #4]
    3d62:	2b00      	cmp	r3, #0
    3d64:	d008      	beq.n	3d78 <pbuf_copy+0x38>
    3d66:	683b      	ldr	r3, [r7, #0]
    3d68:	2b00      	cmp	r3, #0
    3d6a:	d005      	beq.n	3d78 <pbuf_copy+0x38>
    3d6c:	687b      	ldr	r3, [r7, #4]
    3d6e:	891a      	ldrh	r2, [r3, #8]
    3d70:	683b      	ldr	r3, [r7, #0]
    3d72:	891b      	ldrh	r3, [r3, #8]
    3d74:	429a      	cmp	r2, r3
    3d76:	d202      	bcs.n	3d7e <pbuf_copy+0x3e>
    3d78:	f04f 03f6 	mov.w	r3, #246	; 0xf6
    3d7c:	e06a      	b.n	3e54 <pbuf_copy+0x114>
    3d7e:	687b      	ldr	r3, [r7, #4]
    3d80:	895b      	ldrh	r3, [r3, #10]
    3d82:	461a      	mov	r2, r3
    3d84:	89fb      	ldrh	r3, [r7, #14]
    3d86:	1ad2      	subs	r2, r2, r3
    3d88:	683b      	ldr	r3, [r7, #0]
    3d8a:	895b      	ldrh	r3, [r3, #10]
    3d8c:	4619      	mov	r1, r3
    3d8e:	89bb      	ldrh	r3, [r7, #12]
    3d90:	1acb      	subs	r3, r1, r3
    3d92:	429a      	cmp	r2, r3
    3d94:	db05      	blt.n	3da2 <pbuf_copy+0x62>
    3d96:	683b      	ldr	r3, [r7, #0]
    3d98:	895a      	ldrh	r2, [r3, #10]
    3d9a:	89bb      	ldrh	r3, [r7, #12]
    3d9c:	1ad3      	subs	r3, r2, r3
    3d9e:	817b      	strh	r3, [r7, #10]
    3da0:	e004      	b.n	3dac <pbuf_copy+0x6c>
    3da2:	687b      	ldr	r3, [r7, #4]
    3da4:	895a      	ldrh	r2, [r3, #10]
    3da6:	89fb      	ldrh	r3, [r7, #14]
    3da8:	1ad3      	subs	r3, r2, r3
    3daa:	817b      	strh	r3, [r7, #10]
    3dac:	687b      	ldr	r3, [r7, #4]
    3dae:	685a      	ldr	r2, [r3, #4]
    3db0:	89fb      	ldrh	r3, [r7, #14]
    3db2:	18d1      	adds	r1, r2, r3
    3db4:	683b      	ldr	r3, [r7, #0]
    3db6:	685a      	ldr	r2, [r3, #4]
    3db8:	89bb      	ldrh	r3, [r7, #12]
    3dba:	18d2      	adds	r2, r2, r3
    3dbc:	897b      	ldrh	r3, [r7, #10]
    3dbe:	4608      	mov	r0, r1
    3dc0:	4611      	mov	r1, r2
    3dc2:	461a      	mov	r2, r3
    3dc4:	f005 f85a 	bl	8e7c <memcpy>
    3dc8:	89fa      	ldrh	r2, [r7, #14]
    3dca:	897b      	ldrh	r3, [r7, #10]
    3dcc:	18d3      	adds	r3, r2, r3
    3dce:	81fb      	strh	r3, [r7, #14]
    3dd0:	89ba      	ldrh	r2, [r7, #12]
    3dd2:	897b      	ldrh	r3, [r7, #10]
    3dd4:	18d3      	adds	r3, r2, r3
    3dd6:	81bb      	strh	r3, [r7, #12]
    3dd8:	687b      	ldr	r3, [r7, #4]
    3dda:	895b      	ldrh	r3, [r3, #10]
    3ddc:	89fa      	ldrh	r2, [r7, #14]
    3dde:	429a      	cmp	r2, r3
    3de0:	d105      	bne.n	3dee <pbuf_copy+0xae>
    3de2:	f04f 0300 	mov.w	r3, #0
    3de6:	81fb      	strh	r3, [r7, #14]
    3de8:	687b      	ldr	r3, [r7, #4]
    3dea:	681b      	ldr	r3, [r3, #0]
    3dec:	607b      	str	r3, [r7, #4]
    3dee:	683b      	ldr	r3, [r7, #0]
    3df0:	895b      	ldrh	r3, [r3, #10]
    3df2:	89ba      	ldrh	r2, [r7, #12]
    3df4:	429a      	cmp	r2, r3
    3df6:	d305      	bcc.n	3e04 <pbuf_copy+0xc4>
    3df8:	f04f 0300 	mov.w	r3, #0
    3dfc:	81bb      	strh	r3, [r7, #12]
    3dfe:	683b      	ldr	r3, [r7, #0]
    3e00:	681b      	ldr	r3, [r3, #0]
    3e02:	603b      	str	r3, [r7, #0]
    3e04:	683b      	ldr	r3, [r7, #0]
    3e06:	2b00      	cmp	r3, #0
    3e08:	d00c      	beq.n	3e24 <pbuf_copy+0xe4>
    3e0a:	683b      	ldr	r3, [r7, #0]
    3e0c:	895a      	ldrh	r2, [r3, #10]
    3e0e:	683b      	ldr	r3, [r7, #0]
    3e10:	891b      	ldrh	r3, [r3, #8]
    3e12:	429a      	cmp	r2, r3
    3e14:	d106      	bne.n	3e24 <pbuf_copy+0xe4>
    3e16:	683b      	ldr	r3, [r7, #0]
    3e18:	681b      	ldr	r3, [r3, #0]
    3e1a:	2b00      	cmp	r3, #0
    3e1c:	d002      	beq.n	3e24 <pbuf_copy+0xe4>
    3e1e:	f04f 03f7 	mov.w	r3, #247	; 0xf7
    3e22:	e017      	b.n	3e54 <pbuf_copy+0x114>
    3e24:	687b      	ldr	r3, [r7, #4]
    3e26:	2b00      	cmp	r3, #0
    3e28:	d00c      	beq.n	3e44 <pbuf_copy+0x104>
    3e2a:	687b      	ldr	r3, [r7, #4]
    3e2c:	895a      	ldrh	r2, [r3, #10]
    3e2e:	687b      	ldr	r3, [r7, #4]
    3e30:	891b      	ldrh	r3, [r3, #8]
    3e32:	429a      	cmp	r2, r3
    3e34:	d106      	bne.n	3e44 <pbuf_copy+0x104>
    3e36:	687b      	ldr	r3, [r7, #4]
    3e38:	681b      	ldr	r3, [r3, #0]
    3e3a:	2b00      	cmp	r3, #0
    3e3c:	d002      	beq.n	3e44 <pbuf_copy+0x104>
    3e3e:	f04f 03f7 	mov.w	r3, #247	; 0xf7
    3e42:	e007      	b.n	3e54 <pbuf_copy+0x114>
    3e44:	683b      	ldr	r3, [r7, #0]
    3e46:	2b00      	cmp	r3, #0
    3e48:	d199      	bne.n	3d7e <pbuf_copy+0x3e>
    3e4a:	4806      	ldr	r0, [pc, #24]	; (3e64 <pbuf_copy+0x124>)
    3e4c:	f001 fd56 	bl	58fc <DebugPrintf>
    3e50:	f04f 0300 	mov.w	r3, #0
    3e54:	b25b      	sxtb	r3, r3
    3e56:	4618      	mov	r0, r3
    3e58:	f107 0710 	add.w	r7, r7, #16
    3e5c:	46bd      	mov	sp, r7
    3e5e:	bd80      	pop	{r7, pc}
    3e60:	00009d14 	.word	0x00009d14
    3e64:	00009d28 	.word	0x00009d28

00003e68 <htons>:
    3e68:	b480      	push	{r7}
    3e6a:	b083      	sub	sp, #12
    3e6c:	af00      	add	r7, sp, #0
    3e6e:	4603      	mov	r3, r0
    3e70:	80fb      	strh	r3, [r7, #6]
    3e72:	88fb      	ldrh	r3, [r7, #6]
    3e74:	ea4f 2303 	mov.w	r3, r3, lsl #8
    3e78:	b29a      	uxth	r2, r3
    3e7a:	88fb      	ldrh	r3, [r7, #6]
    3e7c:	ea4f 2313 	mov.w	r3, r3, lsr #8
    3e80:	b29b      	uxth	r3, r3
    3e82:	b29b      	uxth	r3, r3
    3e84:	ea42 0303 	orr.w	r3, r2, r3
    3e88:	b29b      	uxth	r3, r3
    3e8a:	b29b      	uxth	r3, r3
    3e8c:	4618      	mov	r0, r3
    3e8e:	f107 070c 	add.w	r7, r7, #12
    3e92:	46bd      	mov	sp, r7
    3e94:	bc80      	pop	{r7}
    3e96:	4770      	bx	lr

00003e98 <ntohs>:
    3e98:	b580      	push	{r7, lr}
    3e9a:	b082      	sub	sp, #8
    3e9c:	af00      	add	r7, sp, #0
    3e9e:	4603      	mov	r3, r0
    3ea0:	80fb      	strh	r3, [r7, #6]
    3ea2:	88fb      	ldrh	r3, [r7, #6]
    3ea4:	4618      	mov	r0, r3
    3ea6:	f7ff ffdf 	bl	3e68 <htons>
    3eaa:	4603      	mov	r3, r0
    3eac:	4618      	mov	r0, r3
    3eae:	f107 0708 	add.w	r7, r7, #8
    3eb2:	46bd      	mov	sp, r7
    3eb4:	bd80      	pop	{r7, pc}
    3eb6:	bf00      	nop

00003eb8 <htonl>:
    3eb8:	b480      	push	{r7}
    3eba:	b083      	sub	sp, #12
    3ebc:	af00      	add	r7, sp, #0
    3ebe:	6078      	str	r0, [r7, #4]
    3ec0:	687b      	ldr	r3, [r7, #4]
    3ec2:	ea4f 6203 	mov.w	r2, r3, lsl #24
    3ec6:	687b      	ldr	r3, [r7, #4]
    3ec8:	f403 437f 	and.w	r3, r3, #65280	; 0xff00
    3ecc:	ea4f 2303 	mov.w	r3, r3, lsl #8
    3ed0:	431a      	orrs	r2, r3
    3ed2:	687b      	ldr	r3, [r7, #4]
    3ed4:	f403 037f 	and.w	r3, r3, #16711680	; 0xff0000
    3ed8:	ea4f 2313 	mov.w	r3, r3, lsr #8
    3edc:	431a      	orrs	r2, r3
    3ede:	687b      	ldr	r3, [r7, #4]
    3ee0:	ea4f 6313 	mov.w	r3, r3, lsr #24
    3ee4:	ea42 0303 	orr.w	r3, r2, r3
    3ee8:	4618      	mov	r0, r3
    3eea:	f107 070c 	add.w	r7, r7, #12
    3eee:	46bd      	mov	sp, r7
    3ef0:	bc80      	pop	{r7}
    3ef2:	4770      	bx	lr

00003ef4 <ntohl>:
    3ef4:	b580      	push	{r7, lr}
    3ef6:	b082      	sub	sp, #8
    3ef8:	af00      	add	r7, sp, #0
    3efa:	6078      	str	r0, [r7, #4]
    3efc:	6878      	ldr	r0, [r7, #4]
    3efe:	f7ff ffdb 	bl	3eb8 <htonl>
    3f02:	4603      	mov	r3, r0
    3f04:	4618      	mov	r0, r3
    3f06:	f107 0708 	add.w	r7, r7, #8
    3f0a:	46bd      	mov	sp, r7
    3f0c:	bd80      	pop	{r7, pc}
    3f0e:	bf00      	nop

00003f10 <netif_is_up>:
    3f10:	b480      	push	{r7}
    3f12:	b083      	sub	sp, #12
    3f14:	af00      	add	r7, sp, #0
    3f16:	6078      	str	r0, [r7, #4]
    3f18:	687b      	ldr	r3, [r7, #4]
    3f1a:	f893 302d 	ldrb.w	r3, [r3, #45]	; 0x2d
    3f1e:	f003 0301 	and.w	r3, r3, #1
    3f22:	b2db      	uxtb	r3, r3
    3f24:	4618      	mov	r0, r3
    3f26:	f107 070c 	add.w	r7, r7, #12
    3f2a:	46bd      	mov	sp, r7
    3f2c:	bc80      	pop	{r7}
    3f2e:	4770      	bx	lr

00003f30 <InsertDelayList>:
    3f30:	b480      	push	{r7}
    3f32:	b085      	sub	sp, #20
    3f34:	af00      	add	r7, sp, #0
    3f36:	6078      	str	r0, [r7, #4]
    3f38:	6039      	str	r1, [r7, #0]
    3f3a:	683b      	ldr	r3, [r7, #0]
    3f3c:	2b00      	cmp	r3, #0
    3f3e:	d067      	beq.n	4010 <InsertDelayList+0xe0>
    3f40:	4b36      	ldr	r3, [pc, #216]	; (401c <InsertDelayList+0xec>)
    3f42:	681b      	ldr	r3, [r3, #0]
    3f44:	2b00      	cmp	r3, #0
    3f46:	d106      	bne.n	3f56 <InsertDelayList+0x26>
    3f48:	687b      	ldr	r3, [r7, #4]
    3f4a:	683a      	ldr	r2, [r7, #0]
    3f4c:	621a      	str	r2, [r3, #32]
    3f4e:	4b33      	ldr	r3, [pc, #204]	; (401c <InsertDelayList+0xec>)
    3f50:	687a      	ldr	r2, [r7, #4]
    3f52:	601a      	str	r2, [r3, #0]
    3f54:	e053      	b.n	3ffe <InsertDelayList+0xce>
    3f56:	4b31      	ldr	r3, [pc, #196]	; (401c <InsertDelayList+0xec>)
    3f58:	681b      	ldr	r3, [r3, #0]
    3f5a:	60bb      	str	r3, [r7, #8]
    3f5c:	683b      	ldr	r3, [r7, #0]
    3f5e:	60fb      	str	r3, [r7, #12]
    3f60:	e04a      	b.n	3ff8 <InsertDelayList+0xc8>
    3f62:	68fa      	ldr	r2, [r7, #12]
    3f64:	68bb      	ldr	r3, [r7, #8]
    3f66:	6a1b      	ldr	r3, [r3, #32]
    3f68:	1ad3      	subs	r3, r2, r3
    3f6a:	60fb      	str	r3, [r7, #12]
    3f6c:	68fb      	ldr	r3, [r7, #12]
    3f6e:	2b00      	cmp	r3, #0
    3f70:	da2e      	bge.n	3fd0 <InsertDelayList+0xa0>
    3f72:	68bb      	ldr	r3, [r7, #8]
    3f74:	6a9b      	ldr	r3, [r3, #40]	; 0x28
    3f76:	2b00      	cmp	r3, #0
    3f78:	d00e      	beq.n	3f98 <InsertDelayList+0x68>
    3f7a:	68bb      	ldr	r3, [r7, #8]
    3f7c:	6a9b      	ldr	r3, [r3, #40]	; 0x28
    3f7e:	687a      	ldr	r2, [r7, #4]
    3f80:	625a      	str	r2, [r3, #36]	; 0x24
    3f82:	68bb      	ldr	r3, [r7, #8]
    3f84:	6a9a      	ldr	r2, [r3, #40]	; 0x28
    3f86:	687b      	ldr	r3, [r7, #4]
    3f88:	629a      	str	r2, [r3, #40]	; 0x28
    3f8a:	687b      	ldr	r3, [r7, #4]
    3f8c:	68ba      	ldr	r2, [r7, #8]
    3f8e:	625a      	str	r2, [r3, #36]	; 0x24
    3f90:	68bb      	ldr	r3, [r7, #8]
    3f92:	687a      	ldr	r2, [r7, #4]
    3f94:	629a      	str	r2, [r3, #40]	; 0x28
    3f96:	e00a      	b.n	3fae <InsertDelayList+0x7e>
    3f98:	4b20      	ldr	r3, [pc, #128]	; (401c <InsertDelayList+0xec>)
    3f9a:	681a      	ldr	r2, [r3, #0]
    3f9c:	687b      	ldr	r3, [r7, #4]
    3f9e:	625a      	str	r2, [r3, #36]	; 0x24
    3fa0:	4b1e      	ldr	r3, [pc, #120]	; (401c <InsertDelayList+0xec>)
    3fa2:	681b      	ldr	r3, [r3, #0]
    3fa4:	687a      	ldr	r2, [r7, #4]
    3fa6:	629a      	str	r2, [r3, #40]	; 0x28
    3fa8:	4b1c      	ldr	r3, [pc, #112]	; (401c <InsertDelayList+0xec>)
    3faa:	687a      	ldr	r2, [r7, #4]
    3fac:	601a      	str	r2, [r3, #0]
    3fae:	687b      	ldr	r3, [r7, #4]
    3fb0:	6a5b      	ldr	r3, [r3, #36]	; 0x24
    3fb2:	6a1a      	ldr	r2, [r3, #32]
    3fb4:	68fb      	ldr	r3, [r7, #12]
    3fb6:	18d2      	adds	r2, r2, r3
    3fb8:	687b      	ldr	r3, [r7, #4]
    3fba:	621a      	str	r2, [r3, #32]
    3fbc:	687b      	ldr	r3, [r7, #4]
    3fbe:	6a5b      	ldr	r3, [r3, #36]	; 0x24
    3fc0:	687a      	ldr	r2, [r7, #4]
    3fc2:	6a52      	ldr	r2, [r2, #36]	; 0x24
    3fc4:	6a11      	ldr	r1, [r2, #32]
    3fc6:	687a      	ldr	r2, [r7, #4]
    3fc8:	6a12      	ldr	r2, [r2, #32]
    3fca:	1a8a      	subs	r2, r1, r2
    3fcc:	621a      	str	r2, [r3, #32]
    3fce:	e016      	b.n	3ffe <InsertDelayList+0xce>
    3fd0:	68fb      	ldr	r3, [r7, #12]
    3fd2:	2b00      	cmp	r3, #0
    3fd4:	db0d      	blt.n	3ff2 <InsertDelayList+0xc2>
    3fd6:	68bb      	ldr	r3, [r7, #8]
    3fd8:	6a5b      	ldr	r3, [r3, #36]	; 0x24
    3fda:	2b00      	cmp	r3, #0
    3fdc:	d109      	bne.n	3ff2 <InsertDelayList+0xc2>
    3fde:	687b      	ldr	r3, [r7, #4]
    3fe0:	68ba      	ldr	r2, [r7, #8]
    3fe2:	629a      	str	r2, [r3, #40]	; 0x28
    3fe4:	68bb      	ldr	r3, [r7, #8]
    3fe6:	687a      	ldr	r2, [r7, #4]
    3fe8:	625a      	str	r2, [r3, #36]	; 0x24
    3fea:	68fa      	ldr	r2, [r7, #12]
    3fec:	687b      	ldr	r3, [r7, #4]
    3fee:	621a      	str	r2, [r3, #32]
    3ff0:	e005      	b.n	3ffe <InsertDelayList+0xce>
    3ff2:	68bb      	ldr	r3, [r7, #8]
    3ff4:	6a5b      	ldr	r3, [r3, #36]	; 0x24
    3ff6:	60bb      	str	r3, [r7, #8]
    3ff8:	68bb      	ldr	r3, [r7, #8]
    3ffa:	2b00      	cmp	r3, #0
    3ffc:	d1b1      	bne.n	3f62 <InsertDelayList+0x32>
    3ffe:	687b      	ldr	r3, [r7, #4]
    4000:	f04f 0202 	mov.w	r2, #2
    4004:	715a      	strb	r2, [r3, #5]
    4006:	4b06      	ldr	r3, [pc, #24]	; (4020 <InsertDelayList+0xf0>)
    4008:	f04f 0201 	mov.w	r2, #1
    400c:	701a      	strb	r2, [r3, #0]
    400e:	e000      	b.n	4012 <InsertDelayList+0xe2>
    4010:	bf00      	nop
    4012:	f107 0714 	add.w	r7, r7, #20
    4016:	46bd      	mov	sp, r7
    4018:	bc80      	pop	{r7}
    401a:	4770      	bx	lr
    401c:	20003a40 	.word	0x20003a40
    4020:	20000983 	.word	0x20000983

00004024 <RemoveDelayList>:
    4024:	b480      	push	{r7}
    4026:	b083      	sub	sp, #12
    4028:	af00      	add	r7, sp, #0
    402a:	6078      	str	r0, [r7, #4]
    402c:	687b      	ldr	r3, [r7, #4]
    402e:	6a9b      	ldr	r3, [r3, #40]	; 0x28
    4030:	2b00      	cmp	r3, #0
    4032:	d108      	bne.n	4046 <RemoveDelayList+0x22>
    4034:	687b      	ldr	r3, [r7, #4]
    4036:	6a5b      	ldr	r3, [r3, #36]	; 0x24
    4038:	2b00      	cmp	r3, #0
    403a:	d104      	bne.n	4046 <RemoveDelayList+0x22>
    403c:	4b28      	ldr	r3, [pc, #160]	; (40e0 <RemoveDelayList+0xbc>)
    403e:	f04f 0200 	mov.w	r2, #0
    4042:	601a      	str	r2, [r3, #0]
    4044:	e043      	b.n	40ce <RemoveDelayList+0xaa>
    4046:	687b      	ldr	r3, [r7, #4]
    4048:	6a9b      	ldr	r3, [r3, #40]	; 0x28
    404a:	2b00      	cmp	r3, #0
    404c:	d116      	bne.n	407c <RemoveDelayList+0x58>
    404e:	687b      	ldr	r3, [r7, #4]
    4050:	6a5a      	ldr	r2, [r3, #36]	; 0x24
    4052:	4b23      	ldr	r3, [pc, #140]	; (40e0 <RemoveDelayList+0xbc>)
    4054:	601a      	str	r2, [r3, #0]
    4056:	687b      	ldr	r3, [r7, #4]
    4058:	6a5b      	ldr	r3, [r3, #36]	; 0x24
    405a:	687a      	ldr	r2, [r7, #4]
    405c:	6a52      	ldr	r2, [r2, #36]	; 0x24
    405e:	6a11      	ldr	r1, [r2, #32]
    4060:	687a      	ldr	r2, [r7, #4]
    4062:	6a12      	ldr	r2, [r2, #32]
    4064:	188a      	adds	r2, r1, r2
    4066:	621a      	str	r2, [r3, #32]
    4068:	687b      	ldr	r3, [r7, #4]
    406a:	6a5b      	ldr	r3, [r3, #36]	; 0x24
    406c:	f04f 0200 	mov.w	r2, #0
    4070:	629a      	str	r2, [r3, #40]	; 0x28
    4072:	687b      	ldr	r3, [r7, #4]
    4074:	f04f 0200 	mov.w	r2, #0
    4078:	625a      	str	r2, [r3, #36]	; 0x24
    407a:	e028      	b.n	40ce <RemoveDelayList+0xaa>
    407c:	687b      	ldr	r3, [r7, #4]
    407e:	6a5b      	ldr	r3, [r3, #36]	; 0x24
    4080:	2b00      	cmp	r3, #0
    4082:	d109      	bne.n	4098 <RemoveDelayList+0x74>
    4084:	687b      	ldr	r3, [r7, #4]
    4086:	6a9b      	ldr	r3, [r3, #40]	; 0x28
    4088:	f04f 0200 	mov.w	r2, #0
    408c:	625a      	str	r2, [r3, #36]	; 0x24
    408e:	687b      	ldr	r3, [r7, #4]
    4090:	f04f 0200 	mov.w	r2, #0
    4094:	629a      	str	r2, [r3, #40]	; 0x28
    4096:	e01a      	b.n	40ce <RemoveDelayList+0xaa>
    4098:	687b      	ldr	r3, [r7, #4]
    409a:	6a9b      	ldr	r3, [r3, #40]	; 0x28
    409c:	687a      	ldr	r2, [r7, #4]
    409e:	6a52      	ldr	r2, [r2, #36]	; 0x24
    40a0:	625a      	str	r2, [r3, #36]	; 0x24
    40a2:	687b      	ldr	r3, [r7, #4]
    40a4:	6a5b      	ldr	r3, [r3, #36]	; 0x24
    40a6:	687a      	ldr	r2, [r7, #4]
    40a8:	6a92      	ldr	r2, [r2, #40]	; 0x28
    40aa:	629a      	str	r2, [r3, #40]	; 0x28
    40ac:	687b      	ldr	r3, [r7, #4]
    40ae:	6a5b      	ldr	r3, [r3, #36]	; 0x24
    40b0:	687a      	ldr	r2, [r7, #4]
    40b2:	6a52      	ldr	r2, [r2, #36]	; 0x24
    40b4:	6a11      	ldr	r1, [r2, #32]
    40b6:	687a      	ldr	r2, [r7, #4]
    40b8:	6a12      	ldr	r2, [r2, #32]
    40ba:	188a      	adds	r2, r1, r2
    40bc:	621a      	str	r2, [r3, #32]
    40be:	687b      	ldr	r3, [r7, #4]
    40c0:	f04f 0200 	mov.w	r2, #0
    40c4:	625a      	str	r2, [r3, #36]	; 0x24
    40c6:	687b      	ldr	r3, [r7, #4]
    40c8:	f04f 0200 	mov.w	r2, #0
    40cc:	629a      	str	r2, [r3, #40]	; 0x28
    40ce:	687b      	ldr	r3, [r7, #4]
    40d0:	f04f 32ff 	mov.w	r2, #4294967295
    40d4:	621a      	str	r2, [r3, #32]
    40d6:	f107 070c 	add.w	r7, r7, #12
    40da:	46bd      	mov	sp, r7
    40dc:	bc80      	pop	{r7}
    40de:	4770      	bx	lr
    40e0:	20003a40 	.word	0x20003a40

000040e4 <CoGetOSTime>:
    40e4:	b480      	push	{r7}
    40e6:	af00      	add	r7, sp, #0
    40e8:	4b03      	ldr	r3, [pc, #12]	; (40f8 <CoGetOSTime+0x14>)
    40ea:	e9d3 2300 	ldrd	r2, r3, [r3]
    40ee:	4610      	mov	r0, r2
    40f0:	4619      	mov	r1, r3
    40f2:	46bd      	mov	sp, r7
    40f4:	bc80      	pop	{r7}
    40f6:	4770      	bx	lr
    40f8:	20003dc8 	.word	0x20003dc8

000040fc <TimeDispose>:
    40fc:	b580      	push	{r7, lr}
    40fe:	b082      	sub	sp, #8
    4100:	af00      	add	r7, sp, #0
    4102:	4b1c      	ldr	r3, [pc, #112]	; (4174 <TimeDispose+0x78>)
    4104:	681b      	ldr	r3, [r3, #0]
    4106:	607b      	str	r3, [r7, #4]
    4108:	e028      	b.n	415c <TimeDispose+0x60>
    410a:	687b      	ldr	r3, [r7, #4]
    410c:	7a1b      	ldrb	r3, [r3, #8]
    410e:	2bff      	cmp	r3, #255	; 0xff
    4110:	d002      	beq.n	4118 <TimeDispose+0x1c>
    4112:	6878      	ldr	r0, [r7, #4]
    4114:	f001 f952 	bl	53bc <RemoveEventWaittingList>
    4118:	687b      	ldr	r3, [r7, #4]
    411a:	69db      	ldr	r3, [r3, #28]
    411c:	2b00      	cmp	r3, #0
    411e:	d004      	beq.n	412a <TimeDispose+0x2e>
    4120:	687b      	ldr	r3, [r7, #4]
    4122:	69db      	ldr	r3, [r3, #28]
    4124:	4618      	mov	r0, r3
    4126:	f002 f9b9 	bl	649c <RemoveLinkNode>
    412a:	687b      	ldr	r3, [r7, #4]
    412c:	f04f 32ff 	mov.w	r2, #4294967295
    4130:	621a      	str	r2, [r3, #32]
    4132:	687b      	ldr	r3, [r7, #4]
    4134:	6a5a      	ldr	r2, [r3, #36]	; 0x24
    4136:	4b0f      	ldr	r3, [pc, #60]	; (4174 <TimeDispose+0x78>)
    4138:	601a      	str	r2, [r3, #0]
    413a:	687b      	ldr	r3, [r7, #4]
    413c:	f04f 0200 	mov.w	r2, #0
    4140:	625a      	str	r2, [r3, #36]	; 0x24
    4142:	6878      	ldr	r0, [r7, #4]
    4144:	f7fe fba2 	bl	288c <InsertToTCBRdyList>
    4148:	4b0a      	ldr	r3, [pc, #40]	; (4174 <TimeDispose+0x78>)
    414a:	681b      	ldr	r3, [r3, #0]
    414c:	607b      	str	r3, [r7, #4]
    414e:	687b      	ldr	r3, [r7, #4]
    4150:	2b00      	cmp	r3, #0
    4152:	d003      	beq.n	415c <TimeDispose+0x60>
    4154:	687b      	ldr	r3, [r7, #4]
    4156:	f04f 0200 	mov.w	r2, #0
    415a:	629a      	str	r2, [r3, #40]	; 0x28
    415c:	687b      	ldr	r3, [r7, #4]
    415e:	2b00      	cmp	r3, #0
    4160:	d003      	beq.n	416a <TimeDispose+0x6e>
    4162:	687b      	ldr	r3, [r7, #4]
    4164:	6a1b      	ldr	r3, [r3, #32]
    4166:	2b00      	cmp	r3, #0
    4168:	d0cf      	beq.n	410a <TimeDispose+0xe>
    416a:	f107 0708 	add.w	r7, r7, #8
    416e:	46bd      	mov	sp, r7
    4170:	bd80      	pop	{r7, pc}
    4172:	bf00      	nop
    4174:	20003a40 	.word	0x20003a40

00004178 <isr_TimeDispose>:
    4178:	b580      	push	{r7, lr}
    417a:	af00      	add	r7, sp, #0
    417c:	4b08      	ldr	r3, [pc, #32]	; (41a0 <isr_TimeDispose+0x28>)
    417e:	781b      	ldrb	r3, [r3, #0]
    4180:	b2db      	uxtb	r3, r3
    4182:	2b01      	cmp	r3, #1
    4184:	d908      	bls.n	4198 <isr_TimeDispose+0x20>
    4186:	4b07      	ldr	r3, [pc, #28]	; (41a4 <isr_TimeDispose+0x2c>)
    4188:	f04f 0201 	mov.w	r2, #1
    418c:	701a      	strb	r2, [r3, #0]
    418e:	4b06      	ldr	r3, [pc, #24]	; (41a8 <isr_TimeDispose+0x30>)
    4190:	f04f 0201 	mov.w	r2, #1
    4194:	701a      	strb	r2, [r3, #0]
    4196:	e001      	b.n	419c <isr_TimeDispose+0x24>
    4198:	f7ff ffb0 	bl	40fc <TimeDispose>
    419c:	bd80      	pop	{r7, pc}
    419e:	bf00      	nop
    41a0:	20000982 	.word	0x20000982
    41a4:	200037cc 	.word	0x200037cc
    41a8:	200037cd 	.word	0x200037cd

000041ac <recv_raw>:
    41ac:	b580      	push	{r7, lr}
    41ae:	b088      	sub	sp, #32
    41b0:	af00      	add	r7, sp, #0
    41b2:	60f8      	str	r0, [r7, #12]
    41b4:	60b9      	str	r1, [r7, #8]
    41b6:	607a      	str	r2, [r7, #4]
    41b8:	603b      	str	r3, [r7, #0]
    41ba:	68fb      	ldr	r3, [r7, #12]
    41bc:	61bb      	str	r3, [r7, #24]
    41be:	69bb      	ldr	r3, [r7, #24]
    41c0:	2b00      	cmp	r3, #0
    41c2:	d06b      	beq.n	429c <recv_raw+0xf0>
    41c4:	69bb      	ldr	r3, [r7, #24]
    41c6:	7a9b      	ldrb	r3, [r3, #10]
    41c8:	2bff      	cmp	r3, #255	; 0xff
    41ca:	d067      	beq.n	429c <recv_raw+0xf0>
    41cc:	687b      	ldr	r3, [r7, #4]
    41ce:	891b      	ldrh	r3, [r3, #8]
    41d0:	f04f 0003 	mov.w	r0, #3
    41d4:	4619      	mov	r1, r3
    41d6:	f04f 0200 	mov.w	r2, #0
    41da:	f7ff fb1d 	bl	3818 <pbuf_alloc>
    41de:	61f8      	str	r0, [r7, #28]
    41e0:	69fb      	ldr	r3, [r7, #28]
    41e2:	2b00      	cmp	r3, #0
    41e4:	d00c      	beq.n	4200 <recv_raw+0x54>
    41e6:	69f8      	ldr	r0, [r7, #28]
    41e8:	6879      	ldr	r1, [r7, #4]
    41ea:	f7ff fda9 	bl	3d40 <pbuf_copy>
    41ee:	4603      	mov	r3, r0
    41f0:	2b00      	cmp	r3, #0
    41f2:	d005      	beq.n	4200 <recv_raw+0x54>
    41f4:	69f8      	ldr	r0, [r7, #28]
    41f6:	f7ff fce5 	bl	3bc4 <pbuf_free>
    41fa:	f04f 0300 	mov.w	r3, #0
    41fe:	61fb      	str	r3, [r7, #28]
    4200:	69fb      	ldr	r3, [r7, #28]
    4202:	2b00      	cmp	r3, #0
    4204:	d04a      	beq.n	429c <recv_raw+0xf0>
    4206:	f04f 0005 	mov.w	r0, #5
    420a:	f7fd ffd1 	bl	21b0 <memp_malloc>
    420e:	4603      	mov	r3, r0
    4210:	617b      	str	r3, [r7, #20]
    4212:	697b      	ldr	r3, [r7, #20]
    4214:	2b00      	cmp	r3, #0
    4216:	d105      	bne.n	4224 <recv_raw+0x78>
    4218:	69f8      	ldr	r0, [r7, #28]
    421a:	f7ff fcd3 	bl	3bc4 <pbuf_free>
    421e:	f04f 0300 	mov.w	r3, #0
    4222:	e03d      	b.n	42a0 <recv_raw+0xf4>
    4224:	697b      	ldr	r3, [r7, #20]
    4226:	69fa      	ldr	r2, [r7, #28]
    4228:	601a      	str	r2, [r3, #0]
    422a:	697b      	ldr	r3, [r7, #20]
    422c:	69fa      	ldr	r2, [r7, #28]
    422e:	605a      	str	r2, [r3, #4]
    4230:	69fb      	ldr	r3, [r7, #28]
    4232:	685b      	ldr	r3, [r3, #4]
    4234:	f103 020c 	add.w	r2, r3, #12
    4238:	697b      	ldr	r3, [r7, #20]
    423a:	609a      	str	r2, [r3, #8]
    423c:	68bb      	ldr	r3, [r7, #8]
    423e:	7c1b      	ldrb	r3, [r3, #16]
    4240:	461a      	mov	r2, r3
    4242:	697b      	ldr	r3, [r7, #20]
    4244:	819a      	strh	r2, [r3, #12]
    4246:	69bb      	ldr	r3, [r7, #24]
    4248:	7a9b      	ldrb	r3, [r3, #10]
    424a:	4618      	mov	r0, r3
    424c:	6979      	ldr	r1, [r7, #20]
    424e:	f001 f985 	bl	555c <sys_mbox_trypost>
    4252:	4603      	mov	r3, r0
    4254:	2b00      	cmp	r3, #0
    4256:	d005      	beq.n	4264 <recv_raw+0xb8>
    4258:	6978      	ldr	r0, [r7, #20]
    425a:	f7fe f9cd 	bl	25f8 <netbuf_delete>
    425e:	f04f 0300 	mov.w	r3, #0
    4262:	e01d      	b.n	42a0 <recv_raw+0xf4>
    4264:	f001 fb38 	bl	58d8 <sys_arch_protect>
    4268:	6138      	str	r0, [r7, #16]
    426a:	69bb      	ldr	r3, [r7, #24]
    426c:	8a1b      	ldrh	r3, [r3, #16]
    426e:	b29a      	uxth	r2, r3
    4270:	69fb      	ldr	r3, [r7, #28]
    4272:	891b      	ldrh	r3, [r3, #8]
    4274:	18d3      	adds	r3, r2, r3
    4276:	b29b      	uxth	r3, r3
    4278:	b29a      	uxth	r2, r3
    427a:	69bb      	ldr	r3, [r7, #24]
    427c:	821a      	strh	r2, [r3, #16]
    427e:	6938      	ldr	r0, [r7, #16]
    4280:	f001 fb32 	bl	58e8 <sys_arch_unprotect>
    4284:	69bb      	ldr	r3, [r7, #24]
    4286:	69db      	ldr	r3, [r3, #28]
    4288:	2b00      	cmp	r3, #0
    428a:	d007      	beq.n	429c <recv_raw+0xf0>
    428c:	69bb      	ldr	r3, [r7, #24]
    428e:	69db      	ldr	r3, [r3, #28]
    4290:	69fa      	ldr	r2, [r7, #28]
    4292:	8912      	ldrh	r2, [r2, #8]
    4294:	69b8      	ldr	r0, [r7, #24]
    4296:	f04f 0100 	mov.w	r1, #0
    429a:	4798      	blx	r3
    429c:	f04f 0300 	mov.w	r3, #0
    42a0:	4618      	mov	r0, r3
    42a2:	f107 0720 	add.w	r7, r7, #32
    42a6:	46bd      	mov	sp, r7
    42a8:	bd80      	pop	{r7, pc}
    42aa:	bf00      	nop

000042ac <recv_udp>:
    42ac:	b580      	push	{r7, lr}
    42ae:	b088      	sub	sp, #32
    42b0:	af00      	add	r7, sp, #0
    42b2:	60f8      	str	r0, [r7, #12]
    42b4:	60b9      	str	r1, [r7, #8]
    42b6:	607a      	str	r2, [r7, #4]
    42b8:	603b      	str	r3, [r7, #0]
    42ba:	68fb      	ldr	r3, [r7, #12]
    42bc:	61fb      	str	r3, [r7, #28]
    42be:	69fb      	ldr	r3, [r7, #28]
    42c0:	2b00      	cmp	r3, #0
    42c2:	d003      	beq.n	42cc <recv_udp+0x20>
    42c4:	69fb      	ldr	r3, [r7, #28]
    42c6:	7a9b      	ldrb	r3, [r3, #10]
    42c8:	2bff      	cmp	r3, #255	; 0xff
    42ca:	d103      	bne.n	42d4 <recv_udp+0x28>
    42cc:	6878      	ldr	r0, [r7, #4]
    42ce:	f7ff fc79 	bl	3bc4 <pbuf_free>
    42d2:	e041      	b.n	4358 <recv_udp+0xac>
    42d4:	f04f 0005 	mov.w	r0, #5
    42d8:	f7fd ff6a 	bl	21b0 <memp_malloc>
    42dc:	4603      	mov	r3, r0
    42de:	61bb      	str	r3, [r7, #24]
    42e0:	69bb      	ldr	r3, [r7, #24]
    42e2:	2b00      	cmp	r3, #0
    42e4:	d103      	bne.n	42ee <recv_udp+0x42>
    42e6:	6878      	ldr	r0, [r7, #4]
    42e8:	f7ff fc6c 	bl	3bc4 <pbuf_free>
    42ec:	e034      	b.n	4358 <recv_udp+0xac>
    42ee:	69bb      	ldr	r3, [r7, #24]
    42f0:	687a      	ldr	r2, [r7, #4]
    42f2:	601a      	str	r2, [r3, #0]
    42f4:	69bb      	ldr	r3, [r7, #24]
    42f6:	687a      	ldr	r2, [r7, #4]
    42f8:	605a      	str	r2, [r3, #4]
    42fa:	69bb      	ldr	r3, [r7, #24]
    42fc:	683a      	ldr	r2, [r7, #0]
    42fe:	609a      	str	r2, [r3, #8]
    4300:	69bb      	ldr	r3, [r7, #24]
    4302:	8d3a      	ldrh	r2, [r7, #40]	; 0x28
    4304:	819a      	strh	r2, [r3, #12]
    4306:	69fb      	ldr	r3, [r7, #28]
    4308:	7a9b      	ldrb	r3, [r3, #10]
    430a:	4618      	mov	r0, r3
    430c:	69b9      	ldr	r1, [r7, #24]
    430e:	f001 f925 	bl	555c <sys_mbox_trypost>
    4312:	4603      	mov	r3, r0
    4314:	2b00      	cmp	r3, #0
    4316:	d003      	beq.n	4320 <recv_udp+0x74>
    4318:	69b8      	ldr	r0, [r7, #24]
    431a:	f7fe f96d 	bl	25f8 <netbuf_delete>
    431e:	e01b      	b.n	4358 <recv_udp+0xac>
    4320:	f001 fada 	bl	58d8 <sys_arch_protect>
    4324:	6178      	str	r0, [r7, #20]
    4326:	69fb      	ldr	r3, [r7, #28]
    4328:	8a1b      	ldrh	r3, [r3, #16]
    432a:	b29a      	uxth	r2, r3
    432c:	687b      	ldr	r3, [r7, #4]
    432e:	891b      	ldrh	r3, [r3, #8]
    4330:	18d3      	adds	r3, r2, r3
    4332:	b29b      	uxth	r3, r3
    4334:	b29a      	uxth	r2, r3
    4336:	69fb      	ldr	r3, [r7, #28]
    4338:	821a      	strh	r2, [r3, #16]
    433a:	6978      	ldr	r0, [r7, #20]
    433c:	f001 fad4 	bl	58e8 <sys_arch_unprotect>
    4340:	69fb      	ldr	r3, [r7, #28]
    4342:	69db      	ldr	r3, [r3, #28]
    4344:	2b00      	cmp	r3, #0
    4346:	d007      	beq.n	4358 <recv_udp+0xac>
    4348:	69fb      	ldr	r3, [r7, #28]
    434a:	69db      	ldr	r3, [r3, #28]
    434c:	687a      	ldr	r2, [r7, #4]
    434e:	8912      	ldrh	r2, [r2, #8]
    4350:	69f8      	ldr	r0, [r7, #28]
    4352:	f04f 0100 	mov.w	r1, #0
    4356:	4798      	blx	r3
    4358:	f107 0720 	add.w	r7, r7, #32
    435c:	46bd      	mov	sp, r7
    435e:	bd80      	pop	{r7, pc}

00004360 <recv_tcp>:
    4360:	b580      	push	{r7, lr}
    4362:	b088      	sub	sp, #32
    4364:	af00      	add	r7, sp, #0
    4366:	60f8      	str	r0, [r7, #12]
    4368:	60b9      	str	r1, [r7, #8]
    436a:	607a      	str	r2, [r7, #4]
    436c:	70fb      	strb	r3, [r7, #3]
    436e:	68fb      	ldr	r3, [r7, #12]
    4370:	61bb      	str	r3, [r7, #24]
    4372:	69bb      	ldr	r3, [r7, #24]
    4374:	2b00      	cmp	r3, #0
    4376:	d003      	beq.n	4380 <recv_tcp+0x20>
    4378:	69bb      	ldr	r3, [r7, #24]
    437a:	7a9b      	ldrb	r3, [r3, #10]
    437c:	2bff      	cmp	r3, #255	; 0xff
    437e:	d102      	bne.n	4386 <recv_tcp+0x26>
    4380:	f04f 03f7 	mov.w	r3, #247	; 0xf7
    4384:	e034      	b.n	43f0 <recv_tcp+0x90>
    4386:	69bb      	ldr	r3, [r7, #24]
    4388:	78fa      	ldrb	r2, [r7, #3]
    438a:	721a      	strb	r2, [r3, #8]
    438c:	687b      	ldr	r3, [r7, #4]
    438e:	2b00      	cmp	r3, #0
    4390:	d012      	beq.n	43b8 <recv_tcp+0x58>
    4392:	687b      	ldr	r3, [r7, #4]
    4394:	891b      	ldrh	r3, [r3, #8]
    4396:	83fb      	strh	r3, [r7, #30]
    4398:	f001 fa9e 	bl	58d8 <sys_arch_protect>
    439c:	6178      	str	r0, [r7, #20]
    439e:	69bb      	ldr	r3, [r7, #24]
    43a0:	8a1b      	ldrh	r3, [r3, #16]
    43a2:	b29a      	uxth	r2, r3
    43a4:	8bfb      	ldrh	r3, [r7, #30]
    43a6:	18d3      	adds	r3, r2, r3
    43a8:	b29b      	uxth	r3, r3
    43aa:	b29a      	uxth	r2, r3
    43ac:	69bb      	ldr	r3, [r7, #24]
    43ae:	821a      	strh	r2, [r3, #16]
    43b0:	6978      	ldr	r0, [r7, #20]
    43b2:	f001 fa99 	bl	58e8 <sys_arch_unprotect>
    43b6:	e002      	b.n	43be <recv_tcp+0x5e>
    43b8:	f04f 0300 	mov.w	r3, #0
    43bc:	83fb      	strh	r3, [r7, #30]
    43be:	69bb      	ldr	r3, [r7, #24]
    43c0:	7a9b      	ldrb	r3, [r3, #10]
    43c2:	4618      	mov	r0, r3
    43c4:	6879      	ldr	r1, [r7, #4]
    43c6:	f001 f8c9 	bl	555c <sys_mbox_trypost>
    43ca:	4603      	mov	r3, r0
    43cc:	2b00      	cmp	r3, #0
    43ce:	d002      	beq.n	43d6 <recv_tcp+0x76>
    43d0:	f04f 03ff 	mov.w	r3, #255	; 0xff
    43d4:	e00c      	b.n	43f0 <recv_tcp+0x90>
    43d6:	69bb      	ldr	r3, [r7, #24]
    43d8:	69db      	ldr	r3, [r3, #28]
    43da:	2b00      	cmp	r3, #0
    43dc:	d006      	beq.n	43ec <recv_tcp+0x8c>
    43de:	69bb      	ldr	r3, [r7, #24]
    43e0:	69db      	ldr	r3, [r3, #28]
    43e2:	8bfa      	ldrh	r2, [r7, #30]
    43e4:	69b8      	ldr	r0, [r7, #24]
    43e6:	f04f 0100 	mov.w	r1, #0
    43ea:	4798      	blx	r3
    43ec:	f04f 0300 	mov.w	r3, #0
    43f0:	b25b      	sxtb	r3, r3
    43f2:	4618      	mov	r0, r3
    43f4:	f107 0720 	add.w	r7, r7, #32
    43f8:	46bd      	mov	sp, r7
    43fa:	bd80      	pop	{r7, pc}

000043fc <poll_tcp>:
    43fc:	b580      	push	{r7, lr}
    43fe:	b084      	sub	sp, #16
    4400:	af00      	add	r7, sp, #0
    4402:	6078      	str	r0, [r7, #4]
    4404:	6039      	str	r1, [r7, #0]
    4406:	687b      	ldr	r3, [r7, #4]
    4408:	60fb      	str	r3, [r7, #12]
    440a:	68fb      	ldr	r3, [r7, #12]
    440c:	785b      	ldrb	r3, [r3, #1]
    440e:	2b01      	cmp	r3, #1
    4410:	d103      	bne.n	441a <poll_tcp+0x1e>
    4412:	68f8      	ldr	r0, [r7, #12]
    4414:	f000 fc94 	bl	4d40 <do_writemore>
    4418:	e006      	b.n	4428 <poll_tcp+0x2c>
    441a:	68fb      	ldr	r3, [r7, #12]
    441c:	785b      	ldrb	r3, [r3, #1]
    441e:	2b04      	cmp	r3, #4
    4420:	d102      	bne.n	4428 <poll_tcp+0x2c>
    4422:	68f8      	ldr	r0, [r7, #12]
    4424:	f000 fa8c 	bl	4940 <do_close_internal>
    4428:	f04f 0300 	mov.w	r3, #0
    442c:	b25b      	sxtb	r3, r3
    442e:	4618      	mov	r0, r3
    4430:	f107 0710 	add.w	r7, r7, #16
    4434:	46bd      	mov	sp, r7
    4436:	bd80      	pop	{r7, pc}

00004438 <sent_tcp>:
    4438:	b580      	push	{r7, lr}
    443a:	b086      	sub	sp, #24
    443c:	af00      	add	r7, sp, #0
    443e:	60f8      	str	r0, [r7, #12]
    4440:	60b9      	str	r1, [r7, #8]
    4442:	4613      	mov	r3, r2
    4444:	80fb      	strh	r3, [r7, #6]
    4446:	68fb      	ldr	r3, [r7, #12]
    4448:	617b      	str	r3, [r7, #20]
    444a:	697b      	ldr	r3, [r7, #20]
    444c:	785b      	ldrb	r3, [r3, #1]
    444e:	2b01      	cmp	r3, #1
    4450:	d103      	bne.n	445a <sent_tcp+0x22>
    4452:	6978      	ldr	r0, [r7, #20]
    4454:	f000 fc74 	bl	4d40 <do_writemore>
    4458:	e006      	b.n	4468 <sent_tcp+0x30>
    445a:	697b      	ldr	r3, [r7, #20]
    445c:	785b      	ldrb	r3, [r3, #1]
    445e:	2b04      	cmp	r3, #4
    4460:	d102      	bne.n	4468 <sent_tcp+0x30>
    4462:	6978      	ldr	r0, [r7, #20]
    4464:	f000 fa6c 	bl	4940 <do_close_internal>
    4468:	697b      	ldr	r3, [r7, #20]
    446a:	2b00      	cmp	r3, #0
    446c:	d016      	beq.n	449c <sent_tcp+0x64>
    446e:	697b      	ldr	r3, [r7, #20]
    4470:	685b      	ldr	r3, [r3, #4]
    4472:	2b00      	cmp	r3, #0
    4474:	d012      	beq.n	449c <sent_tcp+0x64>
    4476:	697b      	ldr	r3, [r7, #20]
    4478:	685b      	ldr	r3, [r3, #4]
    447a:	f8b3 206e 	ldrh.w	r2, [r3, #110]	; 0x6e
    447e:	f640 33b8 	movw	r3, #3000	; 0xbb8
    4482:	429a      	cmp	r2, r3
    4484:	d90a      	bls.n	449c <sent_tcp+0x64>
    4486:	697b      	ldr	r3, [r7, #20]
    4488:	69db      	ldr	r3, [r3, #28]
    448a:	2b00      	cmp	r3, #0
    448c:	d006      	beq.n	449c <sent_tcp+0x64>
    448e:	697b      	ldr	r3, [r7, #20]
    4490:	69db      	ldr	r3, [r3, #28]
    4492:	88fa      	ldrh	r2, [r7, #6]
    4494:	6978      	ldr	r0, [r7, #20]
    4496:	f04f 0102 	mov.w	r1, #2
    449a:	4798      	blx	r3
    449c:	f04f 0300 	mov.w	r3, #0
    44a0:	b25b      	sxtb	r3, r3
    44a2:	4618      	mov	r0, r3
    44a4:	f107 0718 	add.w	r7, r7, #24
    44a8:	46bd      	mov	sp, r7
    44aa:	bd80      	pop	{r7, pc}

000044ac <err_tcp>:
    44ac:	b580      	push	{r7, lr}
    44ae:	b084      	sub	sp, #16
    44b0:	af00      	add	r7, sp, #0
    44b2:	6078      	str	r0, [r7, #4]
    44b4:	460b      	mov	r3, r1
    44b6:	70fb      	strb	r3, [r7, #3]
    44b8:	687b      	ldr	r3, [r7, #4]
    44ba:	60fb      	str	r3, [r7, #12]
    44bc:	68fb      	ldr	r3, [r7, #12]
    44be:	f04f 0200 	mov.w	r2, #0
    44c2:	605a      	str	r2, [r3, #4]
    44c4:	68fb      	ldr	r3, [r7, #12]
    44c6:	78fa      	ldrb	r2, [r7, #3]
    44c8:	721a      	strb	r2, [r3, #8]
    44ca:	68fb      	ldr	r3, [r7, #12]
    44cc:	7a9b      	ldrb	r3, [r3, #10]
    44ce:	2bff      	cmp	r3, #255	; 0xff
    44d0:	d012      	beq.n	44f8 <err_tcp+0x4c>
    44d2:	68fb      	ldr	r3, [r7, #12]
    44d4:	69db      	ldr	r3, [r3, #28]
    44d6:	2b00      	cmp	r3, #0
    44d8:	d007      	beq.n	44ea <err_tcp+0x3e>
    44da:	68fb      	ldr	r3, [r7, #12]
    44dc:	69db      	ldr	r3, [r3, #28]
    44de:	68f8      	ldr	r0, [r7, #12]
    44e0:	f04f 0100 	mov.w	r1, #0
    44e4:	f04f 0200 	mov.w	r2, #0
    44e8:	4798      	blx	r3
    44ea:	68fb      	ldr	r3, [r7, #12]
    44ec:	7a9b      	ldrb	r3, [r3, #10]
    44ee:	4618      	mov	r0, r3
    44f0:	f04f 0100 	mov.w	r1, #0
    44f4:	f001 f822 	bl	553c <sys_mbox_post>
    44f8:	68fb      	ldr	r3, [r7, #12]
    44fa:	7a5b      	ldrb	r3, [r3, #9]
    44fc:	2bff      	cmp	r3, #255	; 0xff
    44fe:	d00c      	beq.n	451a <err_tcp+0x6e>
    4500:	68fb      	ldr	r3, [r7, #12]
    4502:	785b      	ldrb	r3, [r3, #1]
    4504:	2b03      	cmp	r3, #3
    4506:	d108      	bne.n	451a <err_tcp+0x6e>
    4508:	68fb      	ldr	r3, [r7, #12]
    450a:	f04f 0200 	mov.w	r2, #0
    450e:	705a      	strb	r2, [r3, #1]
    4510:	68fb      	ldr	r3, [r7, #12]
    4512:	7a5b      	ldrb	r3, [r3, #9]
    4514:	4618      	mov	r0, r3
    4516:	f001 f93b 	bl	5790 <sys_sem_signal>
    451a:	68fb      	ldr	r3, [r7, #12]
    451c:	7adb      	ldrb	r3, [r3, #11]
    451e:	2bff      	cmp	r3, #255	; 0xff
    4520:	d012      	beq.n	4548 <err_tcp+0x9c>
    4522:	68fb      	ldr	r3, [r7, #12]
    4524:	69db      	ldr	r3, [r3, #28]
    4526:	2b00      	cmp	r3, #0
    4528:	d007      	beq.n	453a <err_tcp+0x8e>
    452a:	68fb      	ldr	r3, [r7, #12]
    452c:	69db      	ldr	r3, [r3, #28]
    452e:	68f8      	ldr	r0, [r7, #12]
    4530:	f04f 0100 	mov.w	r1, #0
    4534:	f04f 0200 	mov.w	r2, #0
    4538:	4798      	blx	r3
    453a:	68fb      	ldr	r3, [r7, #12]
    453c:	7adb      	ldrb	r3, [r3, #11]
    453e:	4618      	mov	r0, r3
    4540:	f04f 0100 	mov.w	r1, #0
    4544:	f000 fffa 	bl	553c <sys_mbox_post>
    4548:	68fb      	ldr	r3, [r7, #12]
    454a:	785b      	ldrb	r3, [r3, #1]
    454c:	2b01      	cmp	r3, #1
    454e:	d003      	beq.n	4558 <err_tcp+0xac>
    4550:	68fb      	ldr	r3, [r7, #12]
    4552:	785b      	ldrb	r3, [r3, #1]
    4554:	2b04      	cmp	r3, #4
    4556:	d108      	bne.n	456a <err_tcp+0xbe>
    4558:	68fb      	ldr	r3, [r7, #12]
    455a:	f04f 0200 	mov.w	r2, #0
    455e:	705a      	strb	r2, [r3, #1]
    4560:	68fb      	ldr	r3, [r7, #12]
    4562:	7a5b      	ldrb	r3, [r3, #9]
    4564:	4618      	mov	r0, r3
    4566:	f001 f913 	bl	5790 <sys_sem_signal>
    456a:	f107 0710 	add.w	r7, r7, #16
    456e:	46bd      	mov	sp, r7
    4570:	bd80      	pop	{r7, pc}
    4572:	bf00      	nop

00004574 <setup_tcp>:
    4574:	b580      	push	{r7, lr}
    4576:	b084      	sub	sp, #16
    4578:	af00      	add	r7, sp, #0
    457a:	6078      	str	r0, [r7, #4]
    457c:	687b      	ldr	r3, [r7, #4]
    457e:	685b      	ldr	r3, [r3, #4]
    4580:	60fb      	str	r3, [r7, #12]
    4582:	68f8      	ldr	r0, [r7, #12]
    4584:	6879      	ldr	r1, [r7, #4]
    4586:	f7fd f821 	bl	15cc <tcp_arg>
    458a:	68f8      	ldr	r0, [r7, #12]
    458c:	490a      	ldr	r1, [pc, #40]	; (45b8 <setup_tcp+0x44>)
    458e:	f7fd f82b 	bl	15e8 <tcp_recv>
    4592:	68f8      	ldr	r0, [r7, #12]
    4594:	4909      	ldr	r1, [pc, #36]	; (45bc <setup_tcp+0x48>)
    4596:	f7fd f835 	bl	1604 <tcp_sent>
    459a:	68f8      	ldr	r0, [r7, #12]
    459c:	4908      	ldr	r1, [pc, #32]	; (45c0 <setup_tcp+0x4c>)
    459e:	f04f 0204 	mov.w	r2, #4
    45a2:	f7fd f859 	bl	1658 <tcp_poll>
    45a6:	68f8      	ldr	r0, [r7, #12]
    45a8:	4906      	ldr	r1, [pc, #24]	; (45c4 <setup_tcp+0x50>)
    45aa:	f7fd f839 	bl	1620 <tcp_err>
    45ae:	f107 0710 	add.w	r7, r7, #16
    45b2:	46bd      	mov	sp, r7
    45b4:	bd80      	pop	{r7, pc}
    45b6:	bf00      	nop
    45b8:	00004361 	.word	0x00004361
    45bc:	00004439 	.word	0x00004439
    45c0:	000043fd 	.word	0x000043fd
    45c4:	000044ad 	.word	0x000044ad

000045c8 <accept_function>:
    45c8:	b580      	push	{r7, lr}
    45ca:	b086      	sub	sp, #24
    45cc:	af00      	add	r7, sp, #0
    45ce:	60f8      	str	r0, [r7, #12]
    45d0:	60b9      	str	r1, [r7, #8]
    45d2:	4613      	mov	r3, r2
    45d4:	71fb      	strb	r3, [r7, #7]
    45d6:	68bb      	ldr	r3, [r7, #8]
    45d8:	7c1b      	ldrb	r3, [r3, #16]
    45da:	4618      	mov	r0, r3
    45dc:	f7fd f928 	bl	1830 <tcp_debug_print_state>
    45e0:	68fb      	ldr	r3, [r7, #12]
    45e2:	617b      	str	r3, [r7, #20]
    45e4:	697b      	ldr	r3, [r7, #20]
    45e6:	7adb      	ldrb	r3, [r3, #11]
    45e8:	2bff      	cmp	r3, #255	; 0xff
    45ea:	d102      	bne.n	45f2 <accept_function+0x2a>
    45ec:	f04f 03f7 	mov.w	r3, #247	; 0xf7
    45f0:	e038      	b.n	4664 <accept_function+0x9c>
    45f2:	697b      	ldr	r3, [r7, #20]
    45f4:	781a      	ldrb	r2, [r3, #0]
    45f6:	697b      	ldr	r3, [r7, #20]
    45f8:	69db      	ldr	r3, [r3, #28]
    45fa:	4610      	mov	r0, r2
    45fc:	4619      	mov	r1, r3
    45fe:	f000 f8d3 	bl	47a8 <netconn_alloc>
    4602:	6138      	str	r0, [r7, #16]
    4604:	693b      	ldr	r3, [r7, #16]
    4606:	2b00      	cmp	r3, #0
    4608:	d102      	bne.n	4610 <accept_function+0x48>
    460a:	f04f 03ff 	mov.w	r3, #255	; 0xff
    460e:	e029      	b.n	4664 <accept_function+0x9c>
    4610:	693b      	ldr	r3, [r7, #16]
    4612:	68ba      	ldr	r2, [r7, #8]
    4614:	605a      	str	r2, [r3, #4]
    4616:	6938      	ldr	r0, [r7, #16]
    4618:	f7ff ffac 	bl	4574 <setup_tcp>
    461c:	693b      	ldr	r3, [r7, #16]
    461e:	79fa      	ldrb	r2, [r7, #7]
    4620:	721a      	strb	r2, [r3, #8]
    4622:	697b      	ldr	r3, [r7, #20]
    4624:	7adb      	ldrb	r3, [r3, #11]
    4626:	4618      	mov	r0, r3
    4628:	6939      	ldr	r1, [r7, #16]
    462a:	f000 ff97 	bl	555c <sys_mbox_trypost>
    462e:	4603      	mov	r3, r0
    4630:	2b00      	cmp	r3, #0
    4632:	d009      	beq.n	4648 <accept_function+0x80>
    4634:	693b      	ldr	r3, [r7, #16]
    4636:	f04f 0200 	mov.w	r2, #0
    463a:	605a      	str	r2, [r3, #4]
    463c:	6938      	ldr	r0, [r7, #16]
    463e:	f000 f921 	bl	4884 <netconn_free>
    4642:	f04f 03ff 	mov.w	r3, #255	; 0xff
    4646:	e00d      	b.n	4664 <accept_function+0x9c>
    4648:	697b      	ldr	r3, [r7, #20]
    464a:	69db      	ldr	r3, [r3, #28]
    464c:	2b00      	cmp	r3, #0
    464e:	d007      	beq.n	4660 <accept_function+0x98>
    4650:	697b      	ldr	r3, [r7, #20]
    4652:	69db      	ldr	r3, [r3, #28]
    4654:	6978      	ldr	r0, [r7, #20]
    4656:	f04f 0100 	mov.w	r1, #0
    465a:	f04f 0200 	mov.w	r2, #0
    465e:	4798      	blx	r3
    4660:	f04f 0300 	mov.w	r3, #0
    4664:	b25b      	sxtb	r3, r3
    4666:	4618      	mov	r0, r3
    4668:	f107 0718 	add.w	r7, r7, #24
    466c:	46bd      	mov	sp, r7
    466e:	bd80      	pop	{r7, pc}

00004670 <pcb_new>:
    4670:	b590      	push	{r4, r7, lr}
    4672:	b083      	sub	sp, #12
    4674:	af00      	add	r7, sp, #0
    4676:	6078      	str	r0, [r7, #4]
    4678:	687b      	ldr	r3, [r7, #4]
    467a:	681b      	ldr	r3, [r3, #0]
    467c:	f04f 0200 	mov.w	r2, #0
    4680:	721a      	strb	r2, [r3, #8]
    4682:	687b      	ldr	r3, [r7, #4]
    4684:	681b      	ldr	r3, [r3, #0]
    4686:	781b      	ldrb	r3, [r3, #0]
    4688:	f003 03f0 	and.w	r3, r3, #240	; 0xf0
    468c:	2b20      	cmp	r3, #32
    468e:	d023      	beq.n	46d8 <pcb_new+0x68>
    4690:	2b40      	cmp	r3, #64	; 0x40
    4692:	d002      	beq.n	469a <pcb_new+0x2a>
    4694:	2b10      	cmp	r3, #16
    4696:	d046      	beq.n	4726 <pcb_new+0xb6>
    4698:	e05c      	b.n	4754 <pcb_new+0xe4>
    469a:	687b      	ldr	r3, [r7, #4]
    469c:	681c      	ldr	r4, [r3, #0]
    469e:	687b      	ldr	r3, [r7, #4]
    46a0:	791b      	ldrb	r3, [r3, #4]
    46a2:	4618      	mov	r0, r3
    46a4:	f004 fbba 	bl	8e1c <raw_new>
    46a8:	4603      	mov	r3, r0
    46aa:	6063      	str	r3, [r4, #4]
    46ac:	687b      	ldr	r3, [r7, #4]
    46ae:	681b      	ldr	r3, [r3, #0]
    46b0:	685b      	ldr	r3, [r3, #4]
    46b2:	2b00      	cmp	r3, #0
    46b4:	d105      	bne.n	46c2 <pcb_new+0x52>
    46b6:	687b      	ldr	r3, [r7, #4]
    46b8:	681b      	ldr	r3, [r3, #0]
    46ba:	f04f 02ff 	mov.w	r2, #255	; 0xff
    46be:	721a      	strb	r2, [r3, #8]
    46c0:	e04e      	b.n	4760 <pcb_new+0xf0>
    46c2:	687b      	ldr	r3, [r7, #4]
    46c4:	681b      	ldr	r3, [r3, #0]
    46c6:	685a      	ldr	r2, [r3, #4]
    46c8:	687b      	ldr	r3, [r7, #4]
    46ca:	681b      	ldr	r3, [r3, #0]
    46cc:	4610      	mov	r0, r2
    46ce:	4929      	ldr	r1, [pc, #164]	; (4774 <pcb_new+0x104>)
    46d0:	461a      	mov	r2, r3
    46d2:	f004 fb5f 	bl	8d94 <raw_recv>
    46d6:	e043      	b.n	4760 <pcb_new+0xf0>
    46d8:	687b      	ldr	r3, [r7, #4]
    46da:	681c      	ldr	r4, [r3, #0]
    46dc:	f002 fb68 	bl	6db0 <udp_new>
    46e0:	4603      	mov	r3, r0
    46e2:	6063      	str	r3, [r4, #4]
    46e4:	687b      	ldr	r3, [r7, #4]
    46e6:	681b      	ldr	r3, [r3, #0]
    46e8:	685b      	ldr	r3, [r3, #4]
    46ea:	2b00      	cmp	r3, #0
    46ec:	d105      	bne.n	46fa <pcb_new+0x8a>
    46ee:	687b      	ldr	r3, [r7, #4]
    46f0:	681b      	ldr	r3, [r3, #0]
    46f2:	f04f 02ff 	mov.w	r2, #255	; 0xff
    46f6:	721a      	strb	r2, [r3, #8]
    46f8:	e032      	b.n	4760 <pcb_new+0xf0>
    46fa:	687b      	ldr	r3, [r7, #4]
    46fc:	681b      	ldr	r3, [r3, #0]
    46fe:	781b      	ldrb	r3, [r3, #0]
    4700:	2b22      	cmp	r3, #34	; 0x22
    4702:	d105      	bne.n	4710 <pcb_new+0xa0>
    4704:	687b      	ldr	r3, [r7, #4]
    4706:	681b      	ldr	r3, [r3, #0]
    4708:	685b      	ldr	r3, [r3, #4]
    470a:	f04f 0201 	mov.w	r2, #1
    470e:	741a      	strb	r2, [r3, #16]
    4710:	687b      	ldr	r3, [r7, #4]
    4712:	681b      	ldr	r3, [r3, #0]
    4714:	685a      	ldr	r2, [r3, #4]
    4716:	687b      	ldr	r3, [r7, #4]
    4718:	681b      	ldr	r3, [r3, #0]
    471a:	4610      	mov	r0, r2
    471c:	4916      	ldr	r1, [pc, #88]	; (4778 <pcb_new+0x108>)
    471e:	461a      	mov	r2, r3
    4720:	f002 fb02 	bl	6d28 <udp_recv>
    4724:	e01c      	b.n	4760 <pcb_new+0xf0>
    4726:	687b      	ldr	r3, [r7, #4]
    4728:	681c      	ldr	r4, [r3, #0]
    472a:	f7fc ff45 	bl	15b8 <tcp_new>
    472e:	4603      	mov	r3, r0
    4730:	6063      	str	r3, [r4, #4]
    4732:	687b      	ldr	r3, [r7, #4]
    4734:	681b      	ldr	r3, [r3, #0]
    4736:	685b      	ldr	r3, [r3, #4]
    4738:	2b00      	cmp	r3, #0
    473a:	d105      	bne.n	4748 <pcb_new+0xd8>
    473c:	687b      	ldr	r3, [r7, #4]
    473e:	681b      	ldr	r3, [r3, #0]
    4740:	f04f 02ff 	mov.w	r2, #255	; 0xff
    4744:	721a      	strb	r2, [r3, #8]
    4746:	e00b      	b.n	4760 <pcb_new+0xf0>
    4748:	687b      	ldr	r3, [r7, #4]
    474a:	681b      	ldr	r3, [r3, #0]
    474c:	4618      	mov	r0, r3
    474e:	f7ff ff11 	bl	4574 <setup_tcp>
    4752:	e005      	b.n	4760 <pcb_new+0xf0>
    4754:	687b      	ldr	r3, [r7, #4]
    4756:	681b      	ldr	r3, [r3, #0]
    4758:	f04f 02f7 	mov.w	r2, #247	; 0xf7
    475c:	721a      	strb	r2, [r3, #8]
    475e:	bf00      	nop
    4760:	687b      	ldr	r3, [r7, #4]
    4762:	681b      	ldr	r3, [r3, #0]
    4764:	7a1b      	ldrb	r3, [r3, #8]
    4766:	b25b      	sxtb	r3, r3
    4768:	4618      	mov	r0, r3
    476a:	f107 070c 	add.w	r7, r7, #12
    476e:	46bd      	mov	sp, r7
    4770:	bd90      	pop	{r4, r7, pc}
    4772:	bf00      	nop
    4774:	000041ad 	.word	0x000041ad
    4778:	000042ad 	.word	0x000042ad

0000477c <do_newconn>:
    477c:	b580      	push	{r7, lr}
    477e:	b082      	sub	sp, #8
    4780:	af00      	add	r7, sp, #0
    4782:	6078      	str	r0, [r7, #4]
    4784:	687b      	ldr	r3, [r7, #4]
    4786:	681b      	ldr	r3, [r3, #0]
    4788:	685b      	ldr	r3, [r3, #4]
    478a:	2b00      	cmp	r3, #0
    478c:	d102      	bne.n	4794 <do_newconn+0x18>
    478e:	6878      	ldr	r0, [r7, #4]
    4790:	f7ff ff6e 	bl	4670 <pcb_new>
    4794:	687b      	ldr	r3, [r7, #4]
    4796:	681b      	ldr	r3, [r3, #0]
    4798:	7a5b      	ldrb	r3, [r3, #9]
    479a:	4618      	mov	r0, r3
    479c:	f000 fff8 	bl	5790 <sys_sem_signal>
    47a0:	f107 0708 	add.w	r7, r7, #8
    47a4:	46bd      	mov	sp, r7
    47a6:	bd80      	pop	{r7, pc}

000047a8 <netconn_alloc>:
    47a8:	b580      	push	{r7, lr}
    47aa:	b084      	sub	sp, #16
    47ac:	af00      	add	r7, sp, #0
    47ae:	4603      	mov	r3, r0
    47b0:	6039      	str	r1, [r7, #0]
    47b2:	71fb      	strb	r3, [r7, #7]
    47b4:	f04f 0006 	mov.w	r0, #6
    47b8:	f7fd fcfa 	bl	21b0 <memp_malloc>
    47bc:	4603      	mov	r3, r0
    47be:	60fb      	str	r3, [r7, #12]
    47c0:	68fb      	ldr	r3, [r7, #12]
    47c2:	2b00      	cmp	r3, #0
    47c4:	d102      	bne.n	47cc <netconn_alloc+0x24>
    47c6:	f04f 0300 	mov.w	r3, #0
    47ca:	e055      	b.n	4878 <netconn_alloc+0xd0>
    47cc:	68fb      	ldr	r3, [r7, #12]
    47ce:	f04f 0200 	mov.w	r2, #0
    47d2:	721a      	strb	r2, [r3, #8]
    47d4:	68fb      	ldr	r3, [r7, #12]
    47d6:	79fa      	ldrb	r2, [r7, #7]
    47d8:	701a      	strb	r2, [r3, #0]
    47da:	68fb      	ldr	r3, [r7, #12]
    47dc:	f04f 0200 	mov.w	r2, #0
    47e0:	605a      	str	r2, [r3, #4]
    47e2:	f04f 0300 	mov.w	r3, #0
    47e6:	60bb      	str	r3, [r7, #8]
    47e8:	f04f 0000 	mov.w	r0, #0
    47ec:	f000 ff64 	bl	56b8 <sys_sem_new>
    47f0:	4603      	mov	r3, r0
    47f2:	461a      	mov	r2, r3
    47f4:	68fb      	ldr	r3, [r7, #12]
    47f6:	725a      	strb	r2, [r3, #9]
    47f8:	68fb      	ldr	r3, [r7, #12]
    47fa:	7a5b      	ldrb	r3, [r3, #9]
    47fc:	2bff      	cmp	r3, #255	; 0xff
    47fe:	d107      	bne.n	4810 <netconn_alloc+0x68>
    4800:	f04f 0006 	mov.w	r0, #6
    4804:	68f9      	ldr	r1, [r7, #12]
    4806:	f7fd fd75 	bl	22f4 <memp_free>
    480a:	f04f 0300 	mov.w	r3, #0
    480e:	e033      	b.n	4878 <netconn_alloc+0xd0>
    4810:	68b8      	ldr	r0, [r7, #8]
    4812:	f000 fe3d 	bl	5490 <sys_mbox_new>
    4816:	4603      	mov	r3, r0
    4818:	461a      	mov	r2, r3
    481a:	68fb      	ldr	r3, [r7, #12]
    481c:	729a      	strb	r2, [r3, #10]
    481e:	68fb      	ldr	r3, [r7, #12]
    4820:	7a9b      	ldrb	r3, [r3, #10]
    4822:	2bff      	cmp	r3, #255	; 0xff
    4824:	d10c      	bne.n	4840 <netconn_alloc+0x98>
    4826:	68fb      	ldr	r3, [r7, #12]
    4828:	7a5b      	ldrb	r3, [r3, #9]
    482a:	4618      	mov	r0, r3
    482c:	f000 ffbe 	bl	57ac <sys_sem_free>
    4830:	f04f 0006 	mov.w	r0, #6
    4834:	68f9      	ldr	r1, [r7, #12]
    4836:	f7fd fd5d 	bl	22f4 <memp_free>
    483a:	f04f 0300 	mov.w	r3, #0
    483e:	e01b      	b.n	4878 <netconn_alloc+0xd0>
    4840:	68fb      	ldr	r3, [r7, #12]
    4842:	f04f 02ff 	mov.w	r2, #255	; 0xff
    4846:	72da      	strb	r2, [r3, #11]
    4848:	68fb      	ldr	r3, [r7, #12]
    484a:	f04f 0200 	mov.w	r2, #0
    484e:	705a      	strb	r2, [r3, #1]
    4850:	68fb      	ldr	r3, [r7, #12]
    4852:	f04f 32ff 	mov.w	r2, #4294967295
    4856:	60da      	str	r2, [r3, #12]
    4858:	68fb      	ldr	r3, [r7, #12]
    485a:	683a      	ldr	r2, [r7, #0]
    485c:	61da      	str	r2, [r3, #28]
    485e:	68fb      	ldr	r3, [r7, #12]
    4860:	f04f 0200 	mov.w	r2, #0
    4864:	821a      	strh	r2, [r3, #16]
    4866:	68fb      	ldr	r3, [r7, #12]
    4868:	f04f 0200 	mov.w	r2, #0
    486c:	615a      	str	r2, [r3, #20]
    486e:	68fb      	ldr	r3, [r7, #12]
    4870:	f04f 0200 	mov.w	r2, #0
    4874:	619a      	str	r2, [r3, #24]
    4876:	68fb      	ldr	r3, [r7, #12]
    4878:	4618      	mov	r0, r3
    487a:	f107 0710 	add.w	r7, r7, #16
    487e:	46bd      	mov	sp, r7
    4880:	bd80      	pop	{r7, pc}
    4882:	bf00      	nop

00004884 <netconn_free>:
    4884:	b580      	push	{r7, lr}
    4886:	b084      	sub	sp, #16
    4888:	af00      	add	r7, sp, #0
    488a:	6078      	str	r0, [r7, #4]
    488c:	687b      	ldr	r3, [r7, #4]
    488e:	7a9b      	ldrb	r3, [r3, #10]
    4890:	2bff      	cmp	r3, #255	; 0xff
    4892:	d025      	beq.n	48e0 <netconn_free+0x5c>
    4894:	e00f      	b.n	48b6 <netconn_free+0x32>
    4896:	687b      	ldr	r3, [r7, #4]
    4898:	781b      	ldrb	r3, [r3, #0]
    489a:	2b10      	cmp	r3, #16
    489c:	d107      	bne.n	48ae <netconn_free+0x2a>
    489e:	68fb      	ldr	r3, [r7, #12]
    48a0:	2b00      	cmp	r3, #0
    48a2:	d008      	beq.n	48b6 <netconn_free+0x32>
    48a4:	68fb      	ldr	r3, [r7, #12]
    48a6:	4618      	mov	r0, r3
    48a8:	f7ff f98c 	bl	3bc4 <pbuf_free>
    48ac:	e003      	b.n	48b6 <netconn_free+0x32>
    48ae:	68fb      	ldr	r3, [r7, #12]
    48b0:	4618      	mov	r0, r3
    48b2:	f7fd fea1 	bl	25f8 <netbuf_delete>
    48b6:	687b      	ldr	r3, [r7, #4]
    48b8:	7a9a      	ldrb	r2, [r3, #10]
    48ba:	f107 030c 	add.w	r3, r7, #12
    48be:	4610      	mov	r0, r2
    48c0:	4619      	mov	r1, r3
    48c2:	f000 fed1 	bl	5668 <sys_arch_mbox_tryfetch>
    48c6:	4603      	mov	r3, r0
    48c8:	f1b3 3fff 	cmp.w	r3, #4294967295
    48cc:	d1e3      	bne.n	4896 <netconn_free+0x12>
    48ce:	687b      	ldr	r3, [r7, #4]
    48d0:	7a9b      	ldrb	r3, [r3, #10]
    48d2:	4618      	mov	r0, r3
    48d4:	f000 fe0c 	bl	54f0 <sys_mbox_free>
    48d8:	687b      	ldr	r3, [r7, #4]
    48da:	f04f 02ff 	mov.w	r2, #255	; 0xff
    48de:	729a      	strb	r2, [r3, #10]
    48e0:	687b      	ldr	r3, [r7, #4]
    48e2:	7adb      	ldrb	r3, [r3, #11]
    48e4:	2bff      	cmp	r3, #255	; 0xff
    48e6:	d019      	beq.n	491c <netconn_free+0x98>
    48e8:	e003      	b.n	48f2 <netconn_free+0x6e>
    48ea:	68fb      	ldr	r3, [r7, #12]
    48ec:	4618      	mov	r0, r3
    48ee:	f002 fcd1 	bl	7294 <netconn_delete>
    48f2:	687b      	ldr	r3, [r7, #4]
    48f4:	7ada      	ldrb	r2, [r3, #11]
    48f6:	f107 030c 	add.w	r3, r7, #12
    48fa:	4610      	mov	r0, r2
    48fc:	4619      	mov	r1, r3
    48fe:	f000 feb3 	bl	5668 <sys_arch_mbox_tryfetch>
    4902:	4603      	mov	r3, r0
    4904:	f1b3 3fff 	cmp.w	r3, #4294967295
    4908:	d1ef      	bne.n	48ea <netconn_free+0x66>
    490a:	687b      	ldr	r3, [r7, #4]
    490c:	7adb      	ldrb	r3, [r3, #11]
    490e:	4618      	mov	r0, r3
    4910:	f000 fdee 	bl	54f0 <sys_mbox_free>
    4914:	687b      	ldr	r3, [r7, #4]
    4916:	f04f 02ff 	mov.w	r2, #255	; 0xff
    491a:	72da      	strb	r2, [r3, #11]
    491c:	687b      	ldr	r3, [r7, #4]
    491e:	7a5b      	ldrb	r3, [r3, #9]
    4920:	4618      	mov	r0, r3
    4922:	f000 ff43 	bl	57ac <sys_sem_free>
    4926:	687b      	ldr	r3, [r7, #4]
    4928:	f04f 02ff 	mov.w	r2, #255	; 0xff
    492c:	725a      	strb	r2, [r3, #9]
    492e:	f04f 0006 	mov.w	r0, #6
    4932:	6879      	ldr	r1, [r7, #4]
    4934:	f7fd fcde 	bl	22f4 <memp_free>
    4938:	f107 0710 	add.w	r7, r7, #16
    493c:	46bd      	mov	sp, r7
    493e:	bd80      	pop	{r7, pc}

00004940 <do_close_internal>:
    4940:	b580      	push	{r7, lr}
    4942:	b084      	sub	sp, #16
    4944:	af00      	add	r7, sp, #0
    4946:	6078      	str	r0, [r7, #4]
    4948:	687b      	ldr	r3, [r7, #4]
    494a:	685b      	ldr	r3, [r3, #4]
    494c:	4618      	mov	r0, r3
    494e:	f04f 0100 	mov.w	r1, #0
    4952:	f7fc fe3b 	bl	15cc <tcp_arg>
    4956:	687b      	ldr	r3, [r7, #4]
    4958:	685b      	ldr	r3, [r3, #4]
    495a:	7c1b      	ldrb	r3, [r3, #16]
    495c:	2b01      	cmp	r3, #1
    495e:	d107      	bne.n	4970 <do_close_internal+0x30>
    4960:	687b      	ldr	r3, [r7, #4]
    4962:	685b      	ldr	r3, [r3, #4]
    4964:	4618      	mov	r0, r3
    4966:	f04f 0100 	mov.w	r1, #0
    496a:	f7fc fe67 	bl	163c <tcp_accept>
    496e:	e024      	b.n	49ba <do_close_internal+0x7a>
    4970:	687b      	ldr	r3, [r7, #4]
    4972:	685b      	ldr	r3, [r3, #4]
    4974:	4618      	mov	r0, r3
    4976:	f04f 0100 	mov.w	r1, #0
    497a:	f7fc fe35 	bl	15e8 <tcp_recv>
    497e:	687b      	ldr	r3, [r7, #4]
    4980:	685b      	ldr	r3, [r3, #4]
    4982:	4618      	mov	r0, r3
    4984:	f04f 0100 	mov.w	r1, #0
    4988:	f7fc fe58 	bl	163c <tcp_accept>
    498c:	687b      	ldr	r3, [r7, #4]
    498e:	685b      	ldr	r3, [r3, #4]
    4990:	4618      	mov	r0, r3
    4992:	f04f 0100 	mov.w	r1, #0
    4996:	f7fc fe35 	bl	1604 <tcp_sent>
    499a:	687b      	ldr	r3, [r7, #4]
    499c:	685b      	ldr	r3, [r3, #4]
    499e:	4618      	mov	r0, r3
    49a0:	f04f 0100 	mov.w	r1, #0
    49a4:	f04f 0204 	mov.w	r2, #4
    49a8:	f7fc fe56 	bl	1658 <tcp_poll>
    49ac:	687b      	ldr	r3, [r7, #4]
    49ae:	685b      	ldr	r3, [r3, #4]
    49b0:	4618      	mov	r0, r3
    49b2:	f04f 0100 	mov.w	r1, #0
    49b6:	f7fc fe33 	bl	1620 <tcp_err>
    49ba:	687b      	ldr	r3, [r7, #4]
    49bc:	685b      	ldr	r3, [r3, #4]
    49be:	4618      	mov	r0, r3
    49c0:	f7fb fda6 	bl	510 <tcp_close>
    49c4:	4603      	mov	r3, r0
    49c6:	73fb      	strb	r3, [r7, #15]
    49c8:	f997 300f 	ldrsb.w	r3, [r7, #15]
    49cc:	2b00      	cmp	r3, #0
    49ce:	d129      	bne.n	4a24 <do_close_internal+0xe4>
    49d0:	687b      	ldr	r3, [r7, #4]
    49d2:	f04f 0200 	mov.w	r2, #0
    49d6:	705a      	strb	r2, [r3, #1]
    49d8:	687b      	ldr	r3, [r7, #4]
    49da:	f04f 0200 	mov.w	r2, #0
    49de:	605a      	str	r2, [r3, #4]
    49e0:	687b      	ldr	r3, [r7, #4]
    49e2:	f04f 0200 	mov.w	r2, #0
    49e6:	721a      	strb	r2, [r3, #8]
    49e8:	687b      	ldr	r3, [r7, #4]
    49ea:	69db      	ldr	r3, [r3, #28]
    49ec:	2b00      	cmp	r3, #0
    49ee:	d007      	beq.n	4a00 <do_close_internal+0xc0>
    49f0:	687b      	ldr	r3, [r7, #4]
    49f2:	69db      	ldr	r3, [r3, #28]
    49f4:	6878      	ldr	r0, [r7, #4]
    49f6:	f04f 0100 	mov.w	r1, #0
    49fa:	f04f 0200 	mov.w	r2, #0
    49fe:	4798      	blx	r3
    4a00:	687b      	ldr	r3, [r7, #4]
    4a02:	69db      	ldr	r3, [r3, #28]
    4a04:	2b00      	cmp	r3, #0
    4a06:	d007      	beq.n	4a18 <do_close_internal+0xd8>
    4a08:	687b      	ldr	r3, [r7, #4]
    4a0a:	69db      	ldr	r3, [r3, #28]
    4a0c:	6878      	ldr	r0, [r7, #4]
    4a0e:	f04f 0102 	mov.w	r1, #2
    4a12:	f04f 0200 	mov.w	r2, #0
    4a16:	4798      	blx	r3
    4a18:	687b      	ldr	r3, [r7, #4]
    4a1a:	7a5b      	ldrb	r3, [r3, #9]
    4a1c:	4618      	mov	r0, r3
    4a1e:	f000 feb7 	bl	5790 <sys_sem_signal>
    4a22:	e019      	b.n	4a58 <do_close_internal+0x118>
    4a24:	687b      	ldr	r3, [r7, #4]
    4a26:	685b      	ldr	r3, [r3, #4]
    4a28:	4618      	mov	r0, r3
    4a2a:	490d      	ldr	r1, [pc, #52]	; (4a60 <do_close_internal+0x120>)
    4a2c:	f7fc fdea 	bl	1604 <tcp_sent>
    4a30:	687b      	ldr	r3, [r7, #4]
    4a32:	685b      	ldr	r3, [r3, #4]
    4a34:	4618      	mov	r0, r3
    4a36:	490b      	ldr	r1, [pc, #44]	; (4a64 <do_close_internal+0x124>)
    4a38:	f04f 0204 	mov.w	r2, #4
    4a3c:	f7fc fe0c 	bl	1658 <tcp_poll>
    4a40:	687b      	ldr	r3, [r7, #4]
    4a42:	685b      	ldr	r3, [r3, #4]
    4a44:	4618      	mov	r0, r3
    4a46:	4908      	ldr	r1, [pc, #32]	; (4a68 <do_close_internal+0x128>)
    4a48:	f7fc fdea 	bl	1620 <tcp_err>
    4a4c:	687b      	ldr	r3, [r7, #4]
    4a4e:	685b      	ldr	r3, [r3, #4]
    4a50:	4618      	mov	r0, r3
    4a52:	6879      	ldr	r1, [r7, #4]
    4a54:	f7fc fdba 	bl	15cc <tcp_arg>
    4a58:	f107 0710 	add.w	r7, r7, #16
    4a5c:	46bd      	mov	sp, r7
    4a5e:	bd80      	pop	{r7, pc}
    4a60:	00004439 	.word	0x00004439
    4a64:	000043fd 	.word	0x000043fd
    4a68:	000044ad 	.word	0x000044ad

00004a6c <do_delconn>:
    4a6c:	b580      	push	{r7, lr}
    4a6e:	b082      	sub	sp, #8
    4a70:	af00      	add	r7, sp, #0
    4a72:	6078      	str	r0, [r7, #4]
    4a74:	687b      	ldr	r3, [r7, #4]
    4a76:	681b      	ldr	r3, [r3, #0]
    4a78:	685b      	ldr	r3, [r3, #4]
    4a7a:	2b00      	cmp	r3, #0
    4a7c:	d02a      	beq.n	4ad4 <do_delconn+0x68>
    4a7e:	687b      	ldr	r3, [r7, #4]
    4a80:	681b      	ldr	r3, [r3, #0]
    4a82:	781b      	ldrb	r3, [r3, #0]
    4a84:	f003 03f0 	and.w	r3, r3, #240	; 0xf0
    4a88:	2b20      	cmp	r3, #32
    4a8a:	d00b      	beq.n	4aa4 <do_delconn+0x38>
    4a8c:	2b40      	cmp	r3, #64	; 0x40
    4a8e:	d002      	beq.n	4a96 <do_delconn+0x2a>
    4a90:	2b10      	cmp	r3, #16
    4a92:	d014      	beq.n	4abe <do_delconn+0x52>
    4a94:	e01e      	b.n	4ad4 <do_delconn+0x68>
    4a96:	687b      	ldr	r3, [r7, #4]
    4a98:	681b      	ldr	r3, [r3, #0]
    4a9a:	685b      	ldr	r3, [r3, #4]
    4a9c:	4618      	mov	r0, r3
    4a9e:	f004 f98b 	bl	8db8 <raw_remove>
    4aa2:	e017      	b.n	4ad4 <do_delconn+0x68>
    4aa4:	687b      	ldr	r3, [r7, #4]
    4aa6:	681b      	ldr	r3, [r3, #0]
    4aa8:	685b      	ldr	r3, [r3, #4]
    4aaa:	f04f 0200 	mov.w	r2, #0
    4aae:	61da      	str	r2, [r3, #28]
    4ab0:	687b      	ldr	r3, [r7, #4]
    4ab2:	681b      	ldr	r3, [r3, #0]
    4ab4:	685b      	ldr	r3, [r3, #4]
    4ab6:	4618      	mov	r0, r3
    4ab8:	f002 f948 	bl	6d4c <udp_remove>
    4abc:	e00a      	b.n	4ad4 <do_delconn+0x68>
    4abe:	687b      	ldr	r3, [r7, #4]
    4ac0:	681b      	ldr	r3, [r3, #0]
    4ac2:	f04f 0204 	mov.w	r2, #4
    4ac6:	705a      	strb	r2, [r3, #1]
    4ac8:	687b      	ldr	r3, [r7, #4]
    4aca:	681b      	ldr	r3, [r3, #0]
    4acc:	4618      	mov	r0, r3
    4ace:	f7ff ff37 	bl	4940 <do_close_internal>
    4ad2:	e02a      	b.n	4b2a <do_delconn+0xbe>
    4ad4:	687b      	ldr	r3, [r7, #4]
    4ad6:	681b      	ldr	r3, [r3, #0]
    4ad8:	69db      	ldr	r3, [r3, #28]
    4ada:	2b00      	cmp	r3, #0
    4adc:	d00a      	beq.n	4af4 <do_delconn+0x88>
    4ade:	687b      	ldr	r3, [r7, #4]
    4ae0:	681b      	ldr	r3, [r3, #0]
    4ae2:	69db      	ldr	r3, [r3, #28]
    4ae4:	687a      	ldr	r2, [r7, #4]
    4ae6:	6812      	ldr	r2, [r2, #0]
    4ae8:	4610      	mov	r0, r2
    4aea:	f04f 0100 	mov.w	r1, #0
    4aee:	f04f 0200 	mov.w	r2, #0
    4af2:	4798      	blx	r3
    4af4:	687b      	ldr	r3, [r7, #4]
    4af6:	681b      	ldr	r3, [r3, #0]
    4af8:	69db      	ldr	r3, [r3, #28]
    4afa:	2b00      	cmp	r3, #0
    4afc:	d00a      	beq.n	4b14 <do_delconn+0xa8>
    4afe:	687b      	ldr	r3, [r7, #4]
    4b00:	681b      	ldr	r3, [r3, #0]
    4b02:	69db      	ldr	r3, [r3, #28]
    4b04:	687a      	ldr	r2, [r7, #4]
    4b06:	6812      	ldr	r2, [r2, #0]
    4b08:	4610      	mov	r0, r2
    4b0a:	f04f 0102 	mov.w	r1, #2
    4b0e:	f04f 0200 	mov.w	r2, #0
    4b12:	4798      	blx	r3
    4b14:	687b      	ldr	r3, [r7, #4]
    4b16:	681b      	ldr	r3, [r3, #0]
    4b18:	7a5b      	ldrb	r3, [r3, #9]
    4b1a:	2bff      	cmp	r3, #255	; 0xff
    4b1c:	d005      	beq.n	4b2a <do_delconn+0xbe>
    4b1e:	687b      	ldr	r3, [r7, #4]
    4b20:	681b      	ldr	r3, [r3, #0]
    4b22:	7a5b      	ldrb	r3, [r3, #9]
    4b24:	4618      	mov	r0, r3
    4b26:	f000 fe33 	bl	5790 <sys_sem_signal>
    4b2a:	f107 0708 	add.w	r7, r7, #8
    4b2e:	46bd      	mov	sp, r7
    4b30:	bd80      	pop	{r7, pc}
    4b32:	bf00      	nop

00004b34 <do_bind>:
    4b34:	b590      	push	{r4, r7, lr}
    4b36:	b083      	sub	sp, #12
    4b38:	af00      	add	r7, sp, #0
    4b3a:	6078      	str	r0, [r7, #4]
    4b3c:	687b      	ldr	r3, [r7, #4]
    4b3e:	681b      	ldr	r3, [r3, #0]
    4b40:	7a1b      	ldrb	r3, [r3, #8]
    4b42:	b25b      	sxtb	r3, r3
    4b44:	f113 0f04 	cmn.w	r3, #4
    4b48:	db46      	blt.n	4bd8 <do_bind+0xa4>
    4b4a:	687b      	ldr	r3, [r7, #4]
    4b4c:	681b      	ldr	r3, [r3, #0]
    4b4e:	685b      	ldr	r3, [r3, #4]
    4b50:	2b00      	cmp	r3, #0
    4b52:	d03c      	beq.n	4bce <do_bind+0x9a>
    4b54:	687b      	ldr	r3, [r7, #4]
    4b56:	681b      	ldr	r3, [r3, #0]
    4b58:	781b      	ldrb	r3, [r3, #0]
    4b5a:	f003 03f0 	and.w	r3, r3, #240	; 0xf0
    4b5e:	2b20      	cmp	r3, #32
    4b60:	d012      	beq.n	4b88 <do_bind+0x54>
    4b62:	2b40      	cmp	r3, #64	; 0x40
    4b64:	d002      	beq.n	4b6c <do_bind+0x38>
    4b66:	2b10      	cmp	r3, #16
    4b68:	d01f      	beq.n	4baa <do_bind+0x76>
    4b6a:	e035      	b.n	4bd8 <do_bind+0xa4>
    4b6c:	687b      	ldr	r3, [r7, #4]
    4b6e:	681c      	ldr	r4, [r3, #0]
    4b70:	687b      	ldr	r3, [r7, #4]
    4b72:	681b      	ldr	r3, [r3, #0]
    4b74:	685a      	ldr	r2, [r3, #4]
    4b76:	687b      	ldr	r3, [r7, #4]
    4b78:	685b      	ldr	r3, [r3, #4]
    4b7a:	4610      	mov	r0, r2
    4b7c:	4619      	mov	r1, r3
    4b7e:	f004 f8f1 	bl	8d64 <raw_bind>
    4b82:	4603      	mov	r3, r0
    4b84:	7223      	strb	r3, [r4, #8]
    4b86:	e027      	b.n	4bd8 <do_bind+0xa4>
    4b88:	687b      	ldr	r3, [r7, #4]
    4b8a:	681c      	ldr	r4, [r3, #0]
    4b8c:	687b      	ldr	r3, [r7, #4]
    4b8e:	681b      	ldr	r3, [r3, #0]
    4b90:	6859      	ldr	r1, [r3, #4]
    4b92:	687b      	ldr	r3, [r7, #4]
    4b94:	685a      	ldr	r2, [r3, #4]
    4b96:	687b      	ldr	r3, [r7, #4]
    4b98:	891b      	ldrh	r3, [r3, #8]
    4b9a:	4608      	mov	r0, r1
    4b9c:	4611      	mov	r1, r2
    4b9e:	461a      	mov	r2, r3
    4ba0:	f001 ffcc 	bl	6b3c <udp_bind>
    4ba4:	4603      	mov	r3, r0
    4ba6:	7223      	strb	r3, [r4, #8]
    4ba8:	e016      	b.n	4bd8 <do_bind+0xa4>
    4baa:	687b      	ldr	r3, [r7, #4]
    4bac:	681c      	ldr	r4, [r3, #0]
    4bae:	687b      	ldr	r3, [r7, #4]
    4bb0:	681b      	ldr	r3, [r3, #0]
    4bb2:	6859      	ldr	r1, [r3, #4]
    4bb4:	687b      	ldr	r3, [r7, #4]
    4bb6:	685a      	ldr	r2, [r3, #4]
    4bb8:	687b      	ldr	r3, [r7, #4]
    4bba:	891b      	ldrh	r3, [r3, #8]
    4bbc:	4608      	mov	r0, r1
    4bbe:	4611      	mov	r1, r2
    4bc0:	461a      	mov	r2, r3
    4bc2:	f7fb fdf7 	bl	7b4 <tcp_bind>
    4bc6:	4603      	mov	r3, r0
    4bc8:	7223      	strb	r3, [r4, #8]
    4bca:	bf00      	nop
    4bcc:	e004      	b.n	4bd8 <do_bind+0xa4>
    4bce:	687b      	ldr	r3, [r7, #4]
    4bd0:	681b      	ldr	r3, [r3, #0]
    4bd2:	f04f 02f7 	mov.w	r2, #247	; 0xf7
    4bd6:	721a      	strb	r2, [r3, #8]
    4bd8:	687b      	ldr	r3, [r7, #4]
    4bda:	681b      	ldr	r3, [r3, #0]
    4bdc:	7a5b      	ldrb	r3, [r3, #9]
    4bde:	4618      	mov	r0, r3
    4be0:	f000 fdd6 	bl	5790 <sys_sem_signal>
    4be4:	f107 070c 	add.w	r7, r7, #12
    4be8:	46bd      	mov	sp, r7
    4bea:	bd90      	pop	{r4, r7, pc}

00004bec <do_listen>:
    4bec:	b590      	push	{r4, r7, lr}
    4bee:	b085      	sub	sp, #20
    4bf0:	af00      	add	r7, sp, #0
    4bf2:	6078      	str	r0, [r7, #4]
    4bf4:	687b      	ldr	r3, [r7, #4]
    4bf6:	681b      	ldr	r3, [r3, #0]
    4bf8:	7a1b      	ldrb	r3, [r3, #8]
    4bfa:	b25b      	sxtb	r3, r3
    4bfc:	f113 0f04 	cmn.w	r3, #4
    4c00:	db6a      	blt.n	4cd8 <do_listen+0xec>
    4c02:	687b      	ldr	r3, [r7, #4]
    4c04:	681b      	ldr	r3, [r3, #0]
    4c06:	685b      	ldr	r3, [r3, #4]
    4c08:	2b00      	cmp	r3, #0
    4c0a:	d065      	beq.n	4cd8 <do_listen+0xec>
    4c0c:	687b      	ldr	r3, [r7, #4]
    4c0e:	681b      	ldr	r3, [r3, #0]
    4c10:	781b      	ldrb	r3, [r3, #0]
    4c12:	2b10      	cmp	r3, #16
    4c14:	d160      	bne.n	4cd8 <do_listen+0xec>
    4c16:	687b      	ldr	r3, [r7, #4]
    4c18:	681b      	ldr	r3, [r3, #0]
    4c1a:	685b      	ldr	r3, [r3, #4]
    4c1c:	7c1b      	ldrb	r3, [r3, #16]
    4c1e:	2b00      	cmp	r3, #0
    4c20:	d155      	bne.n	4cce <do_listen+0xe2>
    4c22:	687b      	ldr	r3, [r7, #4]
    4c24:	681b      	ldr	r3, [r3, #0]
    4c26:	685b      	ldr	r3, [r3, #4]
    4c28:	4618      	mov	r0, r3
    4c2a:	f04f 01ff 	mov.w	r1, #255	; 0xff
    4c2e:	f7fb fe9f 	bl	970 <tcp_listen_with_backlog>
    4c32:	60f8      	str	r0, [r7, #12]
    4c34:	68fb      	ldr	r3, [r7, #12]
    4c36:	2b00      	cmp	r3, #0
    4c38:	d105      	bne.n	4c46 <do_listen+0x5a>
    4c3a:	687b      	ldr	r3, [r7, #4]
    4c3c:	681b      	ldr	r3, [r3, #0]
    4c3e:	f04f 02ff 	mov.w	r2, #255	; 0xff
    4c42:	721a      	strb	r2, [r3, #8]
    4c44:	e048      	b.n	4cd8 <do_listen+0xec>
    4c46:	687b      	ldr	r3, [r7, #4]
    4c48:	681b      	ldr	r3, [r3, #0]
    4c4a:	7a9b      	ldrb	r3, [r3, #10]
    4c4c:	2bff      	cmp	r3, #255	; 0xff
    4c4e:	d00a      	beq.n	4c66 <do_listen+0x7a>
    4c50:	687b      	ldr	r3, [r7, #4]
    4c52:	681b      	ldr	r3, [r3, #0]
    4c54:	7a9b      	ldrb	r3, [r3, #10]
    4c56:	4618      	mov	r0, r3
    4c58:	f000 fc4a 	bl	54f0 <sys_mbox_free>
    4c5c:	687b      	ldr	r3, [r7, #4]
    4c5e:	681b      	ldr	r3, [r3, #0]
    4c60:	f04f 02ff 	mov.w	r2, #255	; 0xff
    4c64:	729a      	strb	r2, [r3, #10]
    4c66:	687b      	ldr	r3, [r7, #4]
    4c68:	681b      	ldr	r3, [r3, #0]
    4c6a:	7adb      	ldrb	r3, [r3, #11]
    4c6c:	2bff      	cmp	r3, #255	; 0xff
    4c6e:	d10f      	bne.n	4c90 <do_listen+0xa4>
    4c70:	687b      	ldr	r3, [r7, #4]
    4c72:	681c      	ldr	r4, [r3, #0]
    4c74:	f04f 0000 	mov.w	r0, #0
    4c78:	f000 fc0a 	bl	5490 <sys_mbox_new>
    4c7c:	4603      	mov	r3, r0
    4c7e:	72e3      	strb	r3, [r4, #11]
    4c80:	7ae3      	ldrb	r3, [r4, #11]
    4c82:	2bff      	cmp	r3, #255	; 0xff
    4c84:	d104      	bne.n	4c90 <do_listen+0xa4>
    4c86:	687b      	ldr	r3, [r7, #4]
    4c88:	681b      	ldr	r3, [r3, #0]
    4c8a:	f04f 02ff 	mov.w	r2, #255	; 0xff
    4c8e:	721a      	strb	r2, [r3, #8]
    4c90:	687b      	ldr	r3, [r7, #4]
    4c92:	681b      	ldr	r3, [r3, #0]
    4c94:	7a1b      	ldrb	r3, [r3, #8]
    4c96:	2b00      	cmp	r3, #0
    4c98:	d11e      	bne.n	4cd8 <do_listen+0xec>
    4c9a:	687b      	ldr	r3, [r7, #4]
    4c9c:	681b      	ldr	r3, [r3, #0]
    4c9e:	f04f 0202 	mov.w	r2, #2
    4ca2:	705a      	strb	r2, [r3, #1]
    4ca4:	687b      	ldr	r3, [r7, #4]
    4ca6:	681b      	ldr	r3, [r3, #0]
    4ca8:	68fa      	ldr	r2, [r7, #12]
    4caa:	605a      	str	r2, [r3, #4]
    4cac:	687b      	ldr	r3, [r7, #4]
    4cae:	681b      	ldr	r3, [r3, #0]
    4cb0:	685a      	ldr	r2, [r3, #4]
    4cb2:	687b      	ldr	r3, [r7, #4]
    4cb4:	681b      	ldr	r3, [r3, #0]
    4cb6:	4610      	mov	r0, r2
    4cb8:	4619      	mov	r1, r3
    4cba:	f7fc fc87 	bl	15cc <tcp_arg>
    4cbe:	687b      	ldr	r3, [r7, #4]
    4cc0:	681b      	ldr	r3, [r3, #0]
    4cc2:	685b      	ldr	r3, [r3, #4]
    4cc4:	4618      	mov	r0, r3
    4cc6:	4909      	ldr	r1, [pc, #36]	; (4cec <do_listen+0x100>)
    4cc8:	f7fc fcb8 	bl	163c <tcp_accept>
    4ccc:	e004      	b.n	4cd8 <do_listen+0xec>
    4cce:	687b      	ldr	r3, [r7, #4]
    4cd0:	681b      	ldr	r3, [r3, #0]
    4cd2:	f04f 02f8 	mov.w	r2, #248	; 0xf8
    4cd6:	721a      	strb	r2, [r3, #8]
    4cd8:	687b      	ldr	r3, [r7, #4]
    4cda:	681b      	ldr	r3, [r3, #0]
    4cdc:	7a5b      	ldrb	r3, [r3, #9]
    4cde:	4618      	mov	r0, r3
    4ce0:	f000 fd56 	bl	5790 <sys_sem_signal>
    4ce4:	f107 0714 	add.w	r7, r7, #20
    4ce8:	46bd      	mov	sp, r7
    4cea:	bd90      	pop	{r4, r7, pc}
    4cec:	000045c9 	.word	0x000045c9

00004cf0 <do_recv>:
    4cf0:	b580      	push	{r7, lr}
    4cf2:	b082      	sub	sp, #8
    4cf4:	af00      	add	r7, sp, #0
    4cf6:	6078      	str	r0, [r7, #4]
    4cf8:	687b      	ldr	r3, [r7, #4]
    4cfa:	681b      	ldr	r3, [r3, #0]
    4cfc:	7a1b      	ldrb	r3, [r3, #8]
    4cfe:	b25b      	sxtb	r3, r3
    4d00:	f113 0f04 	cmn.w	r3, #4
    4d04:	db12      	blt.n	4d2c <do_recv+0x3c>
    4d06:	687b      	ldr	r3, [r7, #4]
    4d08:	681b      	ldr	r3, [r3, #0]
    4d0a:	685b      	ldr	r3, [r3, #4]
    4d0c:	2b00      	cmp	r3, #0
    4d0e:	d00d      	beq.n	4d2c <do_recv+0x3c>
    4d10:	687b      	ldr	r3, [r7, #4]
    4d12:	681b      	ldr	r3, [r3, #0]
    4d14:	781b      	ldrb	r3, [r3, #0]
    4d16:	2b10      	cmp	r3, #16
    4d18:	d108      	bne.n	4d2c <do_recv+0x3c>
    4d1a:	687b      	ldr	r3, [r7, #4]
    4d1c:	681b      	ldr	r3, [r3, #0]
    4d1e:	685a      	ldr	r2, [r3, #4]
    4d20:	687b      	ldr	r3, [r7, #4]
    4d22:	889b      	ldrh	r3, [r3, #4]
    4d24:	4610      	mov	r0, r2
    4d26:	4619      	mov	r1, r3
    4d28:	f7fb fef4 	bl	b14 <tcp_recved>
    4d2c:	687b      	ldr	r3, [r7, #4]
    4d2e:	681b      	ldr	r3, [r3, #0]
    4d30:	7a5b      	ldrb	r3, [r3, #9]
    4d32:	4618      	mov	r0, r3
    4d34:	f000 fd2c 	bl	5790 <sys_sem_signal>
    4d38:	f107 0708 	add.w	r7, r7, #8
    4d3c:	46bd      	mov	sp, r7
    4d3e:	bd80      	pop	{r7, pc}

00004d40 <do_writemore>:
    4d40:	b580      	push	{r7, lr}
    4d42:	b086      	sub	sp, #24
    4d44:	af00      	add	r7, sp, #0
    4d46:	6078      	str	r0, [r7, #4]
    4d48:	f04f 0300 	mov.w	r3, #0
    4d4c:	757b      	strb	r3, [r7, #21]
    4d4e:	687b      	ldr	r3, [r7, #4]
    4d50:	695b      	ldr	r3, [r3, #20]
    4d52:	685a      	ldr	r2, [r3, #4]
    4d54:	687b      	ldr	r3, [r7, #4]
    4d56:	699b      	ldr	r3, [r3, #24]
    4d58:	18d3      	adds	r3, r2, r3
    4d5a:	613b      	str	r3, [r7, #16]
    4d5c:	687b      	ldr	r3, [r7, #4]
    4d5e:	695b      	ldr	r3, [r3, #20]
    4d60:	689a      	ldr	r2, [r3, #8]
    4d62:	687b      	ldr	r3, [r7, #4]
    4d64:	699b      	ldr	r3, [r3, #24]
    4d66:	1ad3      	subs	r3, r2, r3
    4d68:	60fb      	str	r3, [r7, #12]
    4d6a:	68fa      	ldr	r2, [r7, #12]
    4d6c:	f64f 73ff 	movw	r3, #65535	; 0xffff
    4d70:	429a      	cmp	r2, r3
    4d72:	d903      	bls.n	4d7c <do_writemore+0x3c>
    4d74:	f64f 73ff 	movw	r3, #65535	; 0xffff
    4d78:	82fb      	strh	r3, [r7, #22]
    4d7a:	e001      	b.n	4d80 <do_writemore+0x40>
    4d7c:	68fb      	ldr	r3, [r7, #12]
    4d7e:	82fb      	strh	r3, [r7, #22]
    4d80:	687b      	ldr	r3, [r7, #4]
    4d82:	685b      	ldr	r3, [r3, #4]
    4d84:	f8b3 306e 	ldrh.w	r3, [r3, #110]	; 0x6e
    4d88:	817b      	strh	r3, [r7, #10]
    4d8a:	897a      	ldrh	r2, [r7, #10]
    4d8c:	8afb      	ldrh	r3, [r7, #22]
    4d8e:	429a      	cmp	r2, r3
    4d90:	d201      	bcs.n	4d96 <do_writemore+0x56>
    4d92:	897b      	ldrh	r3, [r7, #10]
    4d94:	82fb      	strh	r3, [r7, #22]
    4d96:	687b      	ldr	r3, [r7, #4]
    4d98:	6859      	ldr	r1, [r3, #4]
    4d9a:	687b      	ldr	r3, [r7, #4]
    4d9c:	695b      	ldr	r3, [r3, #20]
    4d9e:	7b1b      	ldrb	r3, [r3, #12]
    4da0:	8afa      	ldrh	r2, [r7, #22]
    4da2:	4608      	mov	r0, r1
    4da4:	6939      	ldr	r1, [r7, #16]
    4da6:	f002 fe11 	bl	79cc <tcp_write>
    4daa:	4603      	mov	r3, r0
    4dac:	727b      	strb	r3, [r7, #9]
    4dae:	f997 3009 	ldrsb.w	r3, [r7, #9]
    4db2:	2b00      	cmp	r3, #0
    4db4:	d161      	bne.n	4e7a <do_writemore+0x13a>
    4db6:	687b      	ldr	r3, [r7, #4]
    4db8:	699a      	ldr	r2, [r3, #24]
    4dba:	8afb      	ldrh	r3, [r7, #22]
    4dbc:	18d2      	adds	r2, r2, r3
    4dbe:	687b      	ldr	r3, [r7, #4]
    4dc0:	619a      	str	r2, [r3, #24]
    4dc2:	687b      	ldr	r3, [r7, #4]
    4dc4:	699a      	ldr	r2, [r3, #24]
    4dc6:	687b      	ldr	r3, [r7, #4]
    4dc8:	695b      	ldr	r3, [r3, #20]
    4dca:	689b      	ldr	r3, [r3, #8]
    4dcc:	429a      	cmp	r2, r3
    4dce:	d10e      	bne.n	4dee <do_writemore+0xae>
    4dd0:	f04f 0301 	mov.w	r3, #1
    4dd4:	757b      	strb	r3, [r7, #21]
    4dd6:	687b      	ldr	r3, [r7, #4]
    4dd8:	f04f 0200 	mov.w	r2, #0
    4ddc:	615a      	str	r2, [r3, #20]
    4dde:	687b      	ldr	r3, [r7, #4]
    4de0:	f04f 0200 	mov.w	r2, #0
    4de4:	619a      	str	r2, [r3, #24]
    4de6:	687b      	ldr	r3, [r7, #4]
    4de8:	f04f 0200 	mov.w	r2, #0
    4dec:	705a      	strb	r2, [r3, #1]
    4dee:	687b      	ldr	r3, [r7, #4]
    4df0:	685b      	ldr	r3, [r3, #4]
    4df2:	6f9b      	ldr	r3, [r3, #120]	; 0x78
    4df4:	2b00      	cmp	r3, #0
    4df6:	d01b      	beq.n	4e30 <do_writemore+0xf0>
    4df8:	687b      	ldr	r3, [r7, #4]
    4dfa:	685b      	ldr	r3, [r3, #4]
    4dfc:	f893 3022 	ldrb.w	r3, [r3, #34]	; 0x22
    4e00:	f003 0344 	and.w	r3, r3, #68	; 0x44
    4e04:	2b00      	cmp	r3, #0
    4e06:	d113      	bne.n	4e30 <do_writemore+0xf0>
    4e08:	687b      	ldr	r3, [r7, #4]
    4e0a:	685b      	ldr	r3, [r3, #4]
    4e0c:	6f5b      	ldr	r3, [r3, #116]	; 0x74
    4e0e:	2b00      	cmp	r3, #0
    4e10:	d015      	beq.n	4e3e <do_writemore+0xfe>
    4e12:	687b      	ldr	r3, [r7, #4]
    4e14:	685b      	ldr	r3, [r3, #4]
    4e16:	6f5b      	ldr	r3, [r3, #116]	; 0x74
    4e18:	681b      	ldr	r3, [r3, #0]
    4e1a:	2b00      	cmp	r3, #0
    4e1c:	d108      	bne.n	4e30 <do_writemore+0xf0>
    4e1e:	687b      	ldr	r3, [r7, #4]
    4e20:	685b      	ldr	r3, [r3, #4]
    4e22:	6f5b      	ldr	r3, [r3, #116]	; 0x74
    4e24:	899a      	ldrh	r2, [r3, #12]
    4e26:	687b      	ldr	r3, [r7, #4]
    4e28:	685b      	ldr	r3, [r3, #4]
    4e2a:	8f1b      	ldrh	r3, [r3, #56]	; 0x38
    4e2c:	429a      	cmp	r2, r3
    4e2e:	d306      	bcc.n	4e3e <do_writemore+0xfe>
    4e30:	687b      	ldr	r3, [r7, #4]
    4e32:	685b      	ldr	r3, [r3, #4]
    4e34:	4618      	mov	r0, r3
    4e36:	f003 fa39 	bl	82ac <tcp_output>
    4e3a:	4603      	mov	r3, r0
    4e3c:	e001      	b.n	4e42 <do_writemore+0x102>
    4e3e:	f04f 0300 	mov.w	r3, #0
    4e42:	727b      	strb	r3, [r7, #9]
    4e44:	687b      	ldr	r3, [r7, #4]
    4e46:	7a7a      	ldrb	r2, [r7, #9]
    4e48:	721a      	strb	r2, [r3, #8]
    4e4a:	f997 3009 	ldrsb.w	r3, [r7, #9]
    4e4e:	2b00      	cmp	r3, #0
    4e50:	d126      	bne.n	4ea0 <do_writemore+0x160>
    4e52:	687b      	ldr	r3, [r7, #4]
    4e54:	685b      	ldr	r3, [r3, #4]
    4e56:	f8b3 206e 	ldrh.w	r2, [r3, #110]	; 0x6e
    4e5a:	f640 33b8 	movw	r3, #3000	; 0xbb8
    4e5e:	429a      	cmp	r2, r3
    4e60:	d81e      	bhi.n	4ea0 <do_writemore+0x160>
    4e62:	687b      	ldr	r3, [r7, #4]
    4e64:	69db      	ldr	r3, [r3, #28]
    4e66:	2b00      	cmp	r3, #0
    4e68:	d01a      	beq.n	4ea0 <do_writemore+0x160>
    4e6a:	687b      	ldr	r3, [r7, #4]
    4e6c:	69db      	ldr	r3, [r3, #28]
    4e6e:	8afa      	ldrh	r2, [r7, #22]
    4e70:	6878      	ldr	r0, [r7, #4]
    4e72:	f04f 0103 	mov.w	r1, #3
    4e76:	4798      	blx	r3
    4e78:	e012      	b.n	4ea0 <do_writemore+0x160>
    4e7a:	f997 3009 	ldrsb.w	r3, [r7, #9]
    4e7e:	f1b3 3fff 	cmp.w	r3, #4294967295
    4e82:	d107      	bne.n	4e94 <do_writemore+0x154>
    4e84:	687b      	ldr	r3, [r7, #4]
    4e86:	685b      	ldr	r3, [r3, #4]
    4e88:	4618      	mov	r0, r3
    4e8a:	f003 fa0f 	bl	82ac <tcp_output>
    4e8e:	4603      	mov	r3, r0
    4e90:	727b      	strb	r3, [r7, #9]
    4e92:	e005      	b.n	4ea0 <do_writemore+0x160>
    4e94:	687b      	ldr	r3, [r7, #4]
    4e96:	7a7a      	ldrb	r2, [r7, #9]
    4e98:	721a      	strb	r2, [r3, #8]
    4e9a:	f04f 0301 	mov.w	r3, #1
    4e9e:	757b      	strb	r3, [r7, #21]
    4ea0:	7d7b      	ldrb	r3, [r7, #21]
    4ea2:	2b00      	cmp	r3, #0
    4ea4:	d008      	beq.n	4eb8 <do_writemore+0x178>
    4ea6:	687b      	ldr	r3, [r7, #4]
    4ea8:	f04f 0200 	mov.w	r2, #0
    4eac:	705a      	strb	r2, [r3, #1]
    4eae:	687b      	ldr	r3, [r7, #4]
    4eb0:	7a5b      	ldrb	r3, [r3, #9]
    4eb2:	4618      	mov	r0, r3
    4eb4:	f000 fc6c 	bl	5790 <sys_sem_signal>
    4eb8:	f04f 0300 	mov.w	r3, #0
    4ebc:	b25b      	sxtb	r3, r3
    4ebe:	4618      	mov	r0, r3
    4ec0:	f107 0718 	add.w	r7, r7, #24
    4ec4:	46bd      	mov	sp, r7
    4ec6:	bd80      	pop	{r7, pc}

00004ec8 <do_write>:
    4ec8:	b580      	push	{r7, lr}
    4eca:	b082      	sub	sp, #8
    4ecc:	af00      	add	r7, sp, #0
    4ece:	6078      	str	r0, [r7, #4]
    4ed0:	687b      	ldr	r3, [r7, #4]
    4ed2:	681b      	ldr	r3, [r3, #0]
    4ed4:	7a1b      	ldrb	r3, [r3, #8]
    4ed6:	b25b      	sxtb	r3, r3
    4ed8:	f113 0f04 	cmn.w	r3, #4
    4edc:	db26      	blt.n	4f2c <do_write+0x64>
    4ede:	687b      	ldr	r3, [r7, #4]
    4ee0:	681b      	ldr	r3, [r3, #0]
    4ee2:	685b      	ldr	r3, [r3, #4]
    4ee4:	2b00      	cmp	r3, #0
    4ee6:	d01c      	beq.n	4f22 <do_write+0x5a>
    4ee8:	687b      	ldr	r3, [r7, #4]
    4eea:	681b      	ldr	r3, [r3, #0]
    4eec:	781b      	ldrb	r3, [r3, #0]
    4eee:	2b10      	cmp	r3, #16
    4ef0:	d117      	bne.n	4f22 <do_write+0x5a>
    4ef2:	687b      	ldr	r3, [r7, #4]
    4ef4:	681b      	ldr	r3, [r3, #0]
    4ef6:	f04f 0201 	mov.w	r2, #1
    4efa:	705a      	strb	r2, [r3, #1]
    4efc:	687b      	ldr	r3, [r7, #4]
    4efe:	681b      	ldr	r3, [r3, #0]
    4f00:	695b      	ldr	r3, [r3, #20]
    4f02:	2b00      	cmp	r3, #0
    4f04:	687b      	ldr	r3, [r7, #4]
    4f06:	681b      	ldr	r3, [r3, #0]
    4f08:	687a      	ldr	r2, [r7, #4]
    4f0a:	615a      	str	r2, [r3, #20]
    4f0c:	687b      	ldr	r3, [r7, #4]
    4f0e:	681b      	ldr	r3, [r3, #0]
    4f10:	f04f 0200 	mov.w	r2, #0
    4f14:	619a      	str	r2, [r3, #24]
    4f16:	687b      	ldr	r3, [r7, #4]
    4f18:	681b      	ldr	r3, [r3, #0]
    4f1a:	4618      	mov	r0, r3
    4f1c:	f7ff ff10 	bl	4d40 <do_writemore>
    4f20:	e00a      	b.n	4f38 <do_write+0x70>
    4f22:	687b      	ldr	r3, [r7, #4]
    4f24:	681b      	ldr	r3, [r3, #0]
    4f26:	f04f 02f7 	mov.w	r2, #247	; 0xf7
    4f2a:	721a      	strb	r2, [r3, #8]
    4f2c:	687b      	ldr	r3, [r7, #4]
    4f2e:	681b      	ldr	r3, [r3, #0]
    4f30:	7a5b      	ldrb	r3, [r3, #9]
    4f32:	4618      	mov	r0, r3
    4f34:	f000 fc2c 	bl	5790 <sys_sem_signal>
    4f38:	f107 0708 	add.w	r7, r7, #8
    4f3c:	46bd      	mov	sp, r7
    4f3e:	bd80      	pop	{r7, pc}

00004f40 <do_close>:
    4f40:	b580      	push	{r7, lr}
    4f42:	b082      	sub	sp, #8
    4f44:	af00      	add	r7, sp, #0
    4f46:	6078      	str	r0, [r7, #4]
    4f48:	687b      	ldr	r3, [r7, #4]
    4f4a:	681b      	ldr	r3, [r3, #0]
    4f4c:	685b      	ldr	r3, [r3, #4]
    4f4e:	2b00      	cmp	r3, #0
    4f50:	d00f      	beq.n	4f72 <do_close+0x32>
    4f52:	687b      	ldr	r3, [r7, #4]
    4f54:	681b      	ldr	r3, [r3, #0]
    4f56:	781b      	ldrb	r3, [r3, #0]
    4f58:	2b10      	cmp	r3, #16
    4f5a:	d10a      	bne.n	4f72 <do_close+0x32>
    4f5c:	687b      	ldr	r3, [r7, #4]
    4f5e:	681b      	ldr	r3, [r3, #0]
    4f60:	f04f 0204 	mov.w	r2, #4
    4f64:	705a      	strb	r2, [r3, #1]
    4f66:	687b      	ldr	r3, [r7, #4]
    4f68:	681b      	ldr	r3, [r3, #0]
    4f6a:	4618      	mov	r0, r3
    4f6c:	f7ff fce8 	bl	4940 <do_close_internal>
    4f70:	e00a      	b.n	4f88 <do_close+0x48>
    4f72:	687b      	ldr	r3, [r7, #4]
    4f74:	681b      	ldr	r3, [r3, #0]
    4f76:	f04f 02f7 	mov.w	r2, #247	; 0xf7
    4f7a:	721a      	strb	r2, [r3, #8]
    4f7c:	687b      	ldr	r3, [r7, #4]
    4f7e:	681b      	ldr	r3, [r3, #0]
    4f80:	7a5b      	ldrb	r3, [r3, #9]
    4f82:	4618      	mov	r0, r3
    4f84:	f000 fc04 	bl	5790 <sys_sem_signal>
    4f88:	f107 0708 	add.w	r7, r7, #8
    4f8c:	46bd      	mov	sp, r7
    4f8e:	bd80      	pop	{r7, pc}

00004f90 <CreateEventList>:
    4f90:	b480      	push	{r7}
    4f92:	b085      	sub	sp, #20
    4f94:	af00      	add	r7, sp, #0
    4f96:	f04f 0300 	mov.w	r3, #0
    4f9a:	73fb      	strb	r3, [r7, #15]
    4f9c:	4b1b      	ldr	r3, [pc, #108]	; (500c <CreateEventList+0x7c>)
    4f9e:	60bb      	str	r3, [r7, #8]
    4fa0:	4b1b      	ldr	r3, [pc, #108]	; (5010 <CreateEventList+0x80>)
    4fa2:	607b      	str	r3, [r7, #4]
    4fa4:	e018      	b.n	4fd8 <CreateEventList+0x48>
    4fa6:	68bb      	ldr	r3, [r7, #8]
    4fa8:	687a      	ldr	r2, [r7, #4]
    4faa:	601a      	str	r2, [r3, #0]
    4fac:	68bb      	ldr	r3, [r7, #8]
    4fae:	7bfa      	ldrb	r2, [r7, #15]
    4fb0:	711a      	strb	r2, [r3, #4]
    4fb2:	68ba      	ldr	r2, [r7, #8]
    4fb4:	7953      	ldrb	r3, [r2, #5]
    4fb6:	f04f 0104 	mov.w	r1, #4
    4fba:	f361 0303 	bfi	r3, r1, #0, #4
    4fbe:	7153      	strb	r3, [r2, #5]
    4fc0:	68bb      	ldr	r3, [r7, #8]
    4fc2:	f103 0310 	add.w	r3, r3, #16
    4fc6:	60bb      	str	r3, [r7, #8]
    4fc8:	687b      	ldr	r3, [r7, #4]
    4fca:	f103 0310 	add.w	r3, r3, #16
    4fce:	607b      	str	r3, [r7, #4]
    4fd0:	7bfb      	ldrb	r3, [r7, #15]
    4fd2:	f103 0301 	add.w	r3, r3, #1
    4fd6:	73fb      	strb	r3, [r7, #15]
    4fd8:	7bfb      	ldrb	r3, [r7, #15]
    4fda:	2b12      	cmp	r3, #18
    4fdc:	d9e3      	bls.n	4fa6 <CreateEventList+0x16>
    4fde:	68ba      	ldr	r2, [r7, #8]
    4fe0:	7953      	ldrb	r3, [r2, #5]
    4fe2:	f04f 0104 	mov.w	r1, #4
    4fe6:	f361 0303 	bfi	r3, r1, #0, #4
    4fea:	7153      	strb	r3, [r2, #5]
    4fec:	68bb      	ldr	r3, [r7, #8]
    4fee:	f04f 0200 	mov.w	r2, #0
    4ff2:	601a      	str	r2, [r3, #0]
    4ff4:	68bb      	ldr	r3, [r7, #8]
    4ff6:	7bfa      	ldrb	r2, [r7, #15]
    4ff8:	711a      	strb	r2, [r3, #4]
    4ffa:	4b06      	ldr	r3, [pc, #24]	; (5014 <CreateEventList+0x84>)
    4ffc:	4a03      	ldr	r2, [pc, #12]	; (500c <CreateEventList+0x7c>)
    4ffe:	601a      	str	r2, [r3, #0]
    5000:	f107 0714 	add.w	r7, r7, #20
    5004:	46bd      	mov	sp, r7
    5006:	bc80      	pop	{r7}
    5008:	4770      	bx	lr
    500a:	bf00      	nop
    500c:	20003a44 	.word	0x20003a44
    5010:	20003a54 	.word	0x20003a54
    5014:	20003b84 	.word	0x20003b84

00005018 <ReleaseECB>:
    5018:	b580      	push	{r7, lr}
    501a:	b082      	sub	sp, #8
    501c:	af00      	add	r7, sp, #0
    501e:	6078      	str	r0, [r7, #4]
    5020:	687a      	ldr	r2, [r7, #4]
    5022:	7953      	ldrb	r3, [r2, #5]
    5024:	f04f 0104 	mov.w	r1, #4
    5028:	f361 0303 	bfi	r3, r1, #0, #4
    502c:	7153      	strb	r3, [r2, #5]
    502e:	4b0a      	ldr	r3, [pc, #40]	; (5058 <ReleaseECB+0x40>)
    5030:	781b      	ldrb	r3, [r3, #0]
    5032:	b2db      	uxtb	r3, r3
    5034:	f103 0301 	add.w	r3, r3, #1
    5038:	b2da      	uxtb	r2, r3
    503a:	4b07      	ldr	r3, [pc, #28]	; (5058 <ReleaseECB+0x40>)
    503c:	701a      	strb	r2, [r3, #0]
    503e:	4b07      	ldr	r3, [pc, #28]	; (505c <ReleaseECB+0x44>)
    5040:	681a      	ldr	r2, [r3, #0]
    5042:	687b      	ldr	r3, [r7, #4]
    5044:	601a      	str	r2, [r3, #0]
    5046:	4b05      	ldr	r3, [pc, #20]	; (505c <ReleaseECB+0x44>)
    5048:	687a      	ldr	r2, [r7, #4]
    504a:	601a      	str	r2, [r3, #0]
    504c:	f7fc fc2a 	bl	18a4 <OsSchedUnlock>
    5050:	f107 0708 	add.w	r7, r7, #8
    5054:	46bd      	mov	sp, r7
    5056:	bd80      	pop	{r7, pc}
    5058:	20000982 	.word	0x20000982
    505c:	20003b84 	.word	0x20003b84

00005060 <CreatEvent>:
    5060:	b580      	push	{r7, lr}
    5062:	b084      	sub	sp, #16
    5064:	af00      	add	r7, sp, #0
    5066:	460b      	mov	r3, r1
    5068:	603a      	str	r2, [r7, #0]
    506a:	4602      	mov	r2, r0
    506c:	71fa      	strb	r2, [r7, #7]
    506e:	71bb      	strb	r3, [r7, #6]
    5070:	4b1d      	ldr	r3, [pc, #116]	; (50e8 <CreatEvent+0x88>)
    5072:	781b      	ldrb	r3, [r3, #0]
    5074:	b2db      	uxtb	r3, r3
    5076:	f103 0301 	add.w	r3, r3, #1
    507a:	b2da      	uxtb	r2, r3
    507c:	4b1a      	ldr	r3, [pc, #104]	; (50e8 <CreatEvent+0x88>)
    507e:	701a      	strb	r2, [r3, #0]
    5080:	4b1a      	ldr	r3, [pc, #104]	; (50ec <CreatEvent+0x8c>)
    5082:	681b      	ldr	r3, [r3, #0]
    5084:	2b00      	cmp	r3, #0
    5086:	d104      	bne.n	5092 <CreatEvent+0x32>
    5088:	f7fc fc0c 	bl	18a4 <OsSchedUnlock>
    508c:	f04f 0300 	mov.w	r3, #0
    5090:	e024      	b.n	50dc <CreatEvent+0x7c>
    5092:	4b16      	ldr	r3, [pc, #88]	; (50ec <CreatEvent+0x8c>)
    5094:	681b      	ldr	r3, [r3, #0]
    5096:	60fb      	str	r3, [r7, #12]
    5098:	4b14      	ldr	r3, [pc, #80]	; (50ec <CreatEvent+0x8c>)
    509a:	681b      	ldr	r3, [r3, #0]
    509c:	681b      	ldr	r3, [r3, #0]
    509e:	461a      	mov	r2, r3
    50a0:	4b12      	ldr	r3, [pc, #72]	; (50ec <CreatEvent+0x8c>)
    50a2:	601a      	str	r2, [r3, #0]
    50a4:	f7fc fbfe 	bl	18a4 <OsSchedUnlock>
    50a8:	79fb      	ldrb	r3, [r7, #7]
    50aa:	f003 030f 	and.w	r3, r3, #15
    50ae:	b2d9      	uxtb	r1, r3
    50b0:	68fa      	ldr	r2, [r7, #12]
    50b2:	7953      	ldrb	r3, [r2, #5]
    50b4:	f361 0303 	bfi	r3, r1, #0, #4
    50b8:	7153      	strb	r3, [r2, #5]
    50ba:	79bb      	ldrb	r3, [r7, #6]
    50bc:	f003 030f 	and.w	r3, r3, #15
    50c0:	b2d9      	uxtb	r1, r3
    50c2:	68fa      	ldr	r2, [r7, #12]
    50c4:	7953      	ldrb	r3, [r2, #5]
    50c6:	f361 1307 	bfi	r3, r1, #4, #4
    50ca:	7153      	strb	r3, [r2, #5]
    50cc:	68fb      	ldr	r3, [r7, #12]
    50ce:	683a      	ldr	r2, [r7, #0]
    50d0:	601a      	str	r2, [r3, #0]
    50d2:	68fb      	ldr	r3, [r7, #12]
    50d4:	f04f 0200 	mov.w	r2, #0
    50d8:	60da      	str	r2, [r3, #12]
    50da:	68fb      	ldr	r3, [r7, #12]
    50dc:	4618      	mov	r0, r3
    50de:	f107 0710 	add.w	r7, r7, #16
    50e2:	46bd      	mov	sp, r7
    50e4:	bd80      	pop	{r7, pc}
    50e6:	bf00      	nop
    50e8:	20000982 	.word	0x20000982
    50ec:	20003b84 	.word	0x20003b84

000050f0 <DeleteEvent>:
    50f0:	b580      	push	{r7, lr}
    50f2:	b084      	sub	sp, #16
    50f4:	af00      	add	r7, sp, #0
    50f6:	6078      	str	r0, [r7, #4]
    50f8:	460b      	mov	r3, r1
    50fa:	70fb      	strb	r3, [r7, #3]
    50fc:	78fb      	ldrb	r3, [r7, #3]
    50fe:	2b00      	cmp	r3, #0
    5100:	d10a      	bne.n	5118 <DeleteEvent+0x28>
    5102:	687b      	ldr	r3, [r7, #4]
    5104:	68db      	ldr	r3, [r3, #12]
    5106:	2b00      	cmp	r3, #0
    5108:	d002      	beq.n	5110 <DeleteEvent+0x20>
    510a:	f04f 0304 	mov.w	r3, #4
    510e:	e034      	b.n	517a <DeleteEvent+0x8a>
    5110:	6878      	ldr	r0, [r7, #4]
    5112:	f7ff ff81 	bl	5018 <ReleaseECB>
    5116:	e02e      	b.n	5176 <DeleteEvent+0x86>
    5118:	78fb      	ldrb	r3, [r7, #3]
    511a:	2b01      	cmp	r3, #1
    511c:	d12b      	bne.n	5176 <DeleteEvent+0x86>
    511e:	4b19      	ldr	r3, [pc, #100]	; (5184 <DeleteEvent+0x94>)
    5120:	781b      	ldrb	r3, [r3, #0]
    5122:	b2db      	uxtb	r3, r3
    5124:	f103 0301 	add.w	r3, r3, #1
    5128:	b2da      	uxtb	r2, r3
    512a:	4b16      	ldr	r3, [pc, #88]	; (5184 <DeleteEvent+0x94>)
    512c:	701a      	strb	r2, [r3, #0]
    512e:	e019      	b.n	5164 <DeleteEvent+0x74>
    5130:	687b      	ldr	r3, [r7, #4]
    5132:	68db      	ldr	r3, [r3, #12]
    5134:	60fb      	str	r3, [r7, #12]
    5136:	68fb      	ldr	r3, [r7, #12]
    5138:	6a1b      	ldr	r3, [r3, #32]
    513a:	f1b3 3fff 	cmp.w	r3, #4294967295
    513e:	d002      	beq.n	5146 <DeleteEvent+0x56>
    5140:	68f8      	ldr	r0, [r7, #12]
    5142:	f7fe ff6f 	bl	4024 <RemoveDelayList>
    5146:	68fb      	ldr	r3, [r7, #12]
    5148:	695a      	ldr	r2, [r3, #20]
    514a:	687b      	ldr	r3, [r7, #4]
    514c:	60da      	str	r2, [r3, #12]
    514e:	68fb      	ldr	r3, [r7, #12]
    5150:	f04f 0200 	mov.w	r2, #0
    5154:	615a      	str	r2, [r3, #20]
    5156:	68fb      	ldr	r3, [r7, #12]
    5158:	f04f 02ff 	mov.w	r2, #255	; 0xff
    515c:	721a      	strb	r2, [r3, #8]
    515e:	68f8      	ldr	r0, [r7, #12]
    5160:	f7fd fb94 	bl	288c <InsertToTCBRdyList>
    5164:	687b      	ldr	r3, [r7, #4]
    5166:	68db      	ldr	r3, [r3, #12]
    5168:	2b00      	cmp	r3, #0
    516a:	d1e1      	bne.n	5130 <DeleteEvent+0x40>
    516c:	f7fc fb9a 	bl	18a4 <OsSchedUnlock>
    5170:	6878      	ldr	r0, [r7, #4]
    5172:	f7ff ff51 	bl	5018 <ReleaseECB>
    5176:	f04f 0300 	mov.w	r3, #0
    517a:	4618      	mov	r0, r3
    517c:	f107 0710 	add.w	r7, r7, #16
    5180:	46bd      	mov	sp, r7
    5182:	bd80      	pop	{r7, pc}
    5184:	20000982 	.word	0x20000982

00005188 <EventTaskToWait>:
    5188:	b580      	push	{r7, lr}
    518a:	b084      	sub	sp, #16
    518c:	af00      	add	r7, sp, #0
    518e:	6078      	str	r0, [r7, #4]
    5190:	6039      	str	r1, [r7, #0]
    5192:	4b3e      	ldr	r3, [pc, #248]	; (528c <EventTaskToWait+0x104>)
    5194:	781b      	ldrb	r3, [r3, #0]
    5196:	b2db      	uxtb	r3, r3
    5198:	f103 0301 	add.w	r3, r3, #1
    519c:	b2da      	uxtb	r2, r3
    519e:	4b3b      	ldr	r3, [pc, #236]	; (528c <EventTaskToWait+0x104>)
    51a0:	701a      	strb	r2, [r3, #0]
    51a2:	687b      	ldr	r3, [r7, #4]
    51a4:	68db      	ldr	r3, [r3, #12]
    51a6:	60fb      	str	r3, [r7, #12]
    51a8:	687b      	ldr	r3, [r7, #4]
    51aa:	791a      	ldrb	r2, [r3, #4]
    51ac:	683b      	ldr	r3, [r7, #0]
    51ae:	721a      	strb	r2, [r3, #8]
    51b0:	687b      	ldr	r3, [r7, #4]
    51b2:	795b      	ldrb	r3, [r3, #5]
    51b4:	f023 030f 	bic.w	r3, r3, #15
    51b8:	b2db      	uxtb	r3, r3
    51ba:	2b10      	cmp	r3, #16
    51bc:	d116      	bne.n	51ec <EventTaskToWait+0x64>
    51be:	68fb      	ldr	r3, [r7, #12]
    51c0:	2b00      	cmp	r3, #0
    51c2:	d107      	bne.n	51d4 <EventTaskToWait+0x4c>
    51c4:	687b      	ldr	r3, [r7, #4]
    51c6:	683a      	ldr	r2, [r7, #0]
    51c8:	60da      	str	r2, [r3, #12]
    51ca:	e050      	b.n	526e <EventTaskToWait+0xe6>
    51cc:	68fb      	ldr	r3, [r7, #12]
    51ce:	695b      	ldr	r3, [r3, #20]
    51d0:	60fb      	str	r3, [r7, #12]
    51d2:	e000      	b.n	51d6 <EventTaskToWait+0x4e>
    51d4:	bf00      	nop
    51d6:	68fb      	ldr	r3, [r7, #12]
    51d8:	695b      	ldr	r3, [r3, #20]
    51da:	2b00      	cmp	r3, #0
    51dc:	d1f6      	bne.n	51cc <EventTaskToWait+0x44>
    51de:	68fb      	ldr	r3, [r7, #12]
    51e0:	683a      	ldr	r2, [r7, #0]
    51e2:	615a      	str	r2, [r3, #20]
    51e4:	683b      	ldr	r3, [r7, #0]
    51e6:	68fa      	ldr	r2, [r7, #12]
    51e8:	619a      	str	r2, [r3, #24]
    51ea:	e040      	b.n	526e <EventTaskToWait+0xe6>
    51ec:	687b      	ldr	r3, [r7, #4]
    51ee:	795b      	ldrb	r3, [r3, #5]
    51f0:	f023 030f 	bic.w	r3, r3, #15
    51f4:	b2db      	uxtb	r3, r3
    51f6:	2b20      	cmp	r3, #32
    51f8:	d139      	bne.n	526e <EventTaskToWait+0xe6>
    51fa:	68fb      	ldr	r3, [r7, #12]
    51fc:	2b00      	cmp	r3, #0
    51fe:	d103      	bne.n	5208 <EventTaskToWait+0x80>
    5200:	687b      	ldr	r3, [r7, #4]
    5202:	683a      	ldr	r2, [r7, #0]
    5204:	60da      	str	r2, [r3, #12]
    5206:	e032      	b.n	526e <EventTaskToWait+0xe6>
    5208:	68fb      	ldr	r3, [r7, #12]
    520a:	791a      	ldrb	r2, [r3, #4]
    520c:	683b      	ldr	r3, [r7, #0]
    520e:	791b      	ldrb	r3, [r3, #4]
    5210:	429a      	cmp	r2, r3
    5212:	d909      	bls.n	5228 <EventTaskToWait+0xa0>
    5214:	687b      	ldr	r3, [r7, #4]
    5216:	683a      	ldr	r2, [r7, #0]
    5218:	60da      	str	r2, [r3, #12]
    521a:	683b      	ldr	r3, [r7, #0]
    521c:	68fa      	ldr	r2, [r7, #12]
    521e:	615a      	str	r2, [r3, #20]
    5220:	68fb      	ldr	r3, [r7, #12]
    5222:	683a      	ldr	r2, [r7, #0]
    5224:	619a      	str	r2, [r3, #24]
    5226:	e022      	b.n	526e <EventTaskToWait+0xe6>
    5228:	68fb      	ldr	r3, [r7, #12]
    522a:	695b      	ldr	r3, [r3, #20]
    522c:	60bb      	str	r3, [r7, #8]
    522e:	e00a      	b.n	5246 <EventTaskToWait+0xbe>
    5230:	68bb      	ldr	r3, [r7, #8]
    5232:	791a      	ldrb	r2, [r3, #4]
    5234:	683b      	ldr	r3, [r7, #0]
    5236:	791b      	ldrb	r3, [r3, #4]
    5238:	429a      	cmp	r2, r3
    523a:	d808      	bhi.n	524e <EventTaskToWait+0xc6>
    523c:	68bb      	ldr	r3, [r7, #8]
    523e:	60fb      	str	r3, [r7, #12]
    5240:	68bb      	ldr	r3, [r7, #8]
    5242:	695b      	ldr	r3, [r3, #20]
    5244:	60bb      	str	r3, [r7, #8]
    5246:	68bb      	ldr	r3, [r7, #8]
    5248:	2b00      	cmp	r3, #0
    524a:	d1f1      	bne.n	5230 <EventTaskToWait+0xa8>
    524c:	e000      	b.n	5250 <EventTaskToWait+0xc8>
    524e:	bf00      	nop
    5250:	68fb      	ldr	r3, [r7, #12]
    5252:	683a      	ldr	r2, [r7, #0]
    5254:	615a      	str	r2, [r3, #20]
    5256:	683b      	ldr	r3, [r7, #0]
    5258:	68fa      	ldr	r2, [r7, #12]
    525a:	619a      	str	r2, [r3, #24]
    525c:	683b      	ldr	r3, [r7, #0]
    525e:	68ba      	ldr	r2, [r7, #8]
    5260:	615a      	str	r2, [r3, #20]
    5262:	68bb      	ldr	r3, [r7, #8]
    5264:	2b00      	cmp	r3, #0
    5266:	d002      	beq.n	526e <EventTaskToWait+0xe6>
    5268:	68bb      	ldr	r3, [r7, #8]
    526a:	683a      	ldr	r2, [r7, #0]
    526c:	619a      	str	r2, [r3, #24]
    526e:	683b      	ldr	r3, [r7, #0]
    5270:	f04f 0202 	mov.w	r2, #2
    5274:	715a      	strb	r2, [r3, #5]
    5276:	4b06      	ldr	r3, [pc, #24]	; (5290 <EventTaskToWait+0x108>)
    5278:	f04f 0201 	mov.w	r2, #1
    527c:	701a      	strb	r2, [r3, #0]
    527e:	f7fc fb11 	bl	18a4 <OsSchedUnlock>
    5282:	f107 0710 	add.w	r7, r7, #16
    5286:	46bd      	mov	sp, r7
    5288:	bd80      	pop	{r7, pc}
    528a:	bf00      	nop
    528c:	20000982 	.word	0x20000982
    5290:	20000983 	.word	0x20000983

00005294 <EventTaskToRdy>:
    5294:	b580      	push	{r7, lr}
    5296:	b084      	sub	sp, #16
    5298:	af00      	add	r7, sp, #0
    529a:	6078      	str	r0, [r7, #4]
    529c:	687b      	ldr	r3, [r7, #4]
    529e:	68db      	ldr	r3, [r3, #12]
    52a0:	60fb      	str	r3, [r7, #12]
    52a2:	68fb      	ldr	r3, [r7, #12]
    52a4:	2b00      	cmp	r3, #0
    52a6:	f000 8081 	beq.w	53ac <EventTaskToRdy+0x118>
    52aa:	68fb      	ldr	r3, [r7, #12]
    52ac:	695a      	ldr	r2, [r3, #20]
    52ae:	687b      	ldr	r3, [r7, #4]
    52b0:	60da      	str	r2, [r3, #12]
    52b2:	687b      	ldr	r3, [r7, #4]
    52b4:	68db      	ldr	r3, [r3, #12]
    52b6:	2b00      	cmp	r3, #0
    52b8:	d004      	beq.n	52c4 <EventTaskToRdy+0x30>
    52ba:	687b      	ldr	r3, [r7, #4]
    52bc:	68db      	ldr	r3, [r3, #12]
    52be:	f04f 0200 	mov.w	r2, #0
    52c2:	619a      	str	r2, [r3, #24]
    52c4:	68fb      	ldr	r3, [r7, #12]
    52c6:	f04f 0200 	mov.w	r2, #0
    52ca:	615a      	str	r2, [r3, #20]
    52cc:	68fb      	ldr	r3, [r7, #12]
    52ce:	f04f 02ff 	mov.w	r2, #255	; 0xff
    52d2:	721a      	strb	r2, [r3, #8]
    52d4:	68fb      	ldr	r3, [r7, #12]
    52d6:	6a1b      	ldr	r3, [r3, #32]
    52d8:	f1b3 3fff 	cmp.w	r3, #4294967295
    52dc:	d002      	beq.n	52e4 <EventTaskToRdy+0x50>
    52de:	68f8      	ldr	r0, [r7, #12]
    52e0:	f7fe fea0 	bl	4024 <RemoveDelayList>
    52e4:	687b      	ldr	r3, [r7, #4]
    52e6:	795b      	ldrb	r3, [r3, #5]
    52e8:	f003 030f 	and.w	r3, r3, #15
    52ec:	b2db      	uxtb	r3, r3
    52ee:	2b02      	cmp	r3, #2
    52f0:	d10f      	bne.n	5312 <EventTaskToRdy+0x7e>
    52f2:	687b      	ldr	r3, [r7, #4]
    52f4:	681a      	ldr	r2, [r3, #0]
    52f6:	68fb      	ldr	r3, [r7, #12]
    52f8:	611a      	str	r2, [r3, #16]
    52fa:	687b      	ldr	r3, [r7, #4]
    52fc:	f04f 0200 	mov.w	r2, #0
    5300:	601a      	str	r2, [r3, #0]
    5302:	687b      	ldr	r3, [r7, #4]
    5304:	88db      	ldrh	r3, [r3, #6]
    5306:	f103 33ff 	add.w	r3, r3, #4294967295
    530a:	b29a      	uxth	r2, r3
    530c:	687b      	ldr	r3, [r7, #4]
    530e:	80da      	strh	r2, [r3, #6]
    5310:	e03e      	b.n	5390 <EventTaskToRdy+0xfc>
    5312:	687b      	ldr	r3, [r7, #4]
    5314:	795b      	ldrb	r3, [r3, #5]
    5316:	f003 030f 	and.w	r3, r3, #15
    531a:	b2db      	uxtb	r3, r3
    531c:	2b03      	cmp	r3, #3
    531e:	d125      	bne.n	536c <EventTaskToRdy+0xd8>
    5320:	687b      	ldr	r3, [r7, #4]
    5322:	681b      	ldr	r3, [r3, #0]
    5324:	60bb      	str	r3, [r7, #8]
    5326:	68bb      	ldr	r3, [r7, #8]
    5328:	681a      	ldr	r2, [r3, #0]
    532a:	68bb      	ldr	r3, [r7, #8]
    532c:	88db      	ldrh	r3, [r3, #6]
    532e:	ea4f 0383 	mov.w	r3, r3, lsl #2
    5332:	18d3      	adds	r3, r2, r3
    5334:	681a      	ldr	r2, [r3, #0]
    5336:	68fb      	ldr	r3, [r7, #12]
    5338:	611a      	str	r2, [r3, #16]
    533a:	68bb      	ldr	r3, [r7, #8]
    533c:	88db      	ldrh	r3, [r3, #6]
    533e:	f103 0301 	add.w	r3, r3, #1
    5342:	b29a      	uxth	r2, r3
    5344:	68bb      	ldr	r3, [r7, #8]
    5346:	80da      	strh	r2, [r3, #6]
    5348:	68bb      	ldr	r3, [r7, #8]
    534a:	899b      	ldrh	r3, [r3, #12]
    534c:	f103 33ff 	add.w	r3, r3, #4294967295
    5350:	b29a      	uxth	r2, r3
    5352:	68bb      	ldr	r3, [r7, #8]
    5354:	819a      	strh	r2, [r3, #12]
    5356:	68bb      	ldr	r3, [r7, #8]
    5358:	88da      	ldrh	r2, [r3, #6]
    535a:	68bb      	ldr	r3, [r7, #8]
    535c:	895b      	ldrh	r3, [r3, #10]
    535e:	429a      	cmp	r2, r3
    5360:	d116      	bne.n	5390 <EventTaskToRdy+0xfc>
    5362:	68bb      	ldr	r3, [r7, #8]
    5364:	f04f 0200 	mov.w	r2, #0
    5368:	80da      	strh	r2, [r3, #6]
    536a:	e011      	b.n	5390 <EventTaskToRdy+0xfc>
    536c:	687b      	ldr	r3, [r7, #4]
    536e:	795b      	ldrb	r3, [r3, #5]
    5370:	f003 030f 	and.w	r3, r3, #15
    5374:	b2db      	uxtb	r3, r3
    5376:	2b01      	cmp	r3, #1
    5378:	d10a      	bne.n	5390 <EventTaskToRdy+0xfc>
    537a:	687b      	ldr	r3, [r7, #4]
    537c:	88db      	ldrh	r3, [r3, #6]
    537e:	f103 33ff 	add.w	r3, r3, #4294967295
    5382:	b29a      	uxth	r2, r3
    5384:	687b      	ldr	r3, [r7, #4]
    5386:	80da      	strh	r2, [r3, #6]
    5388:	68fb      	ldr	r3, [r7, #12]
    538a:	f04f 32ff 	mov.w	r2, #4294967295
    538e:	611a      	str	r2, [r3, #16]
    5390:	4b09      	ldr	r3, [pc, #36]	; (53b8 <EventTaskToRdy+0x124>)
    5392:	681b      	ldr	r3, [r3, #0]
    5394:	68fa      	ldr	r2, [r7, #12]
    5396:	429a      	cmp	r2, r3
    5398:	d104      	bne.n	53a4 <EventTaskToRdy+0x110>
    539a:	68fb      	ldr	r3, [r7, #12]
    539c:	f04f 0201 	mov.w	r2, #1
    53a0:	715a      	strb	r2, [r3, #5]
    53a2:	e004      	b.n	53ae <EventTaskToRdy+0x11a>
    53a4:	68f8      	ldr	r0, [r7, #12]
    53a6:	f7fd fa71 	bl	288c <InsertToTCBRdyList>
    53aa:	e000      	b.n	53ae <EventTaskToRdy+0x11a>
    53ac:	bf00      	nop
    53ae:	f107 0710 	add.w	r7, r7, #16
    53b2:	46bd      	mov	sp, r7
    53b4:	bd80      	pop	{r7, pc}
    53b6:	bf00      	nop
    53b8:	20003790 	.word	0x20003790

000053bc <RemoveEventWaittingList>:
    53bc:	b480      	push	{r7}
    53be:	b085      	sub	sp, #20
    53c0:	af00      	add	r7, sp, #0
    53c2:	6078      	str	r0, [r7, #4]
    53c4:	687b      	ldr	r3, [r7, #4]
    53c6:	7a1b      	ldrb	r3, [r3, #8]
    53c8:	ea4f 1203 	mov.w	r2, r3, lsl #4
    53cc:	4b25      	ldr	r3, [pc, #148]	; (5464 <RemoveEventWaittingList+0xa8>)
    53ce:	18d3      	adds	r3, r2, r3
    53d0:	60fb      	str	r3, [r7, #12]
    53d2:	687b      	ldr	r3, [r7, #4]
    53d4:	695b      	ldr	r3, [r3, #20]
    53d6:	2b00      	cmp	r3, #0
    53d8:	d108      	bne.n	53ec <RemoveEventWaittingList+0x30>
    53da:	687b      	ldr	r3, [r7, #4]
    53dc:	699b      	ldr	r3, [r3, #24]
    53de:	2b00      	cmp	r3, #0
    53e0:	d104      	bne.n	53ec <RemoveEventWaittingList+0x30>
    53e2:	68fb      	ldr	r3, [r7, #12]
    53e4:	f04f 0200 	mov.w	r2, #0
    53e8:	60da      	str	r2, [r3, #12]
    53ea:	e031      	b.n	5450 <RemoveEventWaittingList+0x94>
    53ec:	687b      	ldr	r3, [r7, #4]
    53ee:	699b      	ldr	r3, [r3, #24]
    53f0:	2b00      	cmp	r3, #0
    53f2:	d10d      	bne.n	5410 <RemoveEventWaittingList+0x54>
    53f4:	687b      	ldr	r3, [r7, #4]
    53f6:	695b      	ldr	r3, [r3, #20]
    53f8:	f04f 0200 	mov.w	r2, #0
    53fc:	619a      	str	r2, [r3, #24]
    53fe:	687b      	ldr	r3, [r7, #4]
    5400:	695a      	ldr	r2, [r3, #20]
    5402:	68fb      	ldr	r3, [r7, #12]
    5404:	60da      	str	r2, [r3, #12]
    5406:	687b      	ldr	r3, [r7, #4]
    5408:	f04f 0200 	mov.w	r2, #0
    540c:	615a      	str	r2, [r3, #20]
    540e:	e01f      	b.n	5450 <RemoveEventWaittingList+0x94>
    5410:	687b      	ldr	r3, [r7, #4]
    5412:	695b      	ldr	r3, [r3, #20]
    5414:	2b00      	cmp	r3, #0
    5416:	d109      	bne.n	542c <RemoveEventWaittingList+0x70>
    5418:	687b      	ldr	r3, [r7, #4]
    541a:	699b      	ldr	r3, [r3, #24]
    541c:	f04f 0200 	mov.w	r2, #0
    5420:	615a      	str	r2, [r3, #20]
    5422:	687b      	ldr	r3, [r7, #4]
    5424:	f04f 0200 	mov.w	r2, #0
    5428:	619a      	str	r2, [r3, #24]
    542a:	e011      	b.n	5450 <RemoveEventWaittingList+0x94>
    542c:	687b      	ldr	r3, [r7, #4]
    542e:	699b      	ldr	r3, [r3, #24]
    5430:	687a      	ldr	r2, [r7, #4]
    5432:	6952      	ldr	r2, [r2, #20]
    5434:	615a      	str	r2, [r3, #20]
    5436:	687b      	ldr	r3, [r7, #4]
    5438:	695b      	ldr	r3, [r3, #20]
    543a:	687a      	ldr	r2, [r7, #4]
    543c:	6992      	ldr	r2, [r2, #24]
    543e:	619a      	str	r2, [r3, #24]
    5440:	687b      	ldr	r3, [r7, #4]
    5442:	f04f 0200 	mov.w	r2, #0
    5446:	619a      	str	r2, [r3, #24]
    5448:	687b      	ldr	r3, [r7, #4]
    544a:	f04f 0200 	mov.w	r2, #0
    544e:	615a      	str	r2, [r3, #20]
    5450:	687b      	ldr	r3, [r7, #4]
    5452:	f04f 02ff 	mov.w	r2, #255	; 0xff
    5456:	721a      	strb	r2, [r3, #8]
    5458:	f107 0714 	add.w	r7, r7, #20
    545c:	46bd      	mov	sp, r7
    545e:	bc80      	pop	{r7}
    5460:	4770      	bx	lr
    5462:	bf00      	nop
    5464:	20003a44 	.word	0x20003a44

00005468 <SH_DoCommand>:
    5468:	beab      	bkpt	0x00ab
    546a:	e001      	b.n	5470 <SH_ICE>

0000546c <SH_HardFault>:
    546c:	2000      	movs	r0, #0
    546e:	4770      	bx	lr

00005470 <SH_ICE>:
    5470:	2a00      	cmp	r2, #0
    5472:	d000      	beq.n	5476 <SH_End>
    5474:	6010      	str	r0, [r2, #0]

00005476 <SH_End>:
    5476:	2001      	movs	r0, #1
    5478:	4770      	bx	lr

0000547a <HardFault_Handler>:
    547a:	9806      	ldr	r0, [sp, #24]
    547c:	8801      	ldrh	r1, [r0, #0]
    547e:	4a03      	ldr	r2, [pc, #12]	; (548c <HardFault_Handler_Ret+0x2>)
    5480:	4291      	cmp	r1, r2
    5482:	d102      	bne.n	548a <HardFault_Handler_Ret>
    5484:	3004      	adds	r0, #4
    5486:	9006      	str	r0, [sp, #24]
    5488:	4770      	bx	lr

0000548a <HardFault_Handler_Ret>:
    548a:	e7fe      	b.n	548a <HardFault_Handler_Ret>
    548c:	0000beab 	.word	0x0000beab

00005490 <sys_mbox_new>:
    5490:	b580      	push	{r7, lr}
    5492:	b084      	sub	sp, #16
    5494:	af00      	add	r7, sp, #0
    5496:	6078      	str	r0, [r7, #4]
    5498:	4b14      	ldr	r3, [pc, #80]	; (54ec <sys_mbox_new+0x5c>)
    549a:	781b      	ldrb	r3, [r3, #0]
    549c:	2bff      	cmp	r3, #255	; 0xff
    549e:	d01d      	beq.n	54dc <sys_mbox_new+0x4c>
    54a0:	4b12      	ldr	r3, [pc, #72]	; (54ec <sys_mbox_new+0x5c>)
    54a2:	781b      	ldrb	r3, [r3, #0]
    54a4:	4618      	mov	r0, r3
    54a6:	f7fe f89b 	bl	35e0 <CoGetMemoryBuffer>
    54aa:	60f8      	str	r0, [r7, #12]
    54ac:	68fb      	ldr	r3, [r7, #12]
    54ae:	2b00      	cmp	r3, #0
    54b0:	d014      	beq.n	54dc <sys_mbox_new+0x4c>
    54b2:	68fb      	ldr	r3, [r7, #12]
    54b4:	4618      	mov	r0, r3
    54b6:	f04f 010a 	mov.w	r1, #10
    54ba:	f04f 0202 	mov.w	r2, #2
    54be:	f000 fcb1 	bl	5e24 <CoCreateQueue>
    54c2:	4603      	mov	r3, r0
    54c4:	72fb      	strb	r3, [r7, #11]
    54c6:	7afb      	ldrb	r3, [r7, #11]
    54c8:	2bff      	cmp	r3, #255	; 0xff
    54ca:	d105      	bne.n	54d8 <sys_mbox_new+0x48>
    54cc:	4b07      	ldr	r3, [pc, #28]	; (54ec <sys_mbox_new+0x5c>)
    54ce:	781b      	ldrb	r3, [r3, #0]
    54d0:	4618      	mov	r0, r3
    54d2:	68f9      	ldr	r1, [r7, #12]
    54d4:	f7fe f8cc 	bl	3670 <CoFreeMemoryBuffer>
    54d8:	7afb      	ldrb	r3, [r7, #11]
    54da:	e001      	b.n	54e0 <sys_mbox_new+0x50>
    54dc:	f04f 03ff 	mov.w	r3, #255	; 0xff
    54e0:	4618      	mov	r0, r3
    54e2:	f107 0710 	add.w	r7, r7, #16
    54e6:	46bd      	mov	sp, r7
    54e8:	bd80      	pop	{r7, pc}
    54ea:	bf00      	nop
    54ec:	20003d18 	.word	0x20003d18

000054f0 <sys_mbox_free>:
    54f0:	b580      	push	{r7, lr}
    54f2:	b084      	sub	sp, #16
    54f4:	af00      	add	r7, sp, #0
    54f6:	4603      	mov	r3, r0
    54f8:	71fb      	strb	r3, [r7, #7]
    54fa:	79fb      	ldrb	r3, [r7, #7]
    54fc:	2bff      	cmp	r3, #255	; 0xff
    54fe:	d014      	beq.n	552a <sys_mbox_free+0x3a>
    5500:	79fb      	ldrb	r3, [r7, #7]
    5502:	4a0c      	ldr	r2, [pc, #48]	; (5534 <sys_mbox_free+0x44>)
    5504:	ea4f 1303 	mov.w	r3, r3, lsl #4
    5508:	18d3      	adds	r3, r2, r3
    550a:	681b      	ldr	r3, [r3, #0]
    550c:	681b      	ldr	r3, [r3, #0]
    550e:	60fb      	str	r3, [r7, #12]
    5510:	79fb      	ldrb	r3, [r7, #7]
    5512:	4618      	mov	r0, r3
    5514:	f04f 0101 	mov.w	r1, #1
    5518:	f000 fd1a 	bl	5f50 <CoDelQueue>
    551c:	4b06      	ldr	r3, [pc, #24]	; (5538 <sys_mbox_free+0x48>)
    551e:	781b      	ldrb	r3, [r3, #0]
    5520:	4618      	mov	r0, r3
    5522:	68f9      	ldr	r1, [r7, #12]
    5524:	f7fe f8a4 	bl	3670 <CoFreeMemoryBuffer>
    5528:	e000      	b.n	552c <sys_mbox_free+0x3c>
    552a:	bf00      	nop
    552c:	f107 0710 	add.w	r7, r7, #16
    5530:	46bd      	mov	sp, r7
    5532:	bd80      	pop	{r7, pc}
    5534:	20003a44 	.word	0x20003a44
    5538:	20003d18 	.word	0x20003d18

0000553c <sys_mbox_post>:
    553c:	b580      	push	{r7, lr}
    553e:	b082      	sub	sp, #8
    5540:	af00      	add	r7, sp, #0
    5542:	4603      	mov	r3, r0
    5544:	6039      	str	r1, [r7, #0]
    5546:	71fb      	strb	r3, [r7, #7]
    5548:	79fb      	ldrb	r3, [r7, #7]
    554a:	4618      	mov	r0, r3
    554c:	6839      	ldr	r1, [r7, #0]
    554e:	f000 fe8b 	bl	6268 <CoPostQueueMail>
    5552:	f107 0708 	add.w	r7, r7, #8
    5556:	46bd      	mov	sp, r7
    5558:	bd80      	pop	{r7, pc}
    555a:	bf00      	nop

0000555c <sys_mbox_trypost>:
    555c:	b580      	push	{r7, lr}
    555e:	b084      	sub	sp, #16
    5560:	af00      	add	r7, sp, #0
    5562:	4603      	mov	r3, r0
    5564:	6039      	str	r1, [r7, #0]
    5566:	71fb      	strb	r3, [r7, #7]
    5568:	79fb      	ldrb	r3, [r7, #7]
    556a:	4618      	mov	r0, r3
    556c:	6839      	ldr	r1, [r7, #0]
    556e:	f000 fe7b 	bl	6268 <CoPostQueueMail>
    5572:	4603      	mov	r3, r0
    5574:	2b00      	cmp	r3, #0
    5576:	d00c      	beq.n	5592 <sys_mbox_trypost+0x36>
    5578:	f04f 03ff 	mov.w	r3, #255	; 0xff
    557c:	73fb      	strb	r3, [r7, #15]
    557e:	4b0a      	ldr	r3, [pc, #40]	; (55a8 <sys_mbox_trypost+0x4c>)
    5580:	f8b3 3126 	ldrh.w	r3, [r3, #294]	; 0x126
    5584:	f103 0301 	add.w	r3, r3, #1
    5588:	b29a      	uxth	r2, r3
    558a:	4b07      	ldr	r3, [pc, #28]	; (55a8 <sys_mbox_trypost+0x4c>)
    558c:	f8a3 2126 	strh.w	r2, [r3, #294]	; 0x126
    5590:	e002      	b.n	5598 <sys_mbox_trypost+0x3c>
    5592:	f04f 0300 	mov.w	r3, #0
    5596:	73fb      	strb	r3, [r7, #15]
    5598:	7bfb      	ldrb	r3, [r7, #15]
    559a:	b25b      	sxtb	r3, r3
    559c:	4618      	mov	r0, r3
    559e:	f107 0710 	add.w	r7, r7, #16
    55a2:	46bd      	mov	sp, r7
    55a4:	bd80      	pop	{r7, pc}
    55a6:	bf00      	nop
    55a8:	20004128 	.word	0x20004128

000055ac <sys_arch_mbox_fetch>:
    55ac:	b580      	push	{r7, lr}
    55ae:	b08a      	sub	sp, #40	; 0x28
    55b0:	af00      	add	r7, sp, #0
    55b2:	4603      	mov	r3, r0
    55b4:	60b9      	str	r1, [r7, #8]
    55b6:	607a      	str	r2, [r7, #4]
    55b8:	73fb      	strb	r3, [r7, #15]
    55ba:	687b      	ldr	r3, [r7, #4]
    55bc:	f04f 0264 	mov.w	r2, #100	; 0x64
    55c0:	fb02 f203 	mul.w	r2, r2, r3
    55c4:	4b26      	ldr	r3, [pc, #152]	; (5660 <sys_arch_mbox_fetch+0xb4>)
    55c6:	fba3 1302 	umull	r1, r3, r3, r2
    55ca:	ea4f 1393 	mov.w	r3, r3, lsr #6
    55ce:	627b      	str	r3, [r7, #36]	; 0x24
    55d0:	6a7b      	ldr	r3, [r7, #36]	; 0x24
    55d2:	2b00      	cmp	r3, #0
    55d4:	d105      	bne.n	55e2 <sys_arch_mbox_fetch+0x36>
    55d6:	687b      	ldr	r3, [r7, #4]
    55d8:	2b00      	cmp	r3, #0
    55da:	d002      	beq.n	55e2 <sys_arch_mbox_fetch+0x36>
    55dc:	f04f 0301 	mov.w	r3, #1
    55e0:	627b      	str	r3, [r7, #36]	; 0x24
    55e2:	f7fe fd7f 	bl	40e4 <CoGetOSTime>
    55e6:	4602      	mov	r2, r0
    55e8:	460b      	mov	r3, r1
    55ea:	4613      	mov	r3, r2
    55ec:	623b      	str	r3, [r7, #32]
    55ee:	7bfa      	ldrb	r2, [r7, #15]
    55f0:	f107 0313 	add.w	r3, r7, #19
    55f4:	4610      	mov	r0, r2
    55f6:	6a79      	ldr	r1, [r7, #36]	; 0x24
    55f8:	461a      	mov	r2, r3
    55fa:	f000 fd71 	bl	60e0 <CoPendQueueMail>
    55fe:	61f8      	str	r0, [r7, #28]
    5600:	6a7b      	ldr	r3, [r7, #36]	; 0x24
    5602:	2b00      	cmp	r3, #0
    5604:	d00c      	beq.n	5620 <sys_arch_mbox_fetch+0x74>
    5606:	7cfb      	ldrb	r3, [r7, #19]
    5608:	2b00      	cmp	r3, #0
    560a:	d009      	beq.n	5620 <sys_arch_mbox_fetch+0x74>
    560c:	68bb      	ldr	r3, [r7, #8]
    560e:	2b00      	cmp	r3, #0
    5610:	d003      	beq.n	561a <sys_arch_mbox_fetch+0x6e>
    5612:	68bb      	ldr	r3, [r7, #8]
    5614:	f04f 0200 	mov.w	r2, #0
    5618:	601a      	str	r2, [r3, #0]
    561a:	f04f 33ff 	mov.w	r3, #4294967295
    561e:	e019      	b.n	5654 <sys_arch_mbox_fetch+0xa8>
    5620:	f7fe fd60 	bl	40e4 <CoGetOSTime>
    5624:	4602      	mov	r2, r0
    5626:	460b      	mov	r3, r1
    5628:	4613      	mov	r3, r2
    562a:	61bb      	str	r3, [r7, #24]
    562c:	68bb      	ldr	r3, [r7, #8]
    562e:	2b00      	cmp	r3, #0
    5630:	d002      	beq.n	5638 <sys_arch_mbox_fetch+0x8c>
    5632:	68bb      	ldr	r3, [r7, #8]
    5634:	69fa      	ldr	r2, [r7, #28]
    5636:	601a      	str	r2, [r3, #0]
    5638:	69ba      	ldr	r2, [r7, #24]
    563a:	6a3b      	ldr	r3, [r7, #32]
    563c:	1ad3      	subs	r3, r2, r3
    563e:	f44f 727a 	mov.w	r2, #1000	; 0x3e8
    5642:	fb02 f203 	mul.w	r2, r2, r3
    5646:	4b07      	ldr	r3, [pc, #28]	; (5664 <sys_arch_mbox_fetch+0xb8>)
    5648:	fba3 1302 	umull	r1, r3, r3, r2
    564c:	ea4f 1353 	mov.w	r3, r3, lsr #5
    5650:	617b      	str	r3, [r7, #20]
    5652:	697b      	ldr	r3, [r7, #20]
    5654:	4618      	mov	r0, r3
    5656:	f107 0728 	add.w	r7, r7, #40	; 0x28
    565a:	46bd      	mov	sp, r7
    565c:	bd80      	pop	{r7, pc}
    565e:	bf00      	nop
    5660:	10624dd3 	.word	0x10624dd3
    5664:	51eb851f 	.word	0x51eb851f

00005668 <sys_arch_mbox_tryfetch>:
    5668:	b580      	push	{r7, lr}
    566a:	b084      	sub	sp, #16
    566c:	af00      	add	r7, sp, #0
    566e:	4603      	mov	r3, r0
    5670:	6039      	str	r1, [r7, #0]
    5672:	71fb      	strb	r3, [r7, #7]
    5674:	79fa      	ldrb	r2, [r7, #7]
    5676:	f107 030b 	add.w	r3, r7, #11
    567a:	4610      	mov	r0, r2
    567c:	4619      	mov	r1, r3
    567e:	f000 fcc1 	bl	6004 <CoAcceptQueueMail>
    5682:	60f8      	str	r0, [r7, #12]
    5684:	7afb      	ldrb	r3, [r7, #11]
    5686:	2b00      	cmp	r3, #0
    5688:	d108      	bne.n	569c <sys_arch_mbox_tryfetch+0x34>
    568a:	683b      	ldr	r3, [r7, #0]
    568c:	2b00      	cmp	r3, #0
    568e:	d002      	beq.n	5696 <sys_arch_mbox_tryfetch+0x2e>
    5690:	683b      	ldr	r3, [r7, #0]
    5692:	68fa      	ldr	r2, [r7, #12]
    5694:	601a      	str	r2, [r3, #0]
    5696:	f04f 0300 	mov.w	r3, #0
    569a:	e008      	b.n	56ae <sys_arch_mbox_tryfetch+0x46>
    569c:	683b      	ldr	r3, [r7, #0]
    569e:	2b00      	cmp	r3, #0
    56a0:	d003      	beq.n	56aa <sys_arch_mbox_tryfetch+0x42>
    56a2:	683b      	ldr	r3, [r7, #0]
    56a4:	f04f 0200 	mov.w	r2, #0
    56a8:	601a      	str	r2, [r3, #0]
    56aa:	f04f 33ff 	mov.w	r3, #4294967295
    56ae:	4618      	mov	r0, r3
    56b0:	f107 0710 	add.w	r7, r7, #16
    56b4:	46bd      	mov	sp, r7
    56b6:	bd80      	pop	{r7, pc}

000056b8 <sys_sem_new>:
    56b8:	b580      	push	{r7, lr}
    56ba:	b084      	sub	sp, #16
    56bc:	af00      	add	r7, sp, #0
    56be:	4603      	mov	r3, r0
    56c0:	71fb      	strb	r3, [r7, #7]
    56c2:	79fb      	ldrb	r3, [r7, #7]
    56c4:	b29b      	uxth	r3, r3
    56c6:	4618      	mov	r0, r3
    56c8:	f64f 71ff 	movw	r1, #65535	; 0xffff
    56cc:	f04f 0202 	mov.w	r2, #2
    56d0:	f001 ffac 	bl	762c <CoCreateSem>
    56d4:	4603      	mov	r3, r0
    56d6:	73fb      	strb	r3, [r7, #15]
    56d8:	7bfb      	ldrb	r3, [r7, #15]
    56da:	4618      	mov	r0, r3
    56dc:	f107 0710 	add.w	r7, r7, #16
    56e0:	46bd      	mov	sp, r7
    56e2:	bd80      	pop	{r7, pc}

000056e4 <sys_arch_sem_wait>:
    56e4:	b580      	push	{r7, lr}
    56e6:	b088      	sub	sp, #32
    56e8:	af00      	add	r7, sp, #0
    56ea:	4603      	mov	r3, r0
    56ec:	6039      	str	r1, [r7, #0]
    56ee:	71fb      	strb	r3, [r7, #7]
    56f0:	683b      	ldr	r3, [r7, #0]
    56f2:	f04f 0264 	mov.w	r2, #100	; 0x64
    56f6:	fb02 f203 	mul.w	r2, r2, r3
    56fa:	4b23      	ldr	r3, [pc, #140]	; (5788 <sys_arch_sem_wait+0xa4>)
    56fc:	fba3 1302 	umull	r1, r3, r3, r2
    5700:	ea4f 1393 	mov.w	r3, r3, lsr #6
    5704:	61fb      	str	r3, [r7, #28]
    5706:	69fb      	ldr	r3, [r7, #28]
    5708:	2b00      	cmp	r3, #0
    570a:	d105      	bne.n	5718 <sys_arch_sem_wait+0x34>
    570c:	683b      	ldr	r3, [r7, #0]
    570e:	2b00      	cmp	r3, #0
    5710:	d002      	beq.n	5718 <sys_arch_sem_wait+0x34>
    5712:	f04f 0301 	mov.w	r3, #1
    5716:	61fb      	str	r3, [r7, #28]
    5718:	69fa      	ldr	r2, [r7, #28]
    571a:	f64f 73ff 	movw	r3, #65535	; 0xffff
    571e:	429a      	cmp	r2, r3
    5720:	d902      	bls.n	5728 <sys_arch_sem_wait+0x44>
    5722:	f64f 73ff 	movw	r3, #65535	; 0xffff
    5726:	61fb      	str	r3, [r7, #28]
    5728:	f7fe fcdc 	bl	40e4 <CoGetOSTime>
    572c:	4602      	mov	r2, r0
    572e:	460b      	mov	r3, r1
    5730:	4613      	mov	r3, r2
    5732:	61bb      	str	r3, [r7, #24]
    5734:	79fb      	ldrb	r3, [r7, #7]
    5736:	4618      	mov	r0, r3
    5738:	69f9      	ldr	r1, [r7, #28]
    573a:	f001 ffd7 	bl	76ec <CoPendSem>
    573e:	4603      	mov	r3, r0
    5740:	75fb      	strb	r3, [r7, #23]
    5742:	69fb      	ldr	r3, [r7, #28]
    5744:	2b00      	cmp	r3, #0
    5746:	d005      	beq.n	5754 <sys_arch_sem_wait+0x70>
    5748:	7dfb      	ldrb	r3, [r7, #23]
    574a:	2b00      	cmp	r3, #0
    574c:	d002      	beq.n	5754 <sys_arch_sem_wait+0x70>
    574e:	f04f 33ff 	mov.w	r3, #4294967295
    5752:	e013      	b.n	577c <sys_arch_sem_wait+0x98>
    5754:	f7fe fcc6 	bl	40e4 <CoGetOSTime>
    5758:	4602      	mov	r2, r0
    575a:	460b      	mov	r3, r1
    575c:	4613      	mov	r3, r2
    575e:	613b      	str	r3, [r7, #16]
    5760:	693a      	ldr	r2, [r7, #16]
    5762:	69bb      	ldr	r3, [r7, #24]
    5764:	1ad3      	subs	r3, r2, r3
    5766:	f44f 727a 	mov.w	r2, #1000	; 0x3e8
    576a:	fb02 f203 	mul.w	r2, r2, r3
    576e:	4b07      	ldr	r3, [pc, #28]	; (578c <sys_arch_sem_wait+0xa8>)
    5770:	fba3 1302 	umull	r1, r3, r3, r2
    5774:	ea4f 1353 	mov.w	r3, r3, lsr #5
    5778:	60fb      	str	r3, [r7, #12]
    577a:	68fb      	ldr	r3, [r7, #12]
    577c:	4618      	mov	r0, r3
    577e:	f107 0720 	add.w	r7, r7, #32
    5782:	46bd      	mov	sp, r7
    5784:	bd80      	pop	{r7, pc}
    5786:	bf00      	nop
    5788:	10624dd3 	.word	0x10624dd3
    578c:	51eb851f 	.word	0x51eb851f

00005790 <sys_sem_signal>:
    5790:	b580      	push	{r7, lr}
    5792:	b082      	sub	sp, #8
    5794:	af00      	add	r7, sp, #0
    5796:	4603      	mov	r3, r0
    5798:	71fb      	strb	r3, [r7, #7]
    579a:	79fb      	ldrb	r3, [r7, #7]
    579c:	4618      	mov	r0, r3
    579e:	f002 f829 	bl	77f4 <CoPostSem>
    57a2:	f107 0708 	add.w	r7, r7, #8
    57a6:	46bd      	mov	sp, r7
    57a8:	bd80      	pop	{r7, pc}
    57aa:	bf00      	nop

000057ac <sys_sem_free>:
    57ac:	b580      	push	{r7, lr}
    57ae:	b082      	sub	sp, #8
    57b0:	af00      	add	r7, sp, #0
    57b2:	4603      	mov	r3, r0
    57b4:	71fb      	strb	r3, [r7, #7]
    57b6:	79fb      	ldrb	r3, [r7, #7]
    57b8:	4618      	mov	r0, r3
    57ba:	f04f 0101 	mov.w	r1, #1
    57be:	f001 ff6b 	bl	7698 <CoDelSem>
    57c2:	f107 0708 	add.w	r7, r7, #8
    57c6:	46bd      	mov	sp, r7
    57c8:	bd80      	pop	{r7, pc}
    57ca:	bf00      	nop

000057cc <sys_arch_timeouts>:
    57cc:	b580      	push	{r7, lr}
    57ce:	b082      	sub	sp, #8
    57d0:	af00      	add	r7, sp, #0
    57d2:	f7fd faa9 	bl	2d28 <CoGetCurTaskID>
    57d6:	4603      	mov	r3, r0
    57d8:	71bb      	strb	r3, [r7, #6]
    57da:	f04f 0300 	mov.w	r3, #0
    57de:	71fb      	strb	r3, [r7, #7]
    57e0:	e012      	b.n	5808 <sys_arch_timeouts+0x3c>
    57e2:	79fb      	ldrb	r3, [r7, #7]
    57e4:	4a1b      	ldr	r2, [pc, #108]	; (5854 <sys_arch_timeouts+0x88>)
    57e6:	ea4f 03c3 	mov.w	r3, r3, lsl #3
    57ea:	18d3      	adds	r3, r2, r3
    57ec:	791b      	ldrb	r3, [r3, #4]
    57ee:	79ba      	ldrb	r2, [r7, #6]
    57f0:	429a      	cmp	r2, r3
    57f2:	d105      	bne.n	5800 <sys_arch_timeouts+0x34>
    57f4:	79fb      	ldrb	r3, [r7, #7]
    57f6:	ea4f 02c3 	mov.w	r2, r3, lsl #3
    57fa:	4b16      	ldr	r3, [pc, #88]	; (5854 <sys_arch_timeouts+0x88>)
    57fc:	18d3      	adds	r3, r2, r3
    57fe:	e024      	b.n	584a <sys_arch_timeouts+0x7e>
    5800:	79fb      	ldrb	r3, [r7, #7]
    5802:	f103 0301 	add.w	r3, r3, #1
    5806:	71fb      	strb	r3, [r7, #7]
    5808:	79fb      	ldrb	r3, [r7, #7]
    580a:	2b02      	cmp	r3, #2
    580c:	d9e9      	bls.n	57e2 <sys_arch_timeouts+0x16>
    580e:	4b12      	ldr	r3, [pc, #72]	; (5858 <sys_arch_timeouts+0x8c>)
    5810:	781b      	ldrb	r3, [r3, #0]
    5812:	2b02      	cmp	r3, #2
    5814:	d817      	bhi.n	5846 <sys_arch_timeouts+0x7a>
    5816:	4b10      	ldr	r3, [pc, #64]	; (5858 <sys_arch_timeouts+0x8c>)
    5818:	781b      	ldrb	r3, [r3, #0]
    581a:	4a0e      	ldr	r2, [pc, #56]	; (5854 <sys_arch_timeouts+0x88>)
    581c:	ea4f 03c3 	mov.w	r3, r3, lsl #3
    5820:	18d3      	adds	r3, r2, r3
    5822:	79ba      	ldrb	r2, [r7, #6]
    5824:	711a      	strb	r2, [r3, #4]
    5826:	4b0c      	ldr	r3, [pc, #48]	; (5858 <sys_arch_timeouts+0x8c>)
    5828:	781b      	ldrb	r3, [r3, #0]
    582a:	f103 0301 	add.w	r3, r3, #1
    582e:	b2da      	uxtb	r2, r3
    5830:	4b09      	ldr	r3, [pc, #36]	; (5858 <sys_arch_timeouts+0x8c>)
    5832:	701a      	strb	r2, [r3, #0]
    5834:	4b08      	ldr	r3, [pc, #32]	; (5858 <sys_arch_timeouts+0x8c>)
    5836:	781b      	ldrb	r3, [r3, #0]
    5838:	f103 33ff 	add.w	r3, r3, #4294967295
    583c:	ea4f 02c3 	mov.w	r2, r3, lsl #3
    5840:	4b04      	ldr	r3, [pc, #16]	; (5854 <sys_arch_timeouts+0x88>)
    5842:	18d3      	adds	r3, r2, r3
    5844:	e001      	b.n	584a <sys_arch_timeouts+0x7e>
    5846:	f04f 0300 	mov.w	r3, #0
    584a:	4618      	mov	r0, r3
    584c:	f107 0708 	add.w	r7, r7, #8
    5850:	46bd      	mov	sp, r7
    5852:	bd80      	pop	{r7, pc}
    5854:	20003d1c 	.word	0x20003d1c
    5858:	20003d34 	.word	0x20003d34

0000585c <sys_thread_new>:
    585c:	b580      	push	{r7, lr}
    585e:	b086      	sub	sp, #24
    5860:	af00      	add	r7, sp, #0
    5862:	60f8      	str	r0, [r7, #12]
    5864:	60b9      	str	r1, [r7, #8]
    5866:	607a      	str	r2, [r7, #4]
    5868:	603b      	str	r3, [r7, #0]
    586a:	4b18      	ldr	r3, [pc, #96]	; (58cc <sys_thread_new+0x70>)
    586c:	781b      	ldrb	r3, [r3, #0]
    586e:	2b02      	cmp	r3, #2
    5870:	d824      	bhi.n	58bc <sys_thread_new+0x60>
    5872:	683b      	ldr	r3, [r7, #0]
    5874:	ea4f 2203 	mov.w	r2, r3, lsl #8
    5878:	4b15      	ldr	r3, [pc, #84]	; (58d0 <sys_thread_new+0x74>)
    587a:	ea02 0303 	and.w	r3, r2, r3
    587e:	6a3a      	ldr	r2, [r7, #32]
    5880:	4313      	orrs	r3, r2
    5882:	461a      	mov	r2, r3
    5884:	687b      	ldr	r3, [r7, #4]
    5886:	68b8      	ldr	r0, [r7, #8]
    5888:	f04f 0100 	mov.w	r1, #0
    588c:	f7fd f9a6 	bl	2bdc <CreateTask>
    5890:	4603      	mov	r3, r0
    5892:	75fb      	strb	r3, [r7, #23]
    5894:	7dfb      	ldrb	r3, [r7, #23]
    5896:	2bff      	cmp	r3, #255	; 0xff
    5898:	d010      	beq.n	58bc <sys_thread_new+0x60>
    589a:	4b0c      	ldr	r3, [pc, #48]	; (58cc <sys_thread_new+0x70>)
    589c:	781b      	ldrb	r3, [r3, #0]
    589e:	4a0d      	ldr	r2, [pc, #52]	; (58d4 <sys_thread_new+0x78>)
    58a0:	ea4f 03c3 	mov.w	r3, r3, lsl #3
    58a4:	18d3      	adds	r3, r2, r3
    58a6:	7dfa      	ldrb	r2, [r7, #23]
    58a8:	711a      	strb	r2, [r3, #4]
    58aa:	4b08      	ldr	r3, [pc, #32]	; (58cc <sys_thread_new+0x70>)
    58ac:	781b      	ldrb	r3, [r3, #0]
    58ae:	f103 0301 	add.w	r3, r3, #1
    58b2:	b2da      	uxtb	r2, r3
    58b4:	4b05      	ldr	r3, [pc, #20]	; (58cc <sys_thread_new+0x70>)
    58b6:	701a      	strb	r2, [r3, #0]
    58b8:	7dfb      	ldrb	r3, [r7, #23]
    58ba:	e001      	b.n	58c0 <sys_thread_new+0x64>
    58bc:	f04f 03ff 	mov.w	r3, #255	; 0xff
    58c0:	4618      	mov	r0, r3
    58c2:	f107 0718 	add.w	r7, r7, #24
    58c6:	46bd      	mov	sp, r7
    58c8:	bd80      	pop	{r7, pc}
    58ca:	bf00      	nop
    58cc:	20003d34 	.word	0x20003d34
    58d0:	000fff00 	.word	0x000fff00
    58d4:	20003d1c 	.word	0x20003d1c

000058d8 <sys_arch_protect>:
    58d8:	b580      	push	{r7, lr}
    58da:	af00      	add	r7, sp, #0
    58dc:	f7fc f80a 	bl	18f4 <CoSchedLock>
    58e0:	f04f 0300 	mov.w	r3, #0
    58e4:	4618      	mov	r0, r3
    58e6:	bd80      	pop	{r7, pc}

000058e8 <sys_arch_unprotect>:
    58e8:	b580      	push	{r7, lr}
    58ea:	b082      	sub	sp, #8
    58ec:	af00      	add	r7, sp, #0
    58ee:	6078      	str	r0, [r7, #4]
    58f0:	f7fc f810 	bl	1914 <CoSchedUnlock>
    58f4:	f107 0708 	add.w	r7, r7, #8
    58f8:	46bd      	mov	sp, r7
    58fa:	bd80      	pop	{r7, pc}

000058fc <DebugPrintf>:
    58fc:	b40f      	push	{r0, r1, r2, r3}
    58fe:	b480      	push	{r7}
    5900:	af00      	add	r7, sp, #0
    5902:	46bd      	mov	sp, r7
    5904:	bc80      	pop	{r7}
    5906:	b004      	add	sp, #16
    5908:	4770      	bx	lr
    590a:	bf00      	nop

0000590c <USBRegisterDescriptors>:
    590c:	b480      	push	{r7}
    590e:	b083      	sub	sp, #12
    5910:	af00      	add	r7, sp, #0
    5912:	6078      	str	r0, [r7, #4]
    5914:	4b03      	ldr	r3, [pc, #12]	; (5924 <USBRegisterDescriptors+0x18>)
    5916:	687a      	ldr	r2, [r7, #4]
    5918:	601a      	str	r2, [r3, #0]
    591a:	f107 070c 	add.w	r7, r7, #12
    591e:	46bd      	mov	sp, r7
    5920:	bc80      	pop	{r7}
    5922:	4770      	bx	lr
    5924:	20003d40 	.word	0x20003d40

00005928 <USBGetDescriptor>:
    5928:	b480      	push	{r7}
    592a:	b089      	sub	sp, #36	; 0x24
    592c:	af00      	add	r7, sp, #0
    592e:	60ba      	str	r2, [r7, #8]
    5930:	607b      	str	r3, [r7, #4]
    5932:	4603      	mov	r3, r0
    5934:	81fb      	strh	r3, [r7, #14]
    5936:	460b      	mov	r3, r1
    5938:	81bb      	strh	r3, [r7, #12]
    593a:	89fb      	ldrh	r3, [r7, #14]
    593c:	ea4f 2313 	mov.w	r3, r3, lsr #8
    5940:	b29b      	uxth	r3, r3
    5942:	75fb      	strb	r3, [r7, #23]
    5944:	89fb      	ldrh	r3, [r7, #14]
    5946:	75bb      	strb	r3, [r7, #22]
    5948:	4b21      	ldr	r3, [pc, #132]	; (59d0 <USBGetDescriptor+0xa8>)
    594a:	681b      	ldr	r3, [r3, #0]
    594c:	61fb      	str	r3, [r7, #28]
    594e:	f04f 0300 	mov.w	r3, #0
    5952:	61bb      	str	r3, [r7, #24]
    5954:	e030      	b.n	59b8 <USBGetDescriptor+0x90>
    5956:	69fb      	ldr	r3, [r7, #28]
    5958:	f103 0301 	add.w	r3, r3, #1
    595c:	781b      	ldrb	r3, [r3, #0]
    595e:	7dfa      	ldrb	r2, [r7, #23]
    5960:	429a      	cmp	r2, r3
    5962:	d124      	bne.n	59ae <USBGetDescriptor+0x86>
    5964:	7dba      	ldrb	r2, [r7, #22]
    5966:	69bb      	ldr	r3, [r7, #24]
    5968:	429a      	cmp	r2, r3
    596a:	d11c      	bne.n	59a6 <USBGetDescriptor+0x7e>
    596c:	687b      	ldr	r3, [r7, #4]
    596e:	69fa      	ldr	r2, [r7, #28]
    5970:	601a      	str	r2, [r3, #0]
    5972:	7dfb      	ldrb	r3, [r7, #23]
    5974:	2b02      	cmp	r3, #2
    5976:	d10e      	bne.n	5996 <USBGetDescriptor+0x6e>
    5978:	69fb      	ldr	r3, [r7, #28]
    597a:	f103 0302 	add.w	r3, r3, #2
    597e:	781b      	ldrb	r3, [r3, #0]
    5980:	461a      	mov	r2, r3
    5982:	69fb      	ldr	r3, [r7, #28]
    5984:	f103 0303 	add.w	r3, r3, #3
    5988:	781b      	ldrb	r3, [r3, #0]
    598a:	ea4f 2303 	mov.w	r3, r3, lsl #8
    598e:	431a      	orrs	r2, r3
    5990:	68bb      	ldr	r3, [r7, #8]
    5992:	601a      	str	r2, [r3, #0]
    5994:	e004      	b.n	59a0 <USBGetDescriptor+0x78>
    5996:	69fb      	ldr	r3, [r7, #28]
    5998:	781b      	ldrb	r3, [r3, #0]
    599a:	461a      	mov	r2, r3
    599c:	68bb      	ldr	r3, [r7, #8]
    599e:	601a      	str	r2, [r3, #0]
    59a0:	f04f 0301 	mov.w	r3, #1
    59a4:	e00e      	b.n	59c4 <USBGetDescriptor+0x9c>
    59a6:	69bb      	ldr	r3, [r7, #24]
    59a8:	f103 0301 	add.w	r3, r3, #1
    59ac:	61bb      	str	r3, [r7, #24]
    59ae:	69fb      	ldr	r3, [r7, #28]
    59b0:	781b      	ldrb	r3, [r3, #0]
    59b2:	69fa      	ldr	r2, [r7, #28]
    59b4:	18d3      	adds	r3, r2, r3
    59b6:	61fb      	str	r3, [r7, #28]
    59b8:	69fb      	ldr	r3, [r7, #28]
    59ba:	781b      	ldrb	r3, [r3, #0]
    59bc:	2b00      	cmp	r3, #0
    59be:	d1ca      	bne.n	5956 <USBGetDescriptor+0x2e>
    59c0:	f04f 0300 	mov.w	r3, #0
    59c4:	4618      	mov	r0, r3
    59c6:	f107 0724 	add.w	r7, r7, #36	; 0x24
    59ca:	46bd      	mov	sp, r7
    59cc:	bc80      	pop	{r7}
    59ce:	4770      	bx	lr
    59d0:	20003d40 	.word	0x20003d40

000059d4 <USBSetConfiguration>:
    59d4:	b580      	push	{r7, lr}
    59d6:	b086      	sub	sp, #24
    59d8:	af00      	add	r7, sp, #0
    59da:	4602      	mov	r2, r0
    59dc:	460b      	mov	r3, r1
    59de:	71fa      	strb	r2, [r7, #7]
    59e0:	71bb      	strb	r3, [r7, #6]
    59e2:	79fb      	ldrb	r3, [r7, #7]
    59e4:	2b00      	cmp	r3, #0
    59e6:	d104      	bne.n	59f2 <USBSetConfiguration+0x1e>
    59e8:	f04f 0000 	mov.w	r0, #0
    59ec:	f001 f826 	bl	6a3c <USBHwConfigDevice>
    59f0:	e055      	b.n	5a9e <USBSetConfiguration+0xca>
    59f2:	4b2e      	ldr	r3, [pc, #184]	; (5aac <USBSetConfiguration+0xd8>)
    59f4:	681b      	ldr	r3, [r3, #0]
    59f6:	617b      	str	r3, [r7, #20]
    59f8:	f04f 03ff 	mov.w	r3, #255	; 0xff
    59fc:	74fb      	strb	r3, [r7, #19]
    59fe:	f04f 03ff 	mov.w	r3, #255	; 0xff
    5a02:	74bb      	strb	r3, [r7, #18]
    5a04:	e043      	b.n	5a8e <USBSetConfiguration+0xba>
    5a06:	697b      	ldr	r3, [r7, #20]
    5a08:	f103 0301 	add.w	r3, r3, #1
    5a0c:	781b      	ldrb	r3, [r3, #0]
    5a0e:	2b04      	cmp	r3, #4
    5a10:	d009      	beq.n	5a26 <USBSetConfiguration+0x52>
    5a12:	2b05      	cmp	r3, #5
    5a14:	d00d      	beq.n	5a32 <USBSetConfiguration+0x5e>
    5a16:	2b02      	cmp	r3, #2
    5a18:	d12f      	bne.n	5a7a <USBSetConfiguration+0xa6>
    5a1a:	697b      	ldr	r3, [r7, #20]
    5a1c:	f103 0305 	add.w	r3, r3, #5
    5a20:	781b      	ldrb	r3, [r3, #0]
    5a22:	74fb      	strb	r3, [r7, #19]
    5a24:	e02e      	b.n	5a84 <USBSetConfiguration+0xb0>
    5a26:	697b      	ldr	r3, [r7, #20]
    5a28:	f103 0303 	add.w	r3, r3, #3
    5a2c:	781b      	ldrb	r3, [r3, #0]
    5a2e:	74bb      	strb	r3, [r7, #18]
    5a30:	e028      	b.n	5a84 <USBSetConfiguration+0xb0>
    5a32:	7cfa      	ldrb	r2, [r7, #19]
    5a34:	79fb      	ldrb	r3, [r7, #7]
    5a36:	429a      	cmp	r2, r3
    5a38:	d121      	bne.n	5a7e <USBSetConfiguration+0xaa>
    5a3a:	7cba      	ldrb	r2, [r7, #18]
    5a3c:	79bb      	ldrb	r3, [r7, #6]
    5a3e:	429a      	cmp	r2, r3
    5a40:	d11f      	bne.n	5a82 <USBSetConfiguration+0xae>
    5a42:	697b      	ldr	r3, [r7, #20]
    5a44:	f103 0302 	add.w	r3, r3, #2
    5a48:	781b      	ldrb	r3, [r3, #0]
    5a4a:	747b      	strb	r3, [r7, #17]
    5a4c:	697b      	ldr	r3, [r7, #20]
    5a4e:	f103 0304 	add.w	r3, r3, #4
    5a52:	781b      	ldrb	r3, [r3, #0]
    5a54:	461a      	mov	r2, r3
    5a56:	697b      	ldr	r3, [r7, #20]
    5a58:	f103 0305 	add.w	r3, r3, #5
    5a5c:	781b      	ldrb	r3, [r3, #0]
    5a5e:	ea4f 2303 	mov.w	r3, r3, lsl #8
    5a62:	b29b      	uxth	r3, r3
    5a64:	ea42 0303 	orr.w	r3, r2, r3
    5a68:	b29b      	uxth	r3, r3
    5a6a:	81fb      	strh	r3, [r7, #14]
    5a6c:	7c7a      	ldrb	r2, [r7, #17]
    5a6e:	89fb      	ldrh	r3, [r7, #14]
    5a70:	4610      	mov	r0, r2
    5a72:	4619      	mov	r1, r3
    5a74:	f000 fe0e 	bl	6694 <USBHwEPConfig>
    5a78:	e004      	b.n	5a84 <USBSetConfiguration+0xb0>
    5a7a:	bf00      	nop
    5a7c:	e002      	b.n	5a84 <USBSetConfiguration+0xb0>
    5a7e:	bf00      	nop
    5a80:	e000      	b.n	5a84 <USBSetConfiguration+0xb0>
    5a82:	bf00      	nop
    5a84:	697b      	ldr	r3, [r7, #20]
    5a86:	781b      	ldrb	r3, [r3, #0]
    5a88:	697a      	ldr	r2, [r7, #20]
    5a8a:	18d3      	adds	r3, r2, r3
    5a8c:	617b      	str	r3, [r7, #20]
    5a8e:	697b      	ldr	r3, [r7, #20]
    5a90:	781b      	ldrb	r3, [r3, #0]
    5a92:	2b00      	cmp	r3, #0
    5a94:	d1b7      	bne.n	5a06 <USBSetConfiguration+0x32>
    5a96:	f04f 0001 	mov.w	r0, #1
    5a9a:	f000 ffcf 	bl	6a3c <USBHwConfigDevice>
    5a9e:	f04f 0301 	mov.w	r3, #1
    5aa2:	4618      	mov	r0, r3
    5aa4:	f107 0718 	add.w	r7, r7, #24
    5aa8:	46bd      	mov	sp, r7
    5aaa:	bd80      	pop	{r7, pc}
    5aac:	20003d40 	.word	0x20003d40

00005ab0 <HandleStdDeviceReq>:
    5ab0:	b580      	push	{r7, lr}
    5ab2:	b086      	sub	sp, #24
    5ab4:	af00      	add	r7, sp, #0
    5ab6:	60f8      	str	r0, [r7, #12]
    5ab8:	60b9      	str	r1, [r7, #8]
    5aba:	607a      	str	r2, [r7, #4]
    5abc:	687b      	ldr	r3, [r7, #4]
    5abe:	681b      	ldr	r3, [r3, #0]
    5ac0:	617b      	str	r3, [r7, #20]
    5ac2:	68fb      	ldr	r3, [r7, #12]
    5ac4:	785b      	ldrb	r3, [r3, #1]
    5ac6:	2b09      	cmp	r3, #9
    5ac8:	d85b      	bhi.n	5b82 <HandleStdDeviceReq+0xd2>
    5aca:	a201      	add	r2, pc, #4	; (adr r2, 5ad0 <HandleStdDeviceReq+0x20>)
    5acc:	f852 f023 	ldr.w	pc, [r2, r3, lsl #2]
    5ad0:	00005af9 	.word	0x00005af9
    5ad4:	00005b77 	.word	0x00005b77
    5ad8:	00005b83 	.word	0x00005b83
    5adc:	00005b77 	.word	0x00005b77
    5ae0:	00005b83 	.word	0x00005b83
    5ae4:	00005b17 	.word	0x00005b17
    5ae8:	00005b25 	.word	0x00005b25
    5aec:	00005b7d 	.word	0x00005b7d
    5af0:	00005b3d 	.word	0x00005b3d
    5af4:	00005b4f 	.word	0x00005b4f
    5af8:	697b      	ldr	r3, [r7, #20]
    5afa:	f04f 0200 	mov.w	r2, #0
    5afe:	701a      	strb	r2, [r3, #0]
    5b00:	697b      	ldr	r3, [r7, #20]
    5b02:	f103 0301 	add.w	r3, r3, #1
    5b06:	f04f 0200 	mov.w	r2, #0
    5b0a:	701a      	strb	r2, [r3, #0]
    5b0c:	68bb      	ldr	r3, [r7, #8]
    5b0e:	f04f 0202 	mov.w	r2, #2
    5b12:	601a      	str	r2, [r3, #0]
    5b14:	e038      	b.n	5b88 <HandleStdDeviceReq+0xd8>
    5b16:	68fb      	ldr	r3, [r7, #12]
    5b18:	885b      	ldrh	r3, [r3, #2]
    5b1a:	b2db      	uxtb	r3, r3
    5b1c:	4618      	mov	r0, r3
    5b1e:	f000 fe47 	bl	67b0 <USBHwSetAddress>
    5b22:	e031      	b.n	5b88 <HandleStdDeviceReq+0xd8>
    5b24:	68fb      	ldr	r3, [r7, #12]
    5b26:	885a      	ldrh	r2, [r3, #2]
    5b28:	68fb      	ldr	r3, [r7, #12]
    5b2a:	889b      	ldrh	r3, [r3, #4]
    5b2c:	4610      	mov	r0, r2
    5b2e:	4619      	mov	r1, r3
    5b30:	68ba      	ldr	r2, [r7, #8]
    5b32:	687b      	ldr	r3, [r7, #4]
    5b34:	f7ff fef8 	bl	5928 <USBGetDescriptor>
    5b38:	4603      	mov	r3, r0
    5b3a:	e027      	b.n	5b8c <HandleStdDeviceReq+0xdc>
    5b3c:	4b16      	ldr	r3, [pc, #88]	; (5b98 <HandleStdDeviceReq+0xe8>)
    5b3e:	781a      	ldrb	r2, [r3, #0]
    5b40:	697b      	ldr	r3, [r7, #20]
    5b42:	701a      	strb	r2, [r3, #0]
    5b44:	68bb      	ldr	r3, [r7, #8]
    5b46:	f04f 0201 	mov.w	r2, #1
    5b4a:	601a      	str	r2, [r3, #0]
    5b4c:	e01c      	b.n	5b88 <HandleStdDeviceReq+0xd8>
    5b4e:	68fb      	ldr	r3, [r7, #12]
    5b50:	885b      	ldrh	r3, [r3, #2]
    5b52:	b2db      	uxtb	r3, r3
    5b54:	4618      	mov	r0, r3
    5b56:	f04f 0100 	mov.w	r1, #0
    5b5a:	f7ff ff3b 	bl	59d4 <USBSetConfiguration>
    5b5e:	4603      	mov	r3, r0
    5b60:	2b00      	cmp	r3, #0
    5b62:	d102      	bne.n	5b6a <HandleStdDeviceReq+0xba>
    5b64:	f04f 0300 	mov.w	r3, #0
    5b68:	e010      	b.n	5b8c <HandleStdDeviceReq+0xdc>
    5b6a:	68fb      	ldr	r3, [r7, #12]
    5b6c:	885b      	ldrh	r3, [r3, #2]
    5b6e:	b2da      	uxtb	r2, r3
    5b70:	4b09      	ldr	r3, [pc, #36]	; (5b98 <HandleStdDeviceReq+0xe8>)
    5b72:	701a      	strb	r2, [r3, #0]
    5b74:	e008      	b.n	5b88 <HandleStdDeviceReq+0xd8>
    5b76:	f04f 0300 	mov.w	r3, #0
    5b7a:	e007      	b.n	5b8c <HandleStdDeviceReq+0xdc>
    5b7c:	f04f 0300 	mov.w	r3, #0
    5b80:	e004      	b.n	5b8c <HandleStdDeviceReq+0xdc>
    5b82:	f04f 0300 	mov.w	r3, #0
    5b86:	e001      	b.n	5b8c <HandleStdDeviceReq+0xdc>
    5b88:	f04f 0301 	mov.w	r3, #1
    5b8c:	4618      	mov	r0, r3
    5b8e:	f107 0718 	add.w	r7, r7, #24
    5b92:	46bd      	mov	sp, r7
    5b94:	bd80      	pop	{r7, pc}
    5b96:	bf00      	nop
    5b98:	20003d38 	.word	0x20003d38

00005b9c <HandleStdInterfaceReq>:
    5b9c:	b480      	push	{r7}
    5b9e:	b087      	sub	sp, #28
    5ba0:	af00      	add	r7, sp, #0
    5ba2:	60f8      	str	r0, [r7, #12]
    5ba4:	60b9      	str	r1, [r7, #8]
    5ba6:	607a      	str	r2, [r7, #4]
    5ba8:	687b      	ldr	r3, [r7, #4]
    5baa:	681b      	ldr	r3, [r3, #0]
    5bac:	617b      	str	r3, [r7, #20]
    5bae:	68fb      	ldr	r3, [r7, #12]
    5bb0:	785b      	ldrb	r3, [r3, #1]
    5bb2:	2b0b      	cmp	r3, #11
    5bb4:	d841      	bhi.n	5c3a <HandleStdInterfaceReq+0x9e>
    5bb6:	a201      	add	r2, pc, #4	; (adr r2, 5bbc <HandleStdInterfaceReq+0x20>)
    5bb8:	f852 f023 	ldr.w	pc, [r2, r3, lsl #2]
    5bbc:	00005bed 	.word	0x00005bed
    5bc0:	00005c0b 	.word	0x00005c0b
    5bc4:	00005c3b 	.word	0x00005c3b
    5bc8:	00005c0b 	.word	0x00005c0b
    5bcc:	00005c3b 	.word	0x00005c3b
    5bd0:	00005c3b 	.word	0x00005c3b
    5bd4:	00005c3b 	.word	0x00005c3b
    5bd8:	00005c3b 	.word	0x00005c3b
    5bdc:	00005c3b 	.word	0x00005c3b
    5be0:	00005c3b 	.word	0x00005c3b
    5be4:	00005c11 	.word	0x00005c11
    5be8:	00005c23 	.word	0x00005c23
    5bec:	697b      	ldr	r3, [r7, #20]
    5bee:	f04f 0200 	mov.w	r2, #0
    5bf2:	701a      	strb	r2, [r3, #0]
    5bf4:	697b      	ldr	r3, [r7, #20]
    5bf6:	f103 0301 	add.w	r3, r3, #1
    5bfa:	f04f 0200 	mov.w	r2, #0
    5bfe:	701a      	strb	r2, [r3, #0]
    5c00:	68bb      	ldr	r3, [r7, #8]
    5c02:	f04f 0202 	mov.w	r2, #2
    5c06:	601a      	str	r2, [r3, #0]
    5c08:	e01a      	b.n	5c40 <HandleStdInterfaceReq+0xa4>
    5c0a:	f04f 0300 	mov.w	r3, #0
    5c0e:	e019      	b.n	5c44 <HandleStdInterfaceReq+0xa8>
    5c10:	697b      	ldr	r3, [r7, #20]
    5c12:	f04f 0200 	mov.w	r2, #0
    5c16:	701a      	strb	r2, [r3, #0]
    5c18:	68bb      	ldr	r3, [r7, #8]
    5c1a:	f04f 0201 	mov.w	r2, #1
    5c1e:	601a      	str	r2, [r3, #0]
    5c20:	e00e      	b.n	5c40 <HandleStdInterfaceReq+0xa4>
    5c22:	68fb      	ldr	r3, [r7, #12]
    5c24:	885b      	ldrh	r3, [r3, #2]
    5c26:	2b00      	cmp	r3, #0
    5c28:	d002      	beq.n	5c30 <HandleStdInterfaceReq+0x94>
    5c2a:	f04f 0300 	mov.w	r3, #0
    5c2e:	e009      	b.n	5c44 <HandleStdInterfaceReq+0xa8>
    5c30:	68bb      	ldr	r3, [r7, #8]
    5c32:	f04f 0200 	mov.w	r2, #0
    5c36:	601a      	str	r2, [r3, #0]
    5c38:	e002      	b.n	5c40 <HandleStdInterfaceReq+0xa4>
    5c3a:	f04f 0300 	mov.w	r3, #0
    5c3e:	e001      	b.n	5c44 <HandleStdInterfaceReq+0xa8>
    5c40:	f04f 0301 	mov.w	r3, #1
    5c44:	4618      	mov	r0, r3
    5c46:	f107 071c 	add.w	r7, r7, #28
    5c4a:	46bd      	mov	sp, r7
    5c4c:	bc80      	pop	{r7}
    5c4e:	4770      	bx	lr

00005c50 <HandleStdEndPointReq>:
    5c50:	b580      	push	{r7, lr}
    5c52:	b086      	sub	sp, #24
    5c54:	af00      	add	r7, sp, #0
    5c56:	60f8      	str	r0, [r7, #12]
    5c58:	60b9      	str	r1, [r7, #8]
    5c5a:	607a      	str	r2, [r7, #4]
    5c5c:	687b      	ldr	r3, [r7, #4]
    5c5e:	681b      	ldr	r3, [r3, #0]
    5c60:	617b      	str	r3, [r7, #20]
    5c62:	68fb      	ldr	r3, [r7, #12]
    5c64:	785b      	ldrb	r3, [r3, #1]
    5c66:	2b0c      	cmp	r3, #12
    5c68:	d85a      	bhi.n	5d20 <HandleStdEndPointReq+0xd0>
    5c6a:	a201      	add	r2, pc, #4	; (adr r2, 5c70 <HandleStdEndPointReq+0x20>)
    5c6c:	f852 f023 	ldr.w	pc, [r2, r3, lsl #2]
    5c70:	00005ca5 	.word	0x00005ca5
    5c74:	00005cdb 	.word	0x00005cdb
    5c78:	00005d21 	.word	0x00005d21
    5c7c:	00005cfb 	.word	0x00005cfb
    5c80:	00005d21 	.word	0x00005d21
    5c84:	00005d21 	.word	0x00005d21
    5c88:	00005d21 	.word	0x00005d21
    5c8c:	00005d21 	.word	0x00005d21
    5c90:	00005d21 	.word	0x00005d21
    5c94:	00005d21 	.word	0x00005d21
    5c98:	00005d21 	.word	0x00005d21
    5c9c:	00005d21 	.word	0x00005d21
    5ca0:	00005d1b 	.word	0x00005d1b
    5ca4:	68fb      	ldr	r3, [r7, #12]
    5ca6:	889b      	ldrh	r3, [r3, #4]
    5ca8:	b2db      	uxtb	r3, r3
    5caa:	4618      	mov	r0, r3
    5cac:	f000 fdb6 	bl	681c <USBHwEPGetStatus>
    5cb0:	4603      	mov	r3, r0
    5cb2:	f003 0302 	and.w	r3, r3, #2
    5cb6:	2b00      	cmp	r3, #0
    5cb8:	bf0c      	ite	eq
    5cba:	2300      	moveq	r3, #0
    5cbc:	2301      	movne	r3, #1
    5cbe:	b2da      	uxtb	r2, r3
    5cc0:	697b      	ldr	r3, [r7, #20]
    5cc2:	701a      	strb	r2, [r3, #0]
    5cc4:	697b      	ldr	r3, [r7, #20]
    5cc6:	f103 0301 	add.w	r3, r3, #1
    5cca:	f04f 0200 	mov.w	r2, #0
    5cce:	701a      	strb	r2, [r3, #0]
    5cd0:	68bb      	ldr	r3, [r7, #8]
    5cd2:	f04f 0202 	mov.w	r2, #2
    5cd6:	601a      	str	r2, [r3, #0]
    5cd8:	e025      	b.n	5d26 <HandleStdEndPointReq+0xd6>
    5cda:	68fb      	ldr	r3, [r7, #12]
    5cdc:	885b      	ldrh	r3, [r3, #2]
    5cde:	2b00      	cmp	r3, #0
    5ce0:	d108      	bne.n	5cf4 <HandleStdEndPointReq+0xa4>
    5ce2:	68fb      	ldr	r3, [r7, #12]
    5ce4:	889b      	ldrh	r3, [r3, #4]
    5ce6:	b2db      	uxtb	r3, r3
    5ce8:	4618      	mov	r0, r3
    5cea:	f04f 0100 	mov.w	r1, #0
    5cee:	f000 fdb1 	bl	6854 <USBHwEPStall>
    5cf2:	e018      	b.n	5d26 <HandleStdEndPointReq+0xd6>
    5cf4:	f04f 0300 	mov.w	r3, #0
    5cf8:	e017      	b.n	5d2a <HandleStdEndPointReq+0xda>
    5cfa:	68fb      	ldr	r3, [r7, #12]
    5cfc:	885b      	ldrh	r3, [r3, #2]
    5cfe:	2b00      	cmp	r3, #0
    5d00:	d108      	bne.n	5d14 <HandleStdEndPointReq+0xc4>
    5d02:	68fb      	ldr	r3, [r7, #12]
    5d04:	889b      	ldrh	r3, [r3, #4]
    5d06:	b2db      	uxtb	r3, r3
    5d08:	4618      	mov	r0, r3
    5d0a:	f04f 0101 	mov.w	r1, #1
    5d0e:	f000 fda1 	bl	6854 <USBHwEPStall>
    5d12:	e008      	b.n	5d26 <HandleStdEndPointReq+0xd6>
    5d14:	f04f 0300 	mov.w	r3, #0
    5d18:	e007      	b.n	5d2a <HandleStdEndPointReq+0xda>
    5d1a:	f04f 0300 	mov.w	r3, #0
    5d1e:	e004      	b.n	5d2a <HandleStdEndPointReq+0xda>
    5d20:	f04f 0300 	mov.w	r3, #0
    5d24:	e001      	b.n	5d2a <HandleStdEndPointReq+0xda>
    5d26:	f04f 0301 	mov.w	r3, #1
    5d2a:	4618      	mov	r0, r3
    5d2c:	f107 0718 	add.w	r7, r7, #24
    5d30:	46bd      	mov	sp, r7
    5d32:	bd80      	pop	{r7, pc}

00005d34 <USBHandleStandardRequest>:
    5d34:	b580      	push	{r7, lr}
    5d36:	b084      	sub	sp, #16
    5d38:	af00      	add	r7, sp, #0
    5d3a:	60f8      	str	r0, [r7, #12]
    5d3c:	60b9      	str	r1, [r7, #8]
    5d3e:	607a      	str	r2, [r7, #4]
    5d40:	4b1a      	ldr	r3, [pc, #104]	; (5dac <USBHandleStandardRequest+0x78>)
    5d42:	681b      	ldr	r3, [r3, #0]
    5d44:	2b00      	cmp	r3, #0
    5d46:	d00b      	beq.n	5d60 <USBHandleStandardRequest+0x2c>
    5d48:	4b18      	ldr	r3, [pc, #96]	; (5dac <USBHandleStandardRequest+0x78>)
    5d4a:	681b      	ldr	r3, [r3, #0]
    5d4c:	68f8      	ldr	r0, [r7, #12]
    5d4e:	68b9      	ldr	r1, [r7, #8]
    5d50:	687a      	ldr	r2, [r7, #4]
    5d52:	4798      	blx	r3
    5d54:	4603      	mov	r3, r0
    5d56:	2b00      	cmp	r3, #0
    5d58:	d002      	beq.n	5d60 <USBHandleStandardRequest+0x2c>
    5d5a:	f04f 0301 	mov.w	r3, #1
    5d5e:	e020      	b.n	5da2 <USBHandleStandardRequest+0x6e>
    5d60:	68fb      	ldr	r3, [r7, #12]
    5d62:	781b      	ldrb	r3, [r3, #0]
    5d64:	f003 031f 	and.w	r3, r3, #31
    5d68:	2b01      	cmp	r3, #1
    5d6a:	d00a      	beq.n	5d82 <USBHandleStandardRequest+0x4e>
    5d6c:	2b02      	cmp	r3, #2
    5d6e:	d00f      	beq.n	5d90 <USBHandleStandardRequest+0x5c>
    5d70:	2b00      	cmp	r3, #0
    5d72:	d114      	bne.n	5d9e <USBHandleStandardRequest+0x6a>
    5d74:	68f8      	ldr	r0, [r7, #12]
    5d76:	68b9      	ldr	r1, [r7, #8]
    5d78:	687a      	ldr	r2, [r7, #4]
    5d7a:	f7ff fe99 	bl	5ab0 <HandleStdDeviceReq>
    5d7e:	4603      	mov	r3, r0
    5d80:	e00f      	b.n	5da2 <USBHandleStandardRequest+0x6e>
    5d82:	68f8      	ldr	r0, [r7, #12]
    5d84:	68b9      	ldr	r1, [r7, #8]
    5d86:	687a      	ldr	r2, [r7, #4]
    5d88:	f7ff ff08 	bl	5b9c <HandleStdInterfaceReq>
    5d8c:	4603      	mov	r3, r0
    5d8e:	e008      	b.n	5da2 <USBHandleStandardRequest+0x6e>
    5d90:	68f8      	ldr	r0, [r7, #12]
    5d92:	68b9      	ldr	r1, [r7, #8]
    5d94:	687a      	ldr	r2, [r7, #4]
    5d96:	f7ff ff5b 	bl	5c50 <HandleStdEndPointReq>
    5d9a:	4603      	mov	r3, r0
    5d9c:	e001      	b.n	5da2 <USBHandleStandardRequest+0x6e>
    5d9e:	f04f 0300 	mov.w	r3, #0
    5da2:	4618      	mov	r0, r3
    5da4:	f107 0710 	add.w	r7, r7, #16
    5da8:	46bd      	mov	sp, r7
    5daa:	bd80      	pop	{r7, pc}
    5dac:	20003d3c 	.word	0x20003d3c

00005db0 <IRQ_ENABLE_RESTORE>:
    5db0:	b480      	push	{r7}
    5db2:	af00      	add	r7, sp, #0
    5db4:	b662      	cpsie	i
    5db6:	46bd      	mov	sp, r7
    5db8:	bc80      	pop	{r7}
    5dba:	4770      	bx	lr

00005dbc <IRQ_DISABLE_SAVE>:
    5dbc:	b480      	push	{r7}
    5dbe:	af00      	add	r7, sp, #0
    5dc0:	b672      	cpsid	i
    5dc2:	46bd      	mov	sp, r7
    5dc4:	bc80      	pop	{r7}
    5dc6:	4770      	bx	lr

00005dc8 <SetEnvironment>:
    5dc8:	f1a0 001c 	sub.w	r0, r0, #28
    5dcc:	f380 8809 	msr	PSP, r0
    5dd0:	4770      	bx	lr
    5dd2:	bf00      	nop

00005dd4 <SwitchContext>:
    5dd4:	4b02      	ldr	r3, [pc, #8]	; (5de0 <SwitchContext+0xc>)
    5dd6:	681b      	ldr	r3, [r3, #0]
    5dd8:	4a02      	ldr	r2, [pc, #8]	; (5de4 <SwitchContext+0x10>)
    5dda:	6811      	ldr	r1, [r2, #0]
    5ddc:	6019      	str	r1, [r3, #0]
    5dde:	4770      	bx	lr
    5de0:	20000074 	.word	0x20000074
    5de4:	20000078 	.word	0x20000078

00005de8 <PendSV_Handler>:
    5de8:	4b0b      	ldr	r3, [pc, #44]	; (5e18 <exitPendSV+0xe>)
    5dea:	6819      	ldr	r1, [r3, #0]
    5dec:	4a0b      	ldr	r2, [pc, #44]	; (5e1c <exitPendSV+0x12>)
    5dee:	6812      	ldr	r2, [r2, #0]
    5df0:	4291      	cmp	r1, r2
    5df2:	d00a      	beq.n	5e0a <exitPendSV>
    5df4:	f3ef 8009 	mrs	r0, PSP
    5df8:	e920 0ff0 	stmdb	r0!, {r4, r5, r6, r7, r8, r9, sl, fp}
    5dfc:	6008      	str	r0, [r1, #0]
    5dfe:	601a      	str	r2, [r3, #0]
    5e00:	6810      	ldr	r0, [r2, #0]
    5e02:	e8b0 0ff0 	ldmia.w	r0!, {r4, r5, r6, r7, r8, r9, sl, fp}
    5e06:	f380 8809 	msr	PSP, r0

00005e0a <exitPendSV>:
    5e0a:	4b05      	ldr	r3, [pc, #20]	; (5e20 <exitPendSV+0x16>)
    5e0c:	2000      	movs	r0, #0
    5e0e:	7018      	strb	r0, [r3, #0]
    5e10:	f04e 0e04 	orr.w	lr, lr, #4
    5e14:	4770      	bx	lr
    5e16:	0000      	.short	0x0000
    5e18:	20003790 	.word	0x20003790
    5e1c:	2000378c 	.word	0x2000378c
    5e20:	20000982 	.word	0x20000982

00005e24 <CoCreateQueue>:
    5e24:	b580      	push	{r7, lr}
    5e26:	b084      	sub	sp, #16
    5e28:	af00      	add	r7, sp, #0
    5e2a:	6078      	str	r0, [r7, #4]
    5e2c:	4613      	mov	r3, r2
    5e2e:	460a      	mov	r2, r1
    5e30:	807a      	strh	r2, [r7, #2]
    5e32:	707b      	strb	r3, [r7, #1]
    5e34:	687b      	ldr	r3, [r7, #4]
    5e36:	2b00      	cmp	r3, #0
    5e38:	d002      	beq.n	5e40 <CoCreateQueue+0x1c>
    5e3a:	887b      	ldrh	r3, [r7, #2]
    5e3c:	2b00      	cmp	r3, #0
    5e3e:	d102      	bne.n	5e46 <CoCreateQueue+0x22>
    5e40:	f04f 03ff 	mov.w	r3, #255	; 0xff
    5e44:	e078      	b.n	5f38 <CoCreateQueue+0x114>
    5e46:	4b3f      	ldr	r3, [pc, #252]	; (5f44 <CoCreateQueue+0x120>)
    5e48:	781b      	ldrb	r3, [r3, #0]
    5e4a:	b2db      	uxtb	r3, r3
    5e4c:	f103 0301 	add.w	r3, r3, #1
    5e50:	b2da      	uxtb	r2, r3
    5e52:	4b3c      	ldr	r3, [pc, #240]	; (5f44 <CoCreateQueue+0x120>)
    5e54:	701a      	strb	r2, [r3, #0]
    5e56:	f04f 0300 	mov.w	r3, #0
    5e5a:	73fb      	strb	r3, [r7, #15]
    5e5c:	e065      	b.n	5f2a <CoCreateQueue+0x106>
    5e5e:	7bfb      	ldrb	r3, [r7, #15]
    5e60:	f04f 0201 	mov.w	r2, #1
    5e64:	fa02 f303 	lsl.w	r3, r2, r3
    5e68:	461a      	mov	r2, r3
    5e6a:	4b37      	ldr	r3, [pc, #220]	; (5f48 <CoCreateQueue+0x124>)
    5e6c:	681b      	ldr	r3, [r3, #0]
    5e6e:	ea02 0303 	and.w	r3, r2, r3
    5e72:	2b00      	cmp	r3, #0
    5e74:	d155      	bne.n	5f22 <CoCreateQueue+0xfe>
    5e76:	7bfb      	ldrb	r3, [r7, #15]
    5e78:	f04f 0201 	mov.w	r2, #1
    5e7c:	fa02 f303 	lsl.w	r3, r2, r3
    5e80:	461a      	mov	r2, r3
    5e82:	4b31      	ldr	r3, [pc, #196]	; (5f48 <CoCreateQueue+0x124>)
    5e84:	681b      	ldr	r3, [r3, #0]
    5e86:	431a      	orrs	r2, r3
    5e88:	4b2f      	ldr	r3, [pc, #188]	; (5f48 <CoCreateQueue+0x124>)
    5e8a:	601a      	str	r2, [r3, #0]
    5e8c:	f7fb fd0a 	bl	18a4 <OsSchedUnlock>
    5e90:	7bfb      	ldrb	r3, [r7, #15]
    5e92:	4a2e      	ldr	r2, [pc, #184]	; (5f4c <CoCreateQueue+0x128>)
    5e94:	ea4f 1303 	mov.w	r3, r3, lsl #4
    5e98:	18d3      	adds	r3, r2, r3
    5e9a:	687a      	ldr	r2, [r7, #4]
    5e9c:	601a      	str	r2, [r3, #0]
    5e9e:	7bfb      	ldrb	r3, [r7, #15]
    5ea0:	4a2a      	ldr	r2, [pc, #168]	; (5f4c <CoCreateQueue+0x128>)
    5ea2:	ea4f 1303 	mov.w	r3, r3, lsl #4
    5ea6:	18d3      	adds	r3, r2, r3
    5ea8:	7bfa      	ldrb	r2, [r7, #15]
    5eaa:	711a      	strb	r2, [r3, #4]
    5eac:	7bfb      	ldrb	r3, [r7, #15]
    5eae:	4a27      	ldr	r2, [pc, #156]	; (5f4c <CoCreateQueue+0x128>)
    5eb0:	ea4f 1303 	mov.w	r3, r3, lsl #4
    5eb4:	18d3      	adds	r3, r2, r3
    5eb6:	f04f 0200 	mov.w	r2, #0
    5eba:	80da      	strh	r2, [r3, #6]
    5ebc:	7bfb      	ldrb	r3, [r7, #15]
    5ebe:	4a23      	ldr	r2, [pc, #140]	; (5f4c <CoCreateQueue+0x128>)
    5ec0:	ea4f 1303 	mov.w	r3, r3, lsl #4
    5ec4:	18d3      	adds	r3, r2, r3
    5ec6:	f103 0308 	add.w	r3, r3, #8
    5eca:	f04f 0200 	mov.w	r2, #0
    5ece:	801a      	strh	r2, [r3, #0]
    5ed0:	7bfb      	ldrb	r3, [r7, #15]
    5ed2:	4a1e      	ldr	r2, [pc, #120]	; (5f4c <CoCreateQueue+0x128>)
    5ed4:	ea4f 1303 	mov.w	r3, r3, lsl #4
    5ed8:	18d3      	adds	r3, r2, r3
    5eda:	f103 0308 	add.w	r3, r3, #8
    5ede:	887a      	ldrh	r2, [r7, #2]
    5ee0:	805a      	strh	r2, [r3, #2]
    5ee2:	7bfb      	ldrb	r3, [r7, #15]
    5ee4:	4a19      	ldr	r2, [pc, #100]	; (5f4c <CoCreateQueue+0x128>)
    5ee6:	ea4f 1303 	mov.w	r3, r3, lsl #4
    5eea:	18d3      	adds	r3, r2, r3
    5eec:	f103 0308 	add.w	r3, r3, #8
    5ef0:	f04f 0200 	mov.w	r2, #0
    5ef4:	809a      	strh	r2, [r3, #4]
    5ef6:	7bfb      	ldrb	r3, [r7, #15]
    5ef8:	ea4f 1203 	mov.w	r2, r3, lsl #4
    5efc:	4b13      	ldr	r3, [pc, #76]	; (5f4c <CoCreateQueue+0x128>)
    5efe:	18d3      	adds	r3, r2, r3
    5f00:	787a      	ldrb	r2, [r7, #1]
    5f02:	f04f 0003 	mov.w	r0, #3
    5f06:	4611      	mov	r1, r2
    5f08:	461a      	mov	r2, r3
    5f0a:	f7ff f8a9 	bl	5060 <CreatEvent>
    5f0e:	60b8      	str	r0, [r7, #8]
    5f10:	68bb      	ldr	r3, [r7, #8]
    5f12:	2b00      	cmp	r3, #0
    5f14:	d102      	bne.n	5f1c <CoCreateQueue+0xf8>
    5f16:	f04f 03ff 	mov.w	r3, #255	; 0xff
    5f1a:	e00d      	b.n	5f38 <CoCreateQueue+0x114>
    5f1c:	68bb      	ldr	r3, [r7, #8]
    5f1e:	791b      	ldrb	r3, [r3, #4]
    5f20:	e00a      	b.n	5f38 <CoCreateQueue+0x114>
    5f22:	7bfb      	ldrb	r3, [r7, #15]
    5f24:	f103 0301 	add.w	r3, r3, #1
    5f28:	73fb      	strb	r3, [r7, #15]
    5f2a:	7bfb      	ldrb	r3, [r7, #15]
    5f2c:	2b01      	cmp	r3, #1
    5f2e:	d996      	bls.n	5e5e <CoCreateQueue+0x3a>
    5f30:	f7fb fcb8 	bl	18a4 <OsSchedUnlock>
    5f34:	f04f 03ff 	mov.w	r3, #255	; 0xff
    5f38:	4618      	mov	r0, r3
    5f3a:	f107 0710 	add.w	r7, r7, #16
    5f3e:	46bd      	mov	sp, r7
    5f40:	bd80      	pop	{r7, pc}
    5f42:	bf00      	nop
    5f44:	20000982 	.word	0x20000982
    5f48:	20003d64 	.word	0x20003d64
    5f4c:	20003d44 	.word	0x20003d44

00005f50 <CoDelQueue>:
    5f50:	b580      	push	{r7, lr}
    5f52:	b086      	sub	sp, #24
    5f54:	af00      	add	r7, sp, #0
    5f56:	4602      	mov	r2, r0
    5f58:	460b      	mov	r3, r1
    5f5a:	71fa      	strb	r2, [r7, #7]
    5f5c:	71bb      	strb	r3, [r7, #6]
    5f5e:	79fb      	ldrb	r3, [r7, #7]
    5f60:	2b13      	cmp	r3, #19
    5f62:	d902      	bls.n	5f6a <CoDelQueue+0x1a>
    5f64:	f04f 0301 	mov.w	r3, #1
    5f68:	e042      	b.n	5ff0 <CoDelQueue+0xa0>
    5f6a:	79fb      	ldrb	r3, [r7, #7]
    5f6c:	ea4f 1203 	mov.w	r2, r3, lsl #4
    5f70:	4b22      	ldr	r3, [pc, #136]	; (5ffc <CoDelQueue+0xac>)
    5f72:	18d3      	adds	r3, r2, r3
    5f74:	617b      	str	r3, [r7, #20]
    5f76:	697b      	ldr	r3, [r7, #20]
    5f78:	795b      	ldrb	r3, [r3, #5]
    5f7a:	f003 030f 	and.w	r3, r3, #15
    5f7e:	b2db      	uxtb	r3, r3
    5f80:	2b03      	cmp	r3, #3
    5f82:	d002      	beq.n	5f8a <CoDelQueue+0x3a>
    5f84:	f04f 0301 	mov.w	r3, #1
    5f88:	e032      	b.n	5ff0 <CoDelQueue+0xa0>
    5f8a:	697b      	ldr	r3, [r7, #20]
    5f8c:	681b      	ldr	r3, [r3, #0]
    5f8e:	613b      	str	r3, [r7, #16]
    5f90:	79bb      	ldrb	r3, [r7, #6]
    5f92:	6978      	ldr	r0, [r7, #20]
    5f94:	4619      	mov	r1, r3
    5f96:	f7ff f8ab 	bl	50f0 <DeleteEvent>
    5f9a:	4603      	mov	r3, r0
    5f9c:	73fb      	strb	r3, [r7, #15]
    5f9e:	7bfb      	ldrb	r3, [r7, #15]
    5fa0:	2b00      	cmp	r3, #0
    5fa2:	d124      	bne.n	5fee <CoDelQueue+0x9e>
    5fa4:	693b      	ldr	r3, [r7, #16]
    5fa6:	791b      	ldrb	r3, [r3, #4]
    5fa8:	f04f 0201 	mov.w	r2, #1
    5fac:	fa02 f303 	lsl.w	r3, r2, r3
    5fb0:	ea6f 0203 	mvn.w	r2, r3
    5fb4:	4b12      	ldr	r3, [pc, #72]	; (6000 <CoDelQueue+0xb0>)
    5fb6:	681b      	ldr	r3, [r3, #0]
    5fb8:	401a      	ands	r2, r3
    5fba:	4b11      	ldr	r3, [pc, #68]	; (6000 <CoDelQueue+0xb0>)
    5fbc:	601a      	str	r2, [r3, #0]
    5fbe:	693b      	ldr	r3, [r7, #16]
    5fc0:	f04f 0200 	mov.w	r2, #0
    5fc4:	601a      	str	r2, [r3, #0]
    5fc6:	693b      	ldr	r3, [r7, #16]
    5fc8:	f04f 0200 	mov.w	r2, #0
    5fcc:	711a      	strb	r2, [r3, #4]
    5fce:	693b      	ldr	r3, [r7, #16]
    5fd0:	f04f 0200 	mov.w	r2, #0
    5fd4:	80da      	strh	r2, [r3, #6]
    5fd6:	693b      	ldr	r3, [r7, #16]
    5fd8:	f04f 0200 	mov.w	r2, #0
    5fdc:	811a      	strh	r2, [r3, #8]
    5fde:	693b      	ldr	r3, [r7, #16]
    5fe0:	f04f 0200 	mov.w	r2, #0
    5fe4:	815a      	strh	r2, [r3, #10]
    5fe6:	693b      	ldr	r3, [r7, #16]
    5fe8:	f04f 0200 	mov.w	r2, #0
    5fec:	819a      	strh	r2, [r3, #12]
    5fee:	7bfb      	ldrb	r3, [r7, #15]
    5ff0:	4618      	mov	r0, r3
    5ff2:	f107 0718 	add.w	r7, r7, #24
    5ff6:	46bd      	mov	sp, r7
    5ff8:	bd80      	pop	{r7, pc}
    5ffa:	bf00      	nop
    5ffc:	20003a44 	.word	0x20003a44
    6000:	20003d64 	.word	0x20003d64

00006004 <CoAcceptQueueMail>:
    6004:	b580      	push	{r7, lr}
    6006:	b086      	sub	sp, #24
    6008:	af00      	add	r7, sp, #0
    600a:	4603      	mov	r3, r0
    600c:	6039      	str	r1, [r7, #0]
    600e:	71fb      	strb	r3, [r7, #7]
    6010:	79fb      	ldrb	r3, [r7, #7]
    6012:	2b13      	cmp	r3, #19
    6014:	d906      	bls.n	6024 <CoAcceptQueueMail+0x20>
    6016:	683b      	ldr	r3, [r7, #0]
    6018:	f04f 0201 	mov.w	r2, #1
    601c:	701a      	strb	r2, [r3, #0]
    601e:	f04f 0300 	mov.w	r3, #0
    6022:	e053      	b.n	60cc <CoAcceptQueueMail+0xc8>
    6024:	79fb      	ldrb	r3, [r7, #7]
    6026:	ea4f 1203 	mov.w	r2, r3, lsl #4
    602a:	4b2b      	ldr	r3, [pc, #172]	; (60d8 <CoAcceptQueueMail+0xd4>)
    602c:	18d3      	adds	r3, r2, r3
    602e:	617b      	str	r3, [r7, #20]
    6030:	697b      	ldr	r3, [r7, #20]
    6032:	795b      	ldrb	r3, [r3, #5]
    6034:	f003 030f 	and.w	r3, r3, #15
    6038:	b2db      	uxtb	r3, r3
    603a:	2b03      	cmp	r3, #3
    603c:	d006      	beq.n	604c <CoAcceptQueueMail+0x48>
    603e:	683b      	ldr	r3, [r7, #0]
    6040:	f04f 0201 	mov.w	r2, #1
    6044:	701a      	strb	r2, [r3, #0]
    6046:	f04f 0300 	mov.w	r3, #0
    604a:	e03f      	b.n	60cc <CoAcceptQueueMail+0xc8>
    604c:	697b      	ldr	r3, [r7, #20]
    604e:	681b      	ldr	r3, [r3, #0]
    6050:	613b      	str	r3, [r7, #16]
    6052:	4b22      	ldr	r3, [pc, #136]	; (60dc <CoAcceptQueueMail+0xd8>)
    6054:	781b      	ldrb	r3, [r3, #0]
    6056:	b2db      	uxtb	r3, r3
    6058:	f103 0301 	add.w	r3, r3, #1
    605c:	b2da      	uxtb	r2, r3
    605e:	4b1f      	ldr	r3, [pc, #124]	; (60dc <CoAcceptQueueMail+0xd8>)
    6060:	701a      	strb	r2, [r3, #0]
    6062:	693b      	ldr	r3, [r7, #16]
    6064:	899b      	ldrh	r3, [r3, #12]
    6066:	2b00      	cmp	r3, #0
    6068:	d028      	beq.n	60bc <CoAcceptQueueMail+0xb8>
    606a:	693b      	ldr	r3, [r7, #16]
    606c:	681a      	ldr	r2, [r3, #0]
    606e:	693b      	ldr	r3, [r7, #16]
    6070:	88db      	ldrh	r3, [r3, #6]
    6072:	ea4f 0383 	mov.w	r3, r3, lsl #2
    6076:	18d3      	adds	r3, r2, r3
    6078:	681b      	ldr	r3, [r3, #0]
    607a:	60fb      	str	r3, [r7, #12]
    607c:	693b      	ldr	r3, [r7, #16]
    607e:	88db      	ldrh	r3, [r3, #6]
    6080:	f103 0301 	add.w	r3, r3, #1
    6084:	b29a      	uxth	r2, r3
    6086:	693b      	ldr	r3, [r7, #16]
    6088:	80da      	strh	r2, [r3, #6]
    608a:	693b      	ldr	r3, [r7, #16]
    608c:	899b      	ldrh	r3, [r3, #12]
    608e:	f103 33ff 	add.w	r3, r3, #4294967295
    6092:	b29a      	uxth	r2, r3
    6094:	693b      	ldr	r3, [r7, #16]
    6096:	819a      	strh	r2, [r3, #12]
    6098:	693b      	ldr	r3, [r7, #16]
    609a:	88da      	ldrh	r2, [r3, #6]
    609c:	693b      	ldr	r3, [r7, #16]
    609e:	895b      	ldrh	r3, [r3, #10]
    60a0:	429a      	cmp	r2, r3
    60a2:	d103      	bne.n	60ac <CoAcceptQueueMail+0xa8>
    60a4:	693b      	ldr	r3, [r7, #16]
    60a6:	f04f 0200 	mov.w	r2, #0
    60aa:	80da      	strh	r2, [r3, #6]
    60ac:	f7fb fbfa 	bl	18a4 <OsSchedUnlock>
    60b0:	683b      	ldr	r3, [r7, #0]
    60b2:	f04f 0200 	mov.w	r2, #0
    60b6:	701a      	strb	r2, [r3, #0]
    60b8:	68fb      	ldr	r3, [r7, #12]
    60ba:	e007      	b.n	60cc <CoAcceptQueueMail+0xc8>
    60bc:	f7fb fbf2 	bl	18a4 <OsSchedUnlock>
    60c0:	683b      	ldr	r3, [r7, #0]
    60c2:	f04f 020b 	mov.w	r2, #11
    60c6:	701a      	strb	r2, [r3, #0]
    60c8:	f04f 0300 	mov.w	r3, #0
    60cc:	4618      	mov	r0, r3
    60ce:	f107 0718 	add.w	r7, r7, #24
    60d2:	46bd      	mov	sp, r7
    60d4:	bd80      	pop	{r7, pc}
    60d6:	bf00      	nop
    60d8:	20003a44 	.word	0x20003a44
    60dc:	20000982 	.word	0x20000982

000060e0 <CoPendQueueMail>:
    60e0:	b580      	push	{r7, lr}
    60e2:	b088      	sub	sp, #32
    60e4:	af00      	add	r7, sp, #0
    60e6:	4603      	mov	r3, r0
    60e8:	60b9      	str	r1, [r7, #8]
    60ea:	607a      	str	r2, [r7, #4]
    60ec:	73fb      	strb	r3, [r7, #15]
    60ee:	4b5a      	ldr	r3, [pc, #360]	; (6258 <CoPendQueueMail+0x178>)
    60f0:	781b      	ldrb	r3, [r3, #0]
    60f2:	b2db      	uxtb	r3, r3
    60f4:	2b00      	cmp	r3, #0
    60f6:	d006      	beq.n	6106 <CoPendQueueMail+0x26>
    60f8:	687b      	ldr	r3, [r7, #4]
    60fa:	f04f 0203 	mov.w	r2, #3
    60fe:	701a      	strb	r2, [r3, #0]
    6100:	f04f 0300 	mov.w	r3, #0
    6104:	e0a3      	b.n	624e <CoPendQueueMail+0x16e>
    6106:	7bfb      	ldrb	r3, [r7, #15]
    6108:	2b13      	cmp	r3, #19
    610a:	d906      	bls.n	611a <CoPendQueueMail+0x3a>
    610c:	687b      	ldr	r3, [r7, #4]
    610e:	f04f 0201 	mov.w	r2, #1
    6112:	701a      	strb	r2, [r3, #0]
    6114:	f04f 0300 	mov.w	r3, #0
    6118:	e099      	b.n	624e <CoPendQueueMail+0x16e>
    611a:	7bfb      	ldrb	r3, [r7, #15]
    611c:	ea4f 1203 	mov.w	r2, r3, lsl #4
    6120:	4b4e      	ldr	r3, [pc, #312]	; (625c <CoPendQueueMail+0x17c>)
    6122:	18d3      	adds	r3, r2, r3
    6124:	61fb      	str	r3, [r7, #28]
    6126:	69fb      	ldr	r3, [r7, #28]
    6128:	795b      	ldrb	r3, [r3, #5]
    612a:	f003 030f 	and.w	r3, r3, #15
    612e:	b2db      	uxtb	r3, r3
    6130:	2b03      	cmp	r3, #3
    6132:	d006      	beq.n	6142 <CoPendQueueMail+0x62>
    6134:	687b      	ldr	r3, [r7, #4]
    6136:	f04f 0201 	mov.w	r2, #1
    613a:	701a      	strb	r2, [r3, #0]
    613c:	f04f 0300 	mov.w	r3, #0
    6140:	e085      	b.n	624e <CoPendQueueMail+0x16e>
    6142:	4b47      	ldr	r3, [pc, #284]	; (6260 <CoPendQueueMail+0x180>)
    6144:	781b      	ldrb	r3, [r3, #0]
    6146:	b2db      	uxtb	r3, r3
    6148:	2b00      	cmp	r3, #0
    614a:	d006      	beq.n	615a <CoPendQueueMail+0x7a>
    614c:	687b      	ldr	r3, [r7, #4]
    614e:	f04f 0215 	mov.w	r2, #21
    6152:	701a      	strb	r2, [r3, #0]
    6154:	f04f 0300 	mov.w	r3, #0
    6158:	e079      	b.n	624e <CoPendQueueMail+0x16e>
    615a:	69fb      	ldr	r3, [r7, #28]
    615c:	681b      	ldr	r3, [r3, #0]
    615e:	61bb      	str	r3, [r7, #24]
    6160:	4b3f      	ldr	r3, [pc, #252]	; (6260 <CoPendQueueMail+0x180>)
    6162:	781b      	ldrb	r3, [r3, #0]
    6164:	b2db      	uxtb	r3, r3
    6166:	f103 0301 	add.w	r3, r3, #1
    616a:	b2da      	uxtb	r2, r3
    616c:	4b3c      	ldr	r3, [pc, #240]	; (6260 <CoPendQueueMail+0x180>)
    616e:	701a      	strb	r2, [r3, #0]
    6170:	69bb      	ldr	r3, [r7, #24]
    6172:	899b      	ldrh	r3, [r3, #12]
    6174:	2b00      	cmp	r3, #0
    6176:	d028      	beq.n	61ca <CoPendQueueMail+0xea>
    6178:	69bb      	ldr	r3, [r7, #24]
    617a:	681a      	ldr	r2, [r3, #0]
    617c:	69bb      	ldr	r3, [r7, #24]
    617e:	88db      	ldrh	r3, [r3, #6]
    6180:	ea4f 0383 	mov.w	r3, r3, lsl #2
    6184:	18d3      	adds	r3, r2, r3
    6186:	681b      	ldr	r3, [r3, #0]
    6188:	617b      	str	r3, [r7, #20]
    618a:	69bb      	ldr	r3, [r7, #24]
    618c:	88db      	ldrh	r3, [r3, #6]
    618e:	f103 0301 	add.w	r3, r3, #1
    6192:	b29a      	uxth	r2, r3
    6194:	69bb      	ldr	r3, [r7, #24]
    6196:	80da      	strh	r2, [r3, #6]
    6198:	69bb      	ldr	r3, [r7, #24]
    619a:	899b      	ldrh	r3, [r3, #12]
    619c:	f103 33ff 	add.w	r3, r3, #4294967295
    61a0:	b29a      	uxth	r2, r3
    61a2:	69bb      	ldr	r3, [r7, #24]
    61a4:	819a      	strh	r2, [r3, #12]
    61a6:	69bb      	ldr	r3, [r7, #24]
    61a8:	88da      	ldrh	r2, [r3, #6]
    61aa:	69bb      	ldr	r3, [r7, #24]
    61ac:	895b      	ldrh	r3, [r3, #10]
    61ae:	429a      	cmp	r2, r3
    61b0:	d103      	bne.n	61ba <CoPendQueueMail+0xda>
    61b2:	69bb      	ldr	r3, [r7, #24]
    61b4:	f04f 0200 	mov.w	r2, #0
    61b8:	80da      	strh	r2, [r3, #6]
    61ba:	f7fb fb73 	bl	18a4 <OsSchedUnlock>
    61be:	687b      	ldr	r3, [r7, #4]
    61c0:	f04f 0200 	mov.w	r2, #0
    61c4:	701a      	strb	r2, [r3, #0]
    61c6:	697b      	ldr	r3, [r7, #20]
    61c8:	e041      	b.n	624e <CoPendQueueMail+0x16e>
    61ca:	f7fb fb6b 	bl	18a4 <OsSchedUnlock>
    61ce:	4b25      	ldr	r3, [pc, #148]	; (6264 <CoPendQueueMail+0x184>)
    61d0:	681b      	ldr	r3, [r3, #0]
    61d2:	613b      	str	r3, [r7, #16]
    61d4:	68bb      	ldr	r3, [r7, #8]
    61d6:	2b00      	cmp	r3, #0
    61d8:	d110      	bne.n	61fc <CoPendQueueMail+0x11c>
    61da:	69f8      	ldr	r0, [r7, #28]
    61dc:	6939      	ldr	r1, [r7, #16]
    61de:	f7fe ffd3 	bl	5188 <EventTaskToWait>
    61e2:	693b      	ldr	r3, [r7, #16]
    61e4:	691b      	ldr	r3, [r3, #16]
    61e6:	617b      	str	r3, [r7, #20]
    61e8:	693b      	ldr	r3, [r7, #16]
    61ea:	f04f 0200 	mov.w	r2, #0
    61ee:	611a      	str	r2, [r3, #16]
    61f0:	687b      	ldr	r3, [r7, #4]
    61f2:	f04f 0200 	mov.w	r2, #0
    61f6:	701a      	strb	r2, [r3, #0]
    61f8:	697b      	ldr	r3, [r7, #20]
    61fa:	e028      	b.n	624e <CoPendQueueMail+0x16e>
    61fc:	4b18      	ldr	r3, [pc, #96]	; (6260 <CoPendQueueMail+0x180>)
    61fe:	781b      	ldrb	r3, [r3, #0]
    6200:	b2db      	uxtb	r3, r3
    6202:	f103 0301 	add.w	r3, r3, #1
    6206:	b2da      	uxtb	r2, r3
    6208:	4b15      	ldr	r3, [pc, #84]	; (6260 <CoPendQueueMail+0x180>)
    620a:	701a      	strb	r2, [r3, #0]
    620c:	69f8      	ldr	r0, [r7, #28]
    620e:	6939      	ldr	r1, [r7, #16]
    6210:	f7fe ffba 	bl	5188 <EventTaskToWait>
    6214:	6938      	ldr	r0, [r7, #16]
    6216:	68b9      	ldr	r1, [r7, #8]
    6218:	f7fd fe8a 	bl	3f30 <InsertDelayList>
    621c:	f7fb fb42 	bl	18a4 <OsSchedUnlock>
    6220:	693b      	ldr	r3, [r7, #16]
    6222:	691b      	ldr	r3, [r3, #16]
    6224:	2b00      	cmp	r3, #0
    6226:	d106      	bne.n	6236 <CoPendQueueMail+0x156>
    6228:	687b      	ldr	r3, [r7, #4]
    622a:	f04f 0205 	mov.w	r2, #5
    622e:	701a      	strb	r2, [r3, #0]
    6230:	f04f 0300 	mov.w	r3, #0
    6234:	e00b      	b.n	624e <CoPendQueueMail+0x16e>
    6236:	693b      	ldr	r3, [r7, #16]
    6238:	691b      	ldr	r3, [r3, #16]
    623a:	617b      	str	r3, [r7, #20]
    623c:	693b      	ldr	r3, [r7, #16]
    623e:	f04f 0200 	mov.w	r2, #0
    6242:	611a      	str	r2, [r3, #16]
    6244:	687b      	ldr	r3, [r7, #4]
    6246:	f04f 0200 	mov.w	r2, #0
    624a:	701a      	strb	r2, [r3, #0]
    624c:	697b      	ldr	r3, [r7, #20]
    624e:	4618      	mov	r0, r3
    6250:	f107 0720 	add.w	r7, r7, #32
    6254:	46bd      	mov	sp, r7
    6256:	bd80      	pop	{r7, pc}
    6258:	20000981 	.word	0x20000981
    625c:	20003a44 	.word	0x20003a44
    6260:	20000982 	.word	0x20000982
    6264:	20003790 	.word	0x20003790

00006268 <CoPostQueueMail>:
    6268:	b580      	push	{r7, lr}
    626a:	b084      	sub	sp, #16
    626c:	af00      	add	r7, sp, #0
    626e:	4603      	mov	r3, r0
    6270:	6039      	str	r1, [r7, #0]
    6272:	71fb      	strb	r3, [r7, #7]
    6274:	79fb      	ldrb	r3, [r7, #7]
    6276:	2b13      	cmp	r3, #19
    6278:	d902      	bls.n	6280 <CoPostQueueMail+0x18>
    627a:	f04f 0301 	mov.w	r3, #1
    627e:	e04b      	b.n	6318 <CoPostQueueMail+0xb0>
    6280:	79fb      	ldrb	r3, [r7, #7]
    6282:	ea4f 1203 	mov.w	r2, r3, lsl #4
    6286:	4b27      	ldr	r3, [pc, #156]	; (6324 <CoPostQueueMail+0xbc>)
    6288:	18d3      	adds	r3, r2, r3
    628a:	60fb      	str	r3, [r7, #12]
    628c:	68fb      	ldr	r3, [r7, #12]
    628e:	795b      	ldrb	r3, [r3, #5]
    6290:	f003 030f 	and.w	r3, r3, #15
    6294:	b2db      	uxtb	r3, r3
    6296:	2b03      	cmp	r3, #3
    6298:	d002      	beq.n	62a0 <CoPostQueueMail+0x38>
    629a:	f04f 0301 	mov.w	r3, #1
    629e:	e03b      	b.n	6318 <CoPostQueueMail+0xb0>
    62a0:	68fb      	ldr	r3, [r7, #12]
    62a2:	681b      	ldr	r3, [r3, #0]
    62a4:	60bb      	str	r3, [r7, #8]
    62a6:	68bb      	ldr	r3, [r7, #8]
    62a8:	899a      	ldrh	r2, [r3, #12]
    62aa:	68bb      	ldr	r3, [r7, #8]
    62ac:	895b      	ldrh	r3, [r3, #10]
    62ae:	429a      	cmp	r2, r3
    62b0:	d102      	bne.n	62b8 <CoPostQueueMail+0x50>
    62b2:	f04f 0308 	mov.w	r3, #8
    62b6:	e02f      	b.n	6318 <CoPostQueueMail+0xb0>
    62b8:	4b1b      	ldr	r3, [pc, #108]	; (6328 <CoPostQueueMail+0xc0>)
    62ba:	781b      	ldrb	r3, [r3, #0]
    62bc:	b2db      	uxtb	r3, r3
    62be:	f103 0301 	add.w	r3, r3, #1
    62c2:	b2da      	uxtb	r2, r3
    62c4:	4b18      	ldr	r3, [pc, #96]	; (6328 <CoPostQueueMail+0xc0>)
    62c6:	701a      	strb	r2, [r3, #0]
    62c8:	68bb      	ldr	r3, [r7, #8]
    62ca:	681a      	ldr	r2, [r3, #0]
    62cc:	68bb      	ldr	r3, [r7, #8]
    62ce:	891b      	ldrh	r3, [r3, #8]
    62d0:	ea4f 0383 	mov.w	r3, r3, lsl #2
    62d4:	18d3      	adds	r3, r2, r3
    62d6:	683a      	ldr	r2, [r7, #0]
    62d8:	601a      	str	r2, [r3, #0]
    62da:	68bb      	ldr	r3, [r7, #8]
    62dc:	891b      	ldrh	r3, [r3, #8]
    62de:	f103 0301 	add.w	r3, r3, #1
    62e2:	b29a      	uxth	r2, r3
    62e4:	68bb      	ldr	r3, [r7, #8]
    62e6:	811a      	strh	r2, [r3, #8]
    62e8:	68bb      	ldr	r3, [r7, #8]
    62ea:	899b      	ldrh	r3, [r3, #12]
    62ec:	f103 0301 	add.w	r3, r3, #1
    62f0:	b29a      	uxth	r2, r3
    62f2:	68bb      	ldr	r3, [r7, #8]
    62f4:	819a      	strh	r2, [r3, #12]
    62f6:	68bb      	ldr	r3, [r7, #8]
    62f8:	891a      	ldrh	r2, [r3, #8]
    62fa:	68bb      	ldr	r3, [r7, #8]
    62fc:	895b      	ldrh	r3, [r3, #10]
    62fe:	429a      	cmp	r2, r3
    6300:	d103      	bne.n	630a <CoPostQueueMail+0xa2>
    6302:	68bb      	ldr	r3, [r7, #8]
    6304:	f04f 0200 	mov.w	r2, #0
    6308:	811a      	strh	r2, [r3, #8]
    630a:	68f8      	ldr	r0, [r7, #12]
    630c:	f7fe ffc2 	bl	5294 <EventTaskToRdy>
    6310:	f7fb fac8 	bl	18a4 <OsSchedUnlock>
    6314:	f04f 0300 	mov.w	r3, #0
    6318:	4618      	mov	r0, r3
    631a:	f107 0710 	add.w	r7, r7, #16
    631e:	46bd      	mov	sp, r7
    6320:	bd80      	pop	{r7, pc}
    6322:	bf00      	nop
    6324:	20003a44 	.word	0x20003a44
    6328:	20000982 	.word	0x20000982

0000632c <CoSetFlag>:
    632c:	b580      	push	{r7, lr}
    632e:	b084      	sub	sp, #16
    6330:	af00      	add	r7, sp, #0
    6332:	4603      	mov	r3, r0
    6334:	71fb      	strb	r3, [r7, #7]
    6336:	4b41      	ldr	r3, [pc, #260]	; (643c <CoSetFlag+0x110>)
    6338:	60bb      	str	r3, [r7, #8]
    633a:	79fb      	ldrb	r3, [r7, #7]
    633c:	2b1f      	cmp	r3, #31
    633e:	d902      	bls.n	6346 <CoSetFlag+0x1a>
    6340:	f04f 0301 	mov.w	r3, #1
    6344:	e074      	b.n	6430 <CoSetFlag+0x104>
    6346:	68bb      	ldr	r3, [r7, #8]
    6348:	689a      	ldr	r2, [r3, #8]
    634a:	79fb      	ldrb	r3, [r7, #7]
    634c:	f04f 0101 	mov.w	r1, #1
    6350:	fa01 f303 	lsl.w	r3, r1, r3
    6354:	ea02 0303 	and.w	r3, r2, r3
    6358:	2b00      	cmp	r3, #0
    635a:	d102      	bne.n	6362 <CoSetFlag+0x36>
    635c:	f04f 0301 	mov.w	r3, #1
    6360:	e066      	b.n	6430 <CoSetFlag+0x104>
    6362:	68bb      	ldr	r3, [r7, #8]
    6364:	681a      	ldr	r2, [r3, #0]
    6366:	79fb      	ldrb	r3, [r7, #7]
    6368:	f04f 0101 	mov.w	r1, #1
    636c:	fa01 f303 	lsl.w	r3, r1, r3
    6370:	ea02 0303 	and.w	r3, r2, r3
    6374:	2b00      	cmp	r3, #0
    6376:	d002      	beq.n	637e <CoSetFlag+0x52>
    6378:	f04f 0300 	mov.w	r3, #0
    637c:	e058      	b.n	6430 <CoSetFlag+0x104>
    637e:	68bb      	ldr	r3, [r7, #8]
    6380:	681a      	ldr	r2, [r3, #0]
    6382:	79fb      	ldrb	r3, [r7, #7]
    6384:	f04f 0101 	mov.w	r1, #1
    6388:	fa01 f303 	lsl.w	r3, r1, r3
    638c:	431a      	orrs	r2, r3
    638e:	68bb      	ldr	r3, [r7, #8]
    6390:	601a      	str	r2, [r3, #0]
    6392:	4b2b      	ldr	r3, [pc, #172]	; (6440 <CoSetFlag+0x114>)
    6394:	781b      	ldrb	r3, [r3, #0]
    6396:	b2db      	uxtb	r3, r3
    6398:	f103 0301 	add.w	r3, r3, #1
    639c:	b2da      	uxtb	r2, r3
    639e:	4b28      	ldr	r3, [pc, #160]	; (6440 <CoSetFlag+0x114>)
    63a0:	701a      	strb	r2, [r3, #0]
    63a2:	68bb      	ldr	r3, [r7, #8]
    63a4:	68db      	ldr	r3, [r3, #12]
    63a6:	60fb      	str	r3, [r7, #12]
    63a8:	e03b      	b.n	6422 <CoSetFlag+0xf6>
    63aa:	68fb      	ldr	r3, [r7, #12]
    63ac:	7c1b      	ldrb	r3, [r3, #16]
    63ae:	2b00      	cmp	r3, #0
    63b0:	d118      	bne.n	63e4 <CoSetFlag+0xb8>
    63b2:	68fb      	ldr	r3, [r7, #12]
    63b4:	689a      	ldr	r2, [r3, #8]
    63b6:	68bb      	ldr	r3, [r7, #8]
    63b8:	681b      	ldr	r3, [r3, #0]
    63ba:	401a      	ands	r2, r3
    63bc:	68fb      	ldr	r3, [r7, #12]
    63be:	689b      	ldr	r3, [r3, #8]
    63c0:	429a      	cmp	r2, r3
    63c2:	d127      	bne.n	6414 <CoSetFlag+0xe8>
    63c4:	68f8      	ldr	r0, [r7, #12]
    63c6:	f000 f83d 	bl	6444 <RemoveFromLink>
    63ca:	60f8      	str	r0, [r7, #12]
    63cc:	68bb      	ldr	r3, [r7, #8]
    63ce:	685a      	ldr	r2, [r3, #4]
    63d0:	79fb      	ldrb	r3, [r7, #7]
    63d2:	f04f 0101 	mov.w	r1, #1
    63d6:	fa01 f303 	lsl.w	r3, r1, r3
    63da:	ea02 0303 	and.w	r3, r2, r3
    63de:	2b00      	cmp	r3, #0
    63e0:	d01c      	beq.n	641c <CoSetFlag+0xf0>
    63e2:	e021      	b.n	6428 <CoSetFlag+0xfc>
    63e4:	68fb      	ldr	r3, [r7, #12]
    63e6:	689a      	ldr	r2, [r3, #8]
    63e8:	68bb      	ldr	r3, [r7, #8]
    63ea:	681b      	ldr	r3, [r3, #0]
    63ec:	ea02 0303 	and.w	r3, r2, r3
    63f0:	2b00      	cmp	r3, #0
    63f2:	d00f      	beq.n	6414 <CoSetFlag+0xe8>
    63f4:	68f8      	ldr	r0, [r7, #12]
    63f6:	f000 f825 	bl	6444 <RemoveFromLink>
    63fa:	60f8      	str	r0, [r7, #12]
    63fc:	68bb      	ldr	r3, [r7, #8]
    63fe:	685a      	ldr	r2, [r3, #4]
    6400:	79fb      	ldrb	r3, [r7, #7]
    6402:	f04f 0101 	mov.w	r1, #1
    6406:	fa01 f303 	lsl.w	r3, r1, r3
    640a:	ea02 0303 	and.w	r3, r2, r3
    640e:	2b00      	cmp	r3, #0
    6410:	d006      	beq.n	6420 <CoSetFlag+0xf4>
    6412:	e009      	b.n	6428 <CoSetFlag+0xfc>
    6414:	68fb      	ldr	r3, [r7, #12]
    6416:	681b      	ldr	r3, [r3, #0]
    6418:	60fb      	str	r3, [r7, #12]
    641a:	e002      	b.n	6422 <CoSetFlag+0xf6>
    641c:	bf00      	nop
    641e:	e000      	b.n	6422 <CoSetFlag+0xf6>
    6420:	bf00      	nop
    6422:	68fb      	ldr	r3, [r7, #12]
    6424:	2b00      	cmp	r3, #0
    6426:	d1c0      	bne.n	63aa <CoSetFlag+0x7e>
    6428:	f7fb fa3c 	bl	18a4 <OsSchedUnlock>
    642c:	f04f 0300 	mov.w	r3, #0
    6430:	4618      	mov	r0, r3
    6432:	f107 0710 	add.w	r7, r7, #16
    6436:	46bd      	mov	sp, r7
    6438:	bd80      	pop	{r7, pc}
    643a:	bf00      	nop
    643c:	20003d68 	.word	0x20003d68
    6440:	20000982 	.word	0x20000982

00006444 <RemoveFromLink>:
    6444:	b580      	push	{r7, lr}
    6446:	b084      	sub	sp, #16
    6448:	af00      	add	r7, sp, #0
    644a:	6078      	str	r0, [r7, #4]
    644c:	6878      	ldr	r0, [r7, #4]
    644e:	f000 f825 	bl	649c <RemoveLinkNode>
    6452:	687b      	ldr	r3, [r7, #4]
    6454:	68db      	ldr	r3, [r3, #12]
    6456:	60fb      	str	r3, [r7, #12]
    6458:	68fb      	ldr	r3, [r7, #12]
    645a:	6a1b      	ldr	r3, [r3, #32]
    645c:	f1b3 3fff 	cmp.w	r3, #4294967295
    6460:	d002      	beq.n	6468 <RemoveFromLink+0x24>
    6462:	68f8      	ldr	r0, [r7, #12]
    6464:	f7fd fdde 	bl	4024 <RemoveDelayList>
    6468:	68fb      	ldr	r3, [r7, #12]
    646a:	f04f 32ff 	mov.w	r2, #4294967295
    646e:	61da      	str	r2, [r3, #28]
    6470:	4b09      	ldr	r3, [pc, #36]	; (6498 <RemoveFromLink+0x54>)
    6472:	681b      	ldr	r3, [r3, #0]
    6474:	68fa      	ldr	r2, [r7, #12]
    6476:	429a      	cmp	r2, r3
    6478:	d104      	bne.n	6484 <RemoveFromLink+0x40>
    647a:	68fb      	ldr	r3, [r7, #12]
    647c:	f04f 0201 	mov.w	r2, #1
    6480:	715a      	strb	r2, [r3, #5]
    6482:	e002      	b.n	648a <RemoveFromLink+0x46>
    6484:	68f8      	ldr	r0, [r7, #12]
    6486:	f7fc fa01 	bl	288c <InsertToTCBRdyList>
    648a:	687b      	ldr	r3, [r7, #4]
    648c:	681b      	ldr	r3, [r3, #0]
    648e:	4618      	mov	r0, r3
    6490:	f107 0710 	add.w	r7, r7, #16
    6494:	46bd      	mov	sp, r7
    6496:	bd80      	pop	{r7, pc}
    6498:	20003790 	.word	0x20003790

0000649c <RemoveLinkNode>:
    649c:	b480      	push	{r7}
    649e:	b083      	sub	sp, #12
    64a0:	af00      	add	r7, sp, #0
    64a2:	6078      	str	r0, [r7, #4]
    64a4:	687b      	ldr	r3, [r7, #4]
    64a6:	681b      	ldr	r3, [r3, #0]
    64a8:	2b00      	cmp	r3, #0
    64aa:	d10c      	bne.n	64c6 <RemoveLinkNode+0x2a>
    64ac:	687b      	ldr	r3, [r7, #4]
    64ae:	685b      	ldr	r3, [r3, #4]
    64b0:	2b00      	cmp	r3, #0
    64b2:	d108      	bne.n	64c6 <RemoveLinkNode+0x2a>
    64b4:	4b1c      	ldr	r3, [pc, #112]	; (6528 <RemoveLinkNode+0x8c>)
    64b6:	f04f 0200 	mov.w	r2, #0
    64ba:	60da      	str	r2, [r3, #12]
    64bc:	4b1a      	ldr	r3, [pc, #104]	; (6528 <RemoveLinkNode+0x8c>)
    64be:	f04f 0200 	mov.w	r2, #0
    64c2:	611a      	str	r2, [r3, #16]
    64c4:	e025      	b.n	6512 <RemoveLinkNode+0x76>
    64c6:	687b      	ldr	r3, [r7, #4]
    64c8:	681b      	ldr	r3, [r3, #0]
    64ca:	2b00      	cmp	r3, #0
    64cc:	d109      	bne.n	64e2 <RemoveLinkNode+0x46>
    64ce:	687b      	ldr	r3, [r7, #4]
    64d0:	685a      	ldr	r2, [r3, #4]
    64d2:	4b15      	ldr	r3, [pc, #84]	; (6528 <RemoveLinkNode+0x8c>)
    64d4:	611a      	str	r2, [r3, #16]
    64d6:	687b      	ldr	r3, [r7, #4]
    64d8:	685b      	ldr	r3, [r3, #4]
    64da:	f04f 0200 	mov.w	r2, #0
    64de:	601a      	str	r2, [r3, #0]
    64e0:	e017      	b.n	6512 <RemoveLinkNode+0x76>
    64e2:	687b      	ldr	r3, [r7, #4]
    64e4:	685b      	ldr	r3, [r3, #4]
    64e6:	2b00      	cmp	r3, #0
    64e8:	d109      	bne.n	64fe <RemoveLinkNode+0x62>
    64ea:	687b      	ldr	r3, [r7, #4]
    64ec:	681a      	ldr	r2, [r3, #0]
    64ee:	4b0e      	ldr	r3, [pc, #56]	; (6528 <RemoveLinkNode+0x8c>)
    64f0:	60da      	str	r2, [r3, #12]
    64f2:	687b      	ldr	r3, [r7, #4]
    64f4:	681b      	ldr	r3, [r3, #0]
    64f6:	f04f 0200 	mov.w	r2, #0
    64fa:	605a      	str	r2, [r3, #4]
    64fc:	e009      	b.n	6512 <RemoveLinkNode+0x76>
    64fe:	687b      	ldr	r3, [r7, #4]
    6500:	681b      	ldr	r3, [r3, #0]
    6502:	687a      	ldr	r2, [r7, #4]
    6504:	6852      	ldr	r2, [r2, #4]
    6506:	605a      	str	r2, [r3, #4]
    6508:	687b      	ldr	r3, [r7, #4]
    650a:	685b      	ldr	r3, [r3, #4]
    650c:	687a      	ldr	r2, [r7, #4]
    650e:	6812      	ldr	r2, [r2, #0]
    6510:	601a      	str	r2, [r3, #0]
    6512:	687b      	ldr	r3, [r7, #4]
    6514:	68db      	ldr	r3, [r3, #12]
    6516:	f04f 0200 	mov.w	r2, #0
    651a:	61da      	str	r2, [r3, #28]
    651c:	f107 070c 	add.w	r7, r7, #12
    6520:	46bd      	mov	sp, r7
    6522:	bc80      	pop	{r7}
    6524:	4770      	bx	lr
    6526:	bf00      	nop
    6528:	20003d68 	.word	0x20003d68

0000652c <Wait4DevInt>:
    652c:	b480      	push	{r7}
    652e:	b083      	sub	sp, #12
    6530:	af00      	add	r7, sp, #0
    6532:	6078      	str	r0, [r7, #4]
    6534:	bf00      	nop
    6536:	4b08      	ldr	r3, [pc, #32]	; (6558 <Wait4DevInt+0x2c>)
    6538:	f8d3 2200 	ldr.w	r2, [r3, #512]	; 0x200
    653c:	687b      	ldr	r3, [r7, #4]
    653e:	401a      	ands	r2, r3
    6540:	687b      	ldr	r3, [r7, #4]
    6542:	429a      	cmp	r2, r3
    6544:	d1f7      	bne.n	6536 <Wait4DevInt+0xa>
    6546:	4b04      	ldr	r3, [pc, #16]	; (6558 <Wait4DevInt+0x2c>)
    6548:	687a      	ldr	r2, [r7, #4]
    654a:	f8c3 2208 	str.w	r2, [r3, #520]	; 0x208
    654e:	f107 070c 	add.w	r7, r7, #12
    6552:	46bd      	mov	sp, r7
    6554:	bc80      	pop	{r7}
    6556:	4770      	bx	lr
    6558:	5000c000 	.word	0x5000c000

0000655c <USBHwCmd>:
    655c:	b580      	push	{r7, lr}
    655e:	b082      	sub	sp, #8
    6560:	af00      	add	r7, sp, #0
    6562:	4603      	mov	r3, r0
    6564:	71fb      	strb	r3, [r7, #7]
    6566:	4b0a      	ldr	r3, [pc, #40]	; (6590 <USBHwCmd+0x34>)
    6568:	f04f 0230 	mov.w	r2, #48	; 0x30
    656c:	f8c3 2208 	str.w	r2, [r3, #520]	; 0x208
    6570:	4b07      	ldr	r3, [pc, #28]	; (6590 <USBHwCmd+0x34>)
    6572:	79fa      	ldrb	r2, [r7, #7]
    6574:	ea4f 4202 	mov.w	r2, r2, lsl #16
    6578:	f442 62a0 	orr.w	r2, r2, #1280	; 0x500
    657c:	f8c3 2210 	str.w	r2, [r3, #528]	; 0x210
    6580:	f04f 0010 	mov.w	r0, #16
    6584:	f7ff ffd2 	bl	652c <Wait4DevInt>
    6588:	f107 0708 	add.w	r7, r7, #8
    658c:	46bd      	mov	sp, r7
    658e:	bd80      	pop	{r7, pc}
    6590:	5000c000 	.word	0x5000c000

00006594 <USBHwCmdWrite>:
    6594:	b580      	push	{r7, lr}
    6596:	b082      	sub	sp, #8
    6598:	af00      	add	r7, sp, #0
    659a:	4602      	mov	r2, r0
    659c:	460b      	mov	r3, r1
    659e:	71fa      	strb	r2, [r7, #7]
    65a0:	80bb      	strh	r3, [r7, #4]
    65a2:	79fb      	ldrb	r3, [r7, #7]
    65a4:	4618      	mov	r0, r3
    65a6:	f7ff ffd9 	bl	655c <USBHwCmd>
    65aa:	4b08      	ldr	r3, [pc, #32]	; (65cc <USBHwCmdWrite+0x38>)
    65ac:	88ba      	ldrh	r2, [r7, #4]
    65ae:	ea4f 4202 	mov.w	r2, r2, lsl #16
    65b2:	f442 7280 	orr.w	r2, r2, #256	; 0x100
    65b6:	f8c3 2210 	str.w	r2, [r3, #528]	; 0x210
    65ba:	f04f 0010 	mov.w	r0, #16
    65be:	f7ff ffb5 	bl	652c <Wait4DevInt>
    65c2:	f107 0708 	add.w	r7, r7, #8
    65c6:	46bd      	mov	sp, r7
    65c8:	bd80      	pop	{r7, pc}
    65ca:	bf00      	nop
    65cc:	5000c000 	.word	0x5000c000

000065d0 <USBHwCmdRead>:
    65d0:	b580      	push	{r7, lr}
    65d2:	b082      	sub	sp, #8
    65d4:	af00      	add	r7, sp, #0
    65d6:	4603      	mov	r3, r0
    65d8:	71fb      	strb	r3, [r7, #7]
    65da:	79fb      	ldrb	r3, [r7, #7]
    65dc:	4618      	mov	r0, r3
    65de:	f7ff ffbd 	bl	655c <USBHwCmd>
    65e2:	4b0a      	ldr	r3, [pc, #40]	; (660c <USBHwCmdRead+0x3c>)
    65e4:	79fa      	ldrb	r2, [r7, #7]
    65e6:	ea4f 4202 	mov.w	r2, r2, lsl #16
    65ea:	f442 7200 	orr.w	r2, r2, #512	; 0x200
    65ee:	f8c3 2210 	str.w	r2, [r3, #528]	; 0x210
    65f2:	f04f 0020 	mov.w	r0, #32
    65f6:	f7ff ff99 	bl	652c <Wait4DevInt>
    65fa:	4b04      	ldr	r3, [pc, #16]	; (660c <USBHwCmdRead+0x3c>)
    65fc:	f8d3 3214 	ldr.w	r3, [r3, #532]	; 0x214
    6600:	b2db      	uxtb	r3, r3
    6602:	4618      	mov	r0, r3
    6604:	f107 0708 	add.w	r7, r7, #8
    6608:	46bd      	mov	sp, r7
    660a:	bd80      	pop	{r7, pc}
    660c:	5000c000 	.word	0x5000c000

00006610 <USBHwEPRealize>:
    6610:	b580      	push	{r7, lr}
    6612:	b082      	sub	sp, #8
    6614:	af00      	add	r7, sp, #0
    6616:	6078      	str	r0, [r7, #4]
    6618:	460b      	mov	r3, r1
    661a:	807b      	strh	r3, [r7, #2]
    661c:	4b0e      	ldr	r3, [pc, #56]	; (6658 <USBHwEPRealize+0x48>)
    661e:	4a0e      	ldr	r2, [pc, #56]	; (6658 <USBHwEPRealize+0x48>)
    6620:	f8d2 1244 	ldr.w	r1, [r2, #580]	; 0x244
    6624:	f04f 0001 	mov.w	r0, #1
    6628:	687a      	ldr	r2, [r7, #4]
    662a:	fa00 f202 	lsl.w	r2, r0, r2
    662e:	ea41 0202 	orr.w	r2, r1, r2
    6632:	f8c3 2244 	str.w	r2, [r3, #580]	; 0x244
    6636:	4b08      	ldr	r3, [pc, #32]	; (6658 <USBHwEPRealize+0x48>)
    6638:	687a      	ldr	r2, [r7, #4]
    663a:	f8c3 2248 	str.w	r2, [r3, #584]	; 0x248
    663e:	4b06      	ldr	r3, [pc, #24]	; (6658 <USBHwEPRealize+0x48>)
    6640:	887a      	ldrh	r2, [r7, #2]
    6642:	f8c3 224c 	str.w	r2, [r3, #588]	; 0x24c
    6646:	f44f 7080 	mov.w	r0, #256	; 0x100
    664a:	f7ff ff6f 	bl	652c <Wait4DevInt>
    664e:	f107 0708 	add.w	r7, r7, #8
    6652:	46bd      	mov	sp, r7
    6654:	bd80      	pop	{r7, pc}
    6656:	bf00      	nop
    6658:	5000c000 	.word	0x5000c000

0000665c <USBHwEPEnable>:
    665c:	b580      	push	{r7, lr}
    665e:	b082      	sub	sp, #8
    6660:	af00      	add	r7, sp, #0
    6662:	6078      	str	r0, [r7, #4]
    6664:	6039      	str	r1, [r7, #0]
    6666:	687b      	ldr	r3, [r7, #4]
    6668:	b2db      	uxtb	r3, r3
    666a:	f043 0340 	orr.w	r3, r3, #64	; 0x40
    666e:	b2db      	uxtb	r3, r3
    6670:	b2da      	uxtb	r2, r3
    6672:	683b      	ldr	r3, [r7, #0]
    6674:	2b00      	cmp	r3, #0
    6676:	d002      	beq.n	667e <USBHwEPEnable+0x22>
    6678:	f04f 0300 	mov.w	r3, #0
    667c:	e001      	b.n	6682 <USBHwEPEnable+0x26>
    667e:	f04f 0320 	mov.w	r3, #32
    6682:	4610      	mov	r0, r2
    6684:	4619      	mov	r1, r3
    6686:	f7ff ff85 	bl	6594 <USBHwCmdWrite>
    668a:	f107 0708 	add.w	r7, r7, #8
    668e:	46bd      	mov	sp, r7
    6690:	bd80      	pop	{r7, pc}
    6692:	bf00      	nop

00006694 <USBHwEPConfig>:
    6694:	b580      	push	{r7, lr}
    6696:	b084      	sub	sp, #16
    6698:	af00      	add	r7, sp, #0
    669a:	4602      	mov	r2, r0
    669c:	460b      	mov	r3, r1
    669e:	71fa      	strb	r2, [r7, #7]
    66a0:	80bb      	strh	r3, [r7, #4]
    66a2:	79fb      	ldrb	r3, [r7, #7]
    66a4:	f003 030f 	and.w	r3, r3, #15
    66a8:	ea4f 0243 	mov.w	r2, r3, lsl #1
    66ac:	79fb      	ldrb	r3, [r7, #7]
    66ae:	ea4f 13d3 	mov.w	r3, r3, lsr #7
    66b2:	b2db      	uxtb	r3, r3
    66b4:	ea42 0303 	orr.w	r3, r2, r3
    66b8:	60fb      	str	r3, [r7, #12]
    66ba:	88bb      	ldrh	r3, [r7, #4]
    66bc:	68f8      	ldr	r0, [r7, #12]
    66be:	4619      	mov	r1, r3
    66c0:	f7ff ffa6 	bl	6610 <USBHwEPRealize>
    66c4:	68f8      	ldr	r0, [r7, #12]
    66c6:	f04f 0101 	mov.w	r1, #1
    66ca:	f7ff ffc7 	bl	665c <USBHwEPEnable>
    66ce:	f107 0710 	add.w	r7, r7, #16
    66d2:	46bd      	mov	sp, r7
    66d4:	bd80      	pop	{r7, pc}
    66d6:	bf00      	nop

000066d8 <USBHwRegisterEPIntHandler>:
    66d8:	b480      	push	{r7}
    66da:	b085      	sub	sp, #20
    66dc:	af00      	add	r7, sp, #0
    66de:	4603      	mov	r3, r0
    66e0:	6039      	str	r1, [r7, #0]
    66e2:	71fb      	strb	r3, [r7, #7]
    66e4:	79fb      	ldrb	r3, [r7, #7]
    66e6:	f003 030f 	and.w	r3, r3, #15
    66ea:	ea4f 0243 	mov.w	r2, r3, lsl #1
    66ee:	79fb      	ldrb	r3, [r7, #7]
    66f0:	ea4f 13d3 	mov.w	r3, r3, lsr #7
    66f4:	b2db      	uxtb	r3, r3
    66f6:	ea42 0303 	orr.w	r3, r2, r3
    66fa:	60fb      	str	r3, [r7, #12]
    66fc:	68fb      	ldr	r3, [r7, #12]
    66fe:	ea4f 72d3 	mov.w	r2, r3, lsr #31
    6702:	18d3      	adds	r3, r2, r3
    6704:	ea4f 0363 	mov.w	r3, r3, asr #1
    6708:	461a      	mov	r2, r3
    670a:	4b0f      	ldr	r3, [pc, #60]	; (6748 <USBHwRegisterEPIntHandler+0x70>)
    670c:	6839      	ldr	r1, [r7, #0]
    670e:	f843 1022 	str.w	r1, [r3, r2, lsl #2]
    6712:	4b0e      	ldr	r3, [pc, #56]	; (674c <USBHwRegisterEPIntHandler+0x74>)
    6714:	4a0d      	ldr	r2, [pc, #52]	; (674c <USBHwRegisterEPIntHandler+0x74>)
    6716:	f8d2 1234 	ldr.w	r1, [r2, #564]	; 0x234
    671a:	f04f 0001 	mov.w	r0, #1
    671e:	68fa      	ldr	r2, [r7, #12]
    6720:	fa00 f202 	lsl.w	r2, r0, r2
    6724:	ea41 0202 	orr.w	r2, r1, r2
    6728:	f8c3 2234 	str.w	r2, [r3, #564]	; 0x234
    672c:	4b07      	ldr	r3, [pc, #28]	; (674c <USBHwRegisterEPIntHandler+0x74>)
    672e:	4a07      	ldr	r2, [pc, #28]	; (674c <USBHwRegisterEPIntHandler+0x74>)
    6730:	f8d2 2204 	ldr.w	r2, [r2, #516]	; 0x204
    6734:	f042 0204 	orr.w	r2, r2, #4
    6738:	f8c3 2204 	str.w	r2, [r3, #516]	; 0x204
    673c:	f107 0714 	add.w	r7, r7, #20
    6740:	46bd      	mov	sp, r7
    6742:	bc80      	pop	{r7}
    6744:	4770      	bx	lr
    6746:	bf00      	nop
    6748:	20003d80 	.word	0x20003d80
    674c:	5000c000 	.word	0x5000c000

00006750 <USBHwRegisterDevIntHandler>:
    6750:	b480      	push	{r7}
    6752:	b083      	sub	sp, #12
    6754:	af00      	add	r7, sp, #0
    6756:	6078      	str	r0, [r7, #4]
    6758:	4b07      	ldr	r3, [pc, #28]	; (6778 <USBHwRegisterDevIntHandler+0x28>)
    675a:	687a      	ldr	r2, [r7, #4]
    675c:	601a      	str	r2, [r3, #0]
    675e:	4b07      	ldr	r3, [pc, #28]	; (677c <USBHwRegisterDevIntHandler+0x2c>)
    6760:	4a06      	ldr	r2, [pc, #24]	; (677c <USBHwRegisterDevIntHandler+0x2c>)
    6762:	f8d2 2204 	ldr.w	r2, [r2, #516]	; 0x204
    6766:	f042 0208 	orr.w	r2, r2, #8
    676a:	f8c3 2204 	str.w	r2, [r3, #516]	; 0x204
    676e:	f107 070c 	add.w	r7, r7, #12
    6772:	46bd      	mov	sp, r7
    6774:	bc80      	pop	{r7}
    6776:	4770      	bx	lr
    6778:	20003d7c 	.word	0x20003d7c
    677c:	5000c000 	.word	0x5000c000

00006780 <USBHwRegisterFrameHandler>:
    6780:	b480      	push	{r7}
    6782:	b083      	sub	sp, #12
    6784:	af00      	add	r7, sp, #0
    6786:	6078      	str	r0, [r7, #4]
    6788:	4b07      	ldr	r3, [pc, #28]	; (67a8 <USBHwRegisterFrameHandler+0x28>)
    678a:	687a      	ldr	r2, [r7, #4]
    678c:	601a      	str	r2, [r3, #0]
    678e:	4b07      	ldr	r3, [pc, #28]	; (67ac <USBHwRegisterFrameHandler+0x2c>)
    6790:	4a06      	ldr	r2, [pc, #24]	; (67ac <USBHwRegisterFrameHandler+0x2c>)
    6792:	f8d2 2204 	ldr.w	r2, [r2, #516]	; 0x204
    6796:	f042 0201 	orr.w	r2, r2, #1
    679a:	f8c3 2204 	str.w	r2, [r3, #516]	; 0x204
    679e:	f107 070c 	add.w	r7, r7, #12
    67a2:	46bd      	mov	sp, r7
    67a4:	bc80      	pop	{r7}
    67a6:	4770      	bx	lr
    67a8:	20003dc0 	.word	0x20003dc0
    67ac:	5000c000 	.word	0x5000c000

000067b0 <USBHwSetAddress>:
    67b0:	b580      	push	{r7, lr}
    67b2:	b082      	sub	sp, #8
    67b4:	af00      	add	r7, sp, #0
    67b6:	4603      	mov	r3, r0
    67b8:	71fb      	strb	r3, [r7, #7]
    67ba:	79fb      	ldrb	r3, [r7, #7]
    67bc:	f063 037f 	orn	r3, r3, #127	; 0x7f
    67c0:	b2db      	uxtb	r3, r3
    67c2:	f04f 00d0 	mov.w	r0, #208	; 0xd0
    67c6:	4619      	mov	r1, r3
    67c8:	f7ff fee4 	bl	6594 <USBHwCmdWrite>
    67cc:	f107 0708 	add.w	r7, r7, #8
    67d0:	46bd      	mov	sp, r7
    67d2:	bd80      	pop	{r7, pc}

000067d4 <USBHwConnect>:
    67d4:	b580      	push	{r7, lr}
    67d6:	b082      	sub	sp, #8
    67d8:	af00      	add	r7, sp, #0
    67da:	6078      	str	r0, [r7, #4]
    67dc:	687b      	ldr	r3, [r7, #4]
    67de:	2b00      	cmp	r3, #0
    67e0:	bf0c      	ite	eq
    67e2:	2300      	moveq	r3, #0
    67e4:	2301      	movne	r3, #1
    67e6:	b29b      	uxth	r3, r3
    67e8:	f04f 00fe 	mov.w	r0, #254	; 0xfe
    67ec:	4619      	mov	r1, r3
    67ee:	f7ff fed1 	bl	6594 <USBHwCmdWrite>
    67f2:	f107 0708 	add.w	r7, r7, #8
    67f6:	46bd      	mov	sp, r7
    67f8:	bd80      	pop	{r7, pc}
    67fa:	bf00      	nop

000067fc <USBHwNakIntEnable>:
    67fc:	b580      	push	{r7, lr}
    67fe:	b082      	sub	sp, #8
    6800:	af00      	add	r7, sp, #0
    6802:	4603      	mov	r3, r0
    6804:	71fb      	strb	r3, [r7, #7]
    6806:	79fb      	ldrb	r3, [r7, #7]
    6808:	b29b      	uxth	r3, r3
    680a:	f04f 00f3 	mov.w	r0, #243	; 0xf3
    680e:	4619      	mov	r1, r3
    6810:	f7ff fec0 	bl	6594 <USBHwCmdWrite>
    6814:	f107 0708 	add.w	r7, r7, #8
    6818:	46bd      	mov	sp, r7
    681a:	bd80      	pop	{r7, pc}

0000681c <USBHwEPGetStatus>:
    681c:	b580      	push	{r7, lr}
    681e:	b084      	sub	sp, #16
    6820:	af00      	add	r7, sp, #0
    6822:	4603      	mov	r3, r0
    6824:	71fb      	strb	r3, [r7, #7]
    6826:	79fb      	ldrb	r3, [r7, #7]
    6828:	f003 030f 	and.w	r3, r3, #15
    682c:	ea4f 0243 	mov.w	r2, r3, lsl #1
    6830:	79fb      	ldrb	r3, [r7, #7]
    6832:	ea4f 13d3 	mov.w	r3, r3, lsr #7
    6836:	b2db      	uxtb	r3, r3
    6838:	ea42 0303 	orr.w	r3, r2, r3
    683c:	60fb      	str	r3, [r7, #12]
    683e:	68fb      	ldr	r3, [r7, #12]
    6840:	b2db      	uxtb	r3, r3
    6842:	4618      	mov	r0, r3
    6844:	f7ff fec4 	bl	65d0 <USBHwCmdRead>
    6848:	4603      	mov	r3, r0
    684a:	4618      	mov	r0, r3
    684c:	f107 0710 	add.w	r7, r7, #16
    6850:	46bd      	mov	sp, r7
    6852:	bd80      	pop	{r7, pc}

00006854 <USBHwEPStall>:
    6854:	b580      	push	{r7, lr}
    6856:	b084      	sub	sp, #16
    6858:	af00      	add	r7, sp, #0
    685a:	4603      	mov	r3, r0
    685c:	6039      	str	r1, [r7, #0]
    685e:	71fb      	strb	r3, [r7, #7]
    6860:	79fb      	ldrb	r3, [r7, #7]
    6862:	f003 030f 	and.w	r3, r3, #15
    6866:	ea4f 0243 	mov.w	r2, r3, lsl #1
    686a:	79fb      	ldrb	r3, [r7, #7]
    686c:	ea4f 13d3 	mov.w	r3, r3, lsr #7
    6870:	b2db      	uxtb	r3, r3
    6872:	ea42 0303 	orr.w	r3, r2, r3
    6876:	60fb      	str	r3, [r7, #12]
    6878:	68fb      	ldr	r3, [r7, #12]
    687a:	b2db      	uxtb	r3, r3
    687c:	f043 0340 	orr.w	r3, r3, #64	; 0x40
    6880:	b2db      	uxtb	r3, r3
    6882:	b2da      	uxtb	r2, r3
    6884:	683b      	ldr	r3, [r7, #0]
    6886:	2b00      	cmp	r3, #0
    6888:	bf0c      	ite	eq
    688a:	2300      	moveq	r3, #0
    688c:	2301      	movne	r3, #1
    688e:	b29b      	uxth	r3, r3
    6890:	4610      	mov	r0, r2
    6892:	4619      	mov	r1, r3
    6894:	f7ff fe7e 	bl	6594 <USBHwCmdWrite>
    6898:	f107 0710 	add.w	r7, r7, #16
    689c:	46bd      	mov	sp, r7
    689e:	bd80      	pop	{r7, pc}

000068a0 <USBHwEPWrite>:
    68a0:	b580      	push	{r7, lr}
    68a2:	b086      	sub	sp, #24
    68a4:	af00      	add	r7, sp, #0
    68a6:	4603      	mov	r3, r0
    68a8:	60b9      	str	r1, [r7, #8]
    68aa:	607a      	str	r2, [r7, #4]
    68ac:	73fb      	strb	r3, [r7, #15]
    68ae:	7bfb      	ldrb	r3, [r7, #15]
    68b0:	f003 030f 	and.w	r3, r3, #15
    68b4:	ea4f 0243 	mov.w	r2, r3, lsl #1
    68b8:	7bfb      	ldrb	r3, [r7, #15]
    68ba:	ea4f 13d3 	mov.w	r3, r3, lsr #7
    68be:	b2db      	uxtb	r3, r3
    68c0:	ea42 0303 	orr.w	r3, r2, r3
    68c4:	617b      	str	r3, [r7, #20]
    68c6:	4b22      	ldr	r3, [pc, #136]	; (6950 <USBHwEPWrite+0xb0>)
    68c8:	7bfa      	ldrb	r2, [r7, #15]
    68ca:	f002 020f 	and.w	r2, r2, #15
    68ce:	ea4f 0282 	mov.w	r2, r2, lsl #2
    68d2:	f042 0202 	orr.w	r2, r2, #2
    68d6:	f8c3 2228 	str.w	r2, [r3, #552]	; 0x228
    68da:	4b1d      	ldr	r3, [pc, #116]	; (6950 <USBHwEPWrite+0xb0>)
    68dc:	687a      	ldr	r2, [r7, #4]
    68de:	f8c3 2224 	str.w	r2, [r3, #548]	; 0x224
    68e2:	e01e      	b.n	6922 <USBHwEPWrite+0x82>
    68e4:	4b1a      	ldr	r3, [pc, #104]	; (6950 <USBHwEPWrite+0xb0>)
    68e6:	68ba      	ldr	r2, [r7, #8]
    68e8:	f102 0203 	add.w	r2, r2, #3
    68ec:	7812      	ldrb	r2, [r2, #0]
    68ee:	ea4f 6102 	mov.w	r1, r2, lsl #24
    68f2:	68ba      	ldr	r2, [r7, #8]
    68f4:	f102 0202 	add.w	r2, r2, #2
    68f8:	7812      	ldrb	r2, [r2, #0]
    68fa:	ea4f 4202 	mov.w	r2, r2, lsl #16
    68fe:	4311      	orrs	r1, r2
    6900:	68ba      	ldr	r2, [r7, #8]
    6902:	f102 0201 	add.w	r2, r2, #1
    6906:	7812      	ldrb	r2, [r2, #0]
    6908:	ea4f 2202 	mov.w	r2, r2, lsl #8
    690c:	4311      	orrs	r1, r2
    690e:	68ba      	ldr	r2, [r7, #8]
    6910:	7812      	ldrb	r2, [r2, #0]
    6912:	ea41 0202 	orr.w	r2, r1, r2
    6916:	f8c3 221c 	str.w	r2, [r3, #540]	; 0x21c
    691a:	68bb      	ldr	r3, [r7, #8]
    691c:	f103 0304 	add.w	r3, r3, #4
    6920:	60bb      	str	r3, [r7, #8]
    6922:	4b0b      	ldr	r3, [pc, #44]	; (6950 <USBHwEPWrite+0xb0>)
    6924:	f8d3 3228 	ldr.w	r3, [r3, #552]	; 0x228
    6928:	f003 0302 	and.w	r3, r3, #2
    692c:	2b00      	cmp	r3, #0
    692e:	d1d9      	bne.n	68e4 <USBHwEPWrite+0x44>
    6930:	697b      	ldr	r3, [r7, #20]
    6932:	b2db      	uxtb	r3, r3
    6934:	4618      	mov	r0, r3
    6936:	f7ff fe11 	bl	655c <USBHwCmd>
    693a:	f04f 00fa 	mov.w	r0, #250	; 0xfa
    693e:	f7ff fe0d 	bl	655c <USBHwCmd>
    6942:	687b      	ldr	r3, [r7, #4]
    6944:	4618      	mov	r0, r3
    6946:	f107 0718 	add.w	r7, r7, #24
    694a:	46bd      	mov	sp, r7
    694c:	bd80      	pop	{r7, pc}
    694e:	bf00      	nop
    6950:	5000c000 	.word	0x5000c000

00006954 <USBHwEPRead>:
    6954:	b580      	push	{r7, lr}
    6956:	b088      	sub	sp, #32
    6958:	af00      	add	r7, sp, #0
    695a:	4603      	mov	r3, r0
    695c:	60b9      	str	r1, [r7, #8]
    695e:	607a      	str	r2, [r7, #4]
    6960:	73fb      	strb	r3, [r7, #15]
    6962:	7bfb      	ldrb	r3, [r7, #15]
    6964:	f003 030f 	and.w	r3, r3, #15
    6968:	ea4f 0243 	mov.w	r2, r3, lsl #1
    696c:	7bfb      	ldrb	r3, [r7, #15]
    696e:	ea4f 13d3 	mov.w	r3, r3, lsr #7
    6972:	b2db      	uxtb	r3, r3
    6974:	ea42 0303 	orr.w	r3, r2, r3
    6978:	617b      	str	r3, [r7, #20]
    697a:	4b2f      	ldr	r3, [pc, #188]	; (6a38 <USBHwEPRead+0xe4>)
    697c:	7bfa      	ldrb	r2, [r7, #15]
    697e:	f002 020f 	and.w	r2, r2, #15
    6982:	ea4f 0282 	mov.w	r2, r2, lsl #2
    6986:	f042 0201 	orr.w	r2, r2, #1
    698a:	f8c3 2228 	str.w	r2, [r3, #552]	; 0x228
    698e:	4b2a      	ldr	r3, [pc, #168]	; (6a38 <USBHwEPRead+0xe4>)
    6990:	f8d3 3220 	ldr.w	r3, [r3, #544]	; 0x220
    6994:	613b      	str	r3, [r7, #16]
    6996:	693b      	ldr	r3, [r7, #16]
    6998:	f403 6300 	and.w	r3, r3, #2048	; 0x800
    699c:	2b00      	cmp	r3, #0
    699e:	d0f6      	beq.n	698e <USBHwEPRead+0x3a>
    69a0:	693b      	ldr	r3, [r7, #16]
    69a2:	f403 6380 	and.w	r3, r3, #1024	; 0x400
    69a6:	2b00      	cmp	r3, #0
    69a8:	d102      	bne.n	69b0 <USBHwEPRead+0x5c>
    69aa:	f04f 33ff 	mov.w	r3, #4294967295
    69ae:	e03d      	b.n	6a2c <USBHwEPRead+0xd8>
    69b0:	693b      	ldr	r3, [r7, #16]
    69b2:	ea4f 5383 	mov.w	r3, r3, lsl #22
    69b6:	ea4f 5393 	mov.w	r3, r3, lsr #22
    69ba:	613b      	str	r3, [r7, #16]
    69bc:	f04f 0300 	mov.w	r3, #0
    69c0:	61bb      	str	r3, [r7, #24]
    69c2:	f04f 0300 	mov.w	r3, #0
    69c6:	61fb      	str	r3, [r7, #28]
    69c8:	e01d      	b.n	6a06 <USBHwEPRead+0xb2>
    69ca:	69fb      	ldr	r3, [r7, #28]
    69cc:	f003 0303 	and.w	r3, r3, #3
    69d0:	2b00      	cmp	r3, #0
    69d2:	d103      	bne.n	69dc <USBHwEPRead+0x88>
    69d4:	4b18      	ldr	r3, [pc, #96]	; (6a38 <USBHwEPRead+0xe4>)
    69d6:	f8d3 3218 	ldr.w	r3, [r3, #536]	; 0x218
    69da:	61bb      	str	r3, [r7, #24]
    69dc:	68bb      	ldr	r3, [r7, #8]
    69de:	2b00      	cmp	r3, #0
    69e0:	d009      	beq.n	69f6 <USBHwEPRead+0xa2>
    69e2:	69fa      	ldr	r2, [r7, #28]
    69e4:	687b      	ldr	r3, [r7, #4]
    69e6:	429a      	cmp	r2, r3
    69e8:	da05      	bge.n	69f6 <USBHwEPRead+0xa2>
    69ea:	69fb      	ldr	r3, [r7, #28]
    69ec:	68ba      	ldr	r2, [r7, #8]
    69ee:	18d3      	adds	r3, r2, r3
    69f0:	69ba      	ldr	r2, [r7, #24]
    69f2:	b2d2      	uxtb	r2, r2
    69f4:	701a      	strb	r2, [r3, #0]
    69f6:	69bb      	ldr	r3, [r7, #24]
    69f8:	ea4f 2313 	mov.w	r3, r3, lsr #8
    69fc:	61bb      	str	r3, [r7, #24]
    69fe:	69fb      	ldr	r3, [r7, #28]
    6a00:	f103 0301 	add.w	r3, r3, #1
    6a04:	61fb      	str	r3, [r7, #28]
    6a06:	69fa      	ldr	r2, [r7, #28]
    6a08:	693b      	ldr	r3, [r7, #16]
    6a0a:	429a      	cmp	r2, r3
    6a0c:	d3dd      	bcc.n	69ca <USBHwEPRead+0x76>
    6a0e:	4b0a      	ldr	r3, [pc, #40]	; (6a38 <USBHwEPRead+0xe4>)
    6a10:	f04f 0200 	mov.w	r2, #0
    6a14:	f8c3 2228 	str.w	r2, [r3, #552]	; 0x228
    6a18:	697b      	ldr	r3, [r7, #20]
    6a1a:	b2db      	uxtb	r3, r3
    6a1c:	4618      	mov	r0, r3
    6a1e:	f7ff fd9d 	bl	655c <USBHwCmd>
    6a22:	f04f 00f2 	mov.w	r0, #242	; 0xf2
    6a26:	f7ff fd99 	bl	655c <USBHwCmd>
    6a2a:	693b      	ldr	r3, [r7, #16]
    6a2c:	4618      	mov	r0, r3
    6a2e:	f107 0720 	add.w	r7, r7, #32
    6a32:	46bd      	mov	sp, r7
    6a34:	bd80      	pop	{r7, pc}
    6a36:	bf00      	nop
    6a38:	5000c000 	.word	0x5000c000

00006a3c <USBHwConfigDevice>:
    6a3c:	b580      	push	{r7, lr}
    6a3e:	b082      	sub	sp, #8
    6a40:	af00      	add	r7, sp, #0
    6a42:	6078      	str	r0, [r7, #4]
    6a44:	687b      	ldr	r3, [r7, #4]
    6a46:	2b00      	cmp	r3, #0
    6a48:	bf0c      	ite	eq
    6a4a:	2300      	moveq	r3, #0
    6a4c:	2301      	movne	r3, #1
    6a4e:	b29b      	uxth	r3, r3
    6a50:	f04f 00d8 	mov.w	r0, #216	; 0xd8
    6a54:	4619      	mov	r1, r3
    6a56:	f7ff fd9d 	bl	6594 <USBHwCmdWrite>
    6a5a:	f107 0708 	add.w	r7, r7, #8
    6a5e:	46bd      	mov	sp, r7
    6a60:	bd80      	pop	{r7, pc}
    6a62:	bf00      	nop

00006a64 <USBHwInit>:
    6a64:	b580      	push	{r7, lr}
    6a66:	af00      	add	r7, sp, #0
    6a68:	4b31      	ldr	r3, [pc, #196]	; (6b30 <USBHwInit+0xcc>)
    6a6a:	4a31      	ldr	r2, [pc, #196]	; (6b30 <USBHwInit+0xcc>)
    6a6c:	6912      	ldr	r2, [r2, #16]
    6a6e:	f422 2240 	bic.w	r2, r2, #786432	; 0xc0000
    6a72:	611a      	str	r2, [r3, #16]
    6a74:	4b2e      	ldr	r3, [pc, #184]	; (6b30 <USBHwInit+0xcc>)
    6a76:	4a2e      	ldr	r2, [pc, #184]	; (6b30 <USBHwInit+0xcc>)
    6a78:	6912      	ldr	r2, [r2, #16]
    6a7a:	f442 2280 	orr.w	r2, r2, #262144	; 0x40000
    6a7e:	611a      	str	r2, [r3, #16]
    6a80:	4a2b      	ldr	r2, [pc, #172]	; (6b30 <USBHwInit+0xcc>)
    6a82:	4b2b      	ldr	r3, [pc, #172]	; (6b30 <USBHwInit+0xcc>)
    6a84:	68db      	ldr	r3, [r3, #12]
    6a86:	f023 5340 	bic.w	r3, r3, #805306368	; 0x30000000
    6a8a:	f023 0330 	bic.w	r3, r3, #48	; 0x30
    6a8e:	60d3      	str	r3, [r2, #12]
    6a90:	4a27      	ldr	r2, [pc, #156]	; (6b30 <USBHwInit+0xcc>)
    6a92:	4b27      	ldr	r3, [pc, #156]	; (6b30 <USBHwInit+0xcc>)
    6a94:	68db      	ldr	r3, [r3, #12]
    6a96:	f043 5300 	orr.w	r3, r3, #536870912	; 0x20000000
    6a9a:	f043 0310 	orr.w	r3, r3, #16
    6a9e:	60d3      	str	r3, [r2, #12]
    6aa0:	4b23      	ldr	r3, [pc, #140]	; (6b30 <USBHwInit+0xcc>)
    6aa2:	4a23      	ldr	r2, [pc, #140]	; (6b30 <USBHwInit+0xcc>)
    6aa4:	6852      	ldr	r2, [r2, #4]
    6aa6:	f022 5270 	bic.w	r2, r2, #1006632960	; 0x3c000000
    6aaa:	605a      	str	r2, [r3, #4]
    6aac:	4b20      	ldr	r3, [pc, #128]	; (6b30 <USBHwInit+0xcc>)
    6aae:	4a20      	ldr	r2, [pc, #128]	; (6b30 <USBHwInit+0xcc>)
    6ab0:	6852      	ldr	r2, [r2, #4]
    6ab2:	f042 52a0 	orr.w	r2, r2, #335544320	; 0x14000000
    6ab6:	605a      	str	r2, [r3, #4]
    6ab8:	4b1e      	ldr	r3, [pc, #120]	; (6b34 <USBHwInit+0xd0>)
    6aba:	4a1e      	ldr	r2, [pc, #120]	; (6b34 <USBHwInit+0xd0>)
    6abc:	f8d2 20c4 	ldr.w	r2, [r2, #196]	; 0xc4
    6ac0:	f042 4200 	orr.w	r2, r2, #2147483648	; 0x80000000
    6ac4:	f8c3 20c4 	str.w	r2, [r3, #196]	; 0xc4
    6ac8:	4b1b      	ldr	r3, [pc, #108]	; (6b38 <USBHwInit+0xd4>)
    6aca:	f04f 021a 	mov.w	r2, #26
    6ace:	f8c3 2ff4 	str.w	r2, [r3, #4084]	; 0xff4
    6ad2:	bf00      	nop
    6ad4:	4b18      	ldr	r3, [pc, #96]	; (6b38 <USBHwInit+0xd4>)
    6ad6:	f8d3 3ff8 	ldr.w	r3, [r3, #4088]	; 0xff8
    6ada:	f003 031a 	and.w	r3, r3, #26
    6ade:	2b1a      	cmp	r3, #26
    6ae0:	d1f8      	bne.n	6ad4 <USBHwInit+0x70>
    6ae2:	4b15      	ldr	r3, [pc, #84]	; (6b38 <USBHwInit+0xd4>)
    6ae4:	f04f 0200 	mov.w	r2, #0
    6ae8:	f8c3 2204 	str.w	r2, [r3, #516]	; 0x204
    6aec:	4b12      	ldr	r3, [pc, #72]	; (6b38 <USBHwInit+0xd4>)
    6aee:	f04f 32ff 	mov.w	r2, #4294967295
    6af2:	f8c3 2208 	str.w	r2, [r3, #520]	; 0x208
    6af6:	4b10      	ldr	r3, [pc, #64]	; (6b38 <USBHwInit+0xd4>)
    6af8:	f04f 0200 	mov.w	r2, #0
    6afc:	f8c3 222c 	str.w	r2, [r3, #556]	; 0x22c
    6b00:	4b0d      	ldr	r3, [pc, #52]	; (6b38 <USBHwInit+0xd4>)
    6b02:	f04f 0200 	mov.w	r2, #0
    6b06:	f8c3 2234 	str.w	r2, [r3, #564]	; 0x234
    6b0a:	4b0b      	ldr	r3, [pc, #44]	; (6b38 <USBHwInit+0xd4>)
    6b0c:	f04f 32ff 	mov.w	r2, #4294967295
    6b10:	f8c3 2238 	str.w	r2, [r3, #568]	; 0x238
    6b14:	4b08      	ldr	r3, [pc, #32]	; (6b38 <USBHwInit+0xd4>)
    6b16:	f04f 0200 	mov.w	r2, #0
    6b1a:	f8c3 2240 	str.w	r2, [r3, #576]	; 0x240
    6b1e:	f04f 0000 	mov.w	r0, #0
    6b22:	f7ff fe6b 	bl	67fc <USBHwNakIntEnable>
    6b26:	f04f 0301 	mov.w	r3, #1
    6b2a:	4618      	mov	r0, r3
    6b2c:	bd80      	pop	{r7, pc}
    6b2e:	bf00      	nop
    6b30:	4002c000 	.word	0x4002c000
    6b34:	400fc000 	.word	0x400fc000
    6b38:	5000c000 	.word	0x5000c000

00006b3c <udp_bind>:
    6b3c:	b5f0      	push	{r4, r5, r6, r7, lr}
    6b3e:	b089      	sub	sp, #36	; 0x24
    6b40:	af02      	add	r7, sp, #8
    6b42:	60f8      	str	r0, [r7, #12]
    6b44:	60b9      	str	r1, [r7, #8]
    6b46:	4613      	mov	r3, r2
    6b48:	80fb      	strh	r3, [r7, #6]
    6b4a:	4871      	ldr	r0, [pc, #452]	; (6d10 <udp_bind+0x1d4>)
    6b4c:	f7fe fed6 	bl	58fc <DebugPrintf>
    6b50:	68bb      	ldr	r3, [r7, #8]
    6b52:	2b00      	cmp	r3, #0
    6b54:	d00b      	beq.n	6b6e <udp_bind+0x32>
    6b56:	68bb      	ldr	r3, [r7, #8]
    6b58:	681b      	ldr	r3, [r3, #0]
    6b5a:	4618      	mov	r0, r3
    6b5c:	f7fd f9ca 	bl	3ef4 <ntohl>
    6b60:	4603      	mov	r3, r0
    6b62:	ea4f 6313 	mov.w	r3, r3, lsr #24
    6b66:	b29b      	uxth	r3, r3
    6b68:	f003 06ff 	and.w	r6, r3, #255	; 0xff
    6b6c:	e001      	b.n	6b72 <udp_bind+0x36>
    6b6e:	f04f 0600 	mov.w	r6, #0
    6b72:	68bb      	ldr	r3, [r7, #8]
    6b74:	2b00      	cmp	r3, #0
    6b76:	d00b      	beq.n	6b90 <udp_bind+0x54>
    6b78:	68bb      	ldr	r3, [r7, #8]
    6b7a:	681b      	ldr	r3, [r3, #0]
    6b7c:	4618      	mov	r0, r3
    6b7e:	f7fd f9b9 	bl	3ef4 <ntohl>
    6b82:	4603      	mov	r3, r0
    6b84:	ea4f 4313 	mov.w	r3, r3, lsr #16
    6b88:	b29b      	uxth	r3, r3
    6b8a:	f003 05ff 	and.w	r5, r3, #255	; 0xff
    6b8e:	e001      	b.n	6b94 <udp_bind+0x58>
    6b90:	f04f 0500 	mov.w	r5, #0
    6b94:	68bb      	ldr	r3, [r7, #8]
    6b96:	2b00      	cmp	r3, #0
    6b98:	d00b      	beq.n	6bb2 <udp_bind+0x76>
    6b9a:	68bb      	ldr	r3, [r7, #8]
    6b9c:	681b      	ldr	r3, [r3, #0]
    6b9e:	4618      	mov	r0, r3
    6ba0:	f7fd f9a8 	bl	3ef4 <ntohl>
    6ba4:	4603      	mov	r3, r0
    6ba6:	ea4f 2313 	mov.w	r3, r3, lsr #8
    6baa:	b29b      	uxth	r3, r3
    6bac:	f003 04ff 	and.w	r4, r3, #255	; 0xff
    6bb0:	e001      	b.n	6bb6 <udp_bind+0x7a>
    6bb2:	f04f 0400 	mov.w	r4, #0
    6bb6:	68bb      	ldr	r3, [r7, #8]
    6bb8:	2b00      	cmp	r3, #0
    6bba:	d009      	beq.n	6bd0 <udp_bind+0x94>
    6bbc:	68bb      	ldr	r3, [r7, #8]
    6bbe:	681b      	ldr	r3, [r3, #0]
    6bc0:	4618      	mov	r0, r3
    6bc2:	f7fd f997 	bl	3ef4 <ntohl>
    6bc6:	4603      	mov	r3, r0
    6bc8:	b29b      	uxth	r3, r3
    6bca:	f003 03ff 	and.w	r3, r3, #255	; 0xff
    6bce:	e001      	b.n	6bd4 <udp_bind+0x98>
    6bd0:	f04f 0300 	mov.w	r3, #0
    6bd4:	9300      	str	r3, [sp, #0]
    6bd6:	484f      	ldr	r0, [pc, #316]	; (6d14 <udp_bind+0x1d8>)
    6bd8:	4631      	mov	r1, r6
    6bda:	462a      	mov	r2, r5
    6bdc:	4623      	mov	r3, r4
    6bde:	f7fe fe8d 	bl	58fc <DebugPrintf>
    6be2:	88fb      	ldrh	r3, [r7, #6]
    6be4:	484c      	ldr	r0, [pc, #304]	; (6d18 <udp_bind+0x1dc>)
    6be6:	4619      	mov	r1, r3
    6be8:	f7fe fe88 	bl	58fc <DebugPrintf>
    6bec:	f04f 0300 	mov.w	r3, #0
    6bf0:	74fb      	strb	r3, [r7, #19]
    6bf2:	4b4a      	ldr	r3, [pc, #296]	; (6d1c <udp_bind+0x1e0>)
    6bf4:	681b      	ldr	r3, [r3, #0]
    6bf6:	617b      	str	r3, [r7, #20]
    6bf8:	e009      	b.n	6c0e <udp_bind+0xd2>
    6bfa:	68fa      	ldr	r2, [r7, #12]
    6bfc:	697b      	ldr	r3, [r7, #20]
    6bfe:	429a      	cmp	r2, r3
    6c00:	d102      	bne.n	6c08 <udp_bind+0xcc>
    6c02:	f04f 0301 	mov.w	r3, #1
    6c06:	74fb      	strb	r3, [r7, #19]
    6c08:	697b      	ldr	r3, [r7, #20]
    6c0a:	68db      	ldr	r3, [r3, #12]
    6c0c:	617b      	str	r3, [r7, #20]
    6c0e:	697b      	ldr	r3, [r7, #20]
    6c10:	2b00      	cmp	r3, #0
    6c12:	d1f2      	bne.n	6bfa <udp_bind+0xbe>
    6c14:	68bb      	ldr	r3, [r7, #8]
    6c16:	2b00      	cmp	r3, #0
    6c18:	d002      	beq.n	6c20 <udp_bind+0xe4>
    6c1a:	68bb      	ldr	r3, [r7, #8]
    6c1c:	681b      	ldr	r3, [r3, #0]
    6c1e:	e001      	b.n	6c24 <udp_bind+0xe8>
    6c20:	f04f 0300 	mov.w	r3, #0
    6c24:	68fa      	ldr	r2, [r7, #12]
    6c26:	6013      	str	r3, [r2, #0]
    6c28:	88fb      	ldrh	r3, [r7, #6]
    6c2a:	2b00      	cmp	r3, #0
    6c2c:	d127      	bne.n	6c7e <udp_bind+0x142>
    6c2e:	f44f 5380 	mov.w	r3, #4096	; 0x1000
    6c32:	80fb      	strh	r3, [r7, #6]
    6c34:	4b39      	ldr	r3, [pc, #228]	; (6d1c <udp_bind+0x1e0>)
    6c36:	681b      	ldr	r3, [r3, #0]
    6c38:	617b      	str	r3, [r7, #20]
    6c3a:	e00f      	b.n	6c5c <udp_bind+0x120>
    6c3c:	697b      	ldr	r3, [r7, #20]
    6c3e:	8a5b      	ldrh	r3, [r3, #18]
    6c40:	88fa      	ldrh	r2, [r7, #6]
    6c42:	429a      	cmp	r2, r3
    6c44:	d107      	bne.n	6c56 <udp_bind+0x11a>
    6c46:	88fb      	ldrh	r3, [r7, #6]
    6c48:	f103 0301 	add.w	r3, r3, #1
    6c4c:	80fb      	strh	r3, [r7, #6]
    6c4e:	4b33      	ldr	r3, [pc, #204]	; (6d1c <udp_bind+0x1e0>)
    6c50:	681b      	ldr	r3, [r3, #0]
    6c52:	617b      	str	r3, [r7, #20]
    6c54:	e002      	b.n	6c5c <udp_bind+0x120>
    6c56:	697b      	ldr	r3, [r7, #20]
    6c58:	68db      	ldr	r3, [r3, #12]
    6c5a:	617b      	str	r3, [r7, #20]
    6c5c:	697b      	ldr	r3, [r7, #20]
    6c5e:	2b00      	cmp	r3, #0
    6c60:	d004      	beq.n	6c6c <udp_bind+0x130>
    6c62:	88fa      	ldrh	r2, [r7, #6]
    6c64:	f647 73ff 	movw	r3, #32767	; 0x7fff
    6c68:	429a      	cmp	r2, r3
    6c6a:	d1e7      	bne.n	6c3c <udp_bind+0x100>
    6c6c:	697b      	ldr	r3, [r7, #20]
    6c6e:	2b00      	cmp	r3, #0
    6c70:	d005      	beq.n	6c7e <udp_bind+0x142>
    6c72:	482b      	ldr	r0, [pc, #172]	; (6d20 <udp_bind+0x1e4>)
    6c74:	f7fe fe42 	bl	58fc <DebugPrintf>
    6c78:	f04f 03f5 	mov.w	r3, #245	; 0xf5
    6c7c:	e042      	b.n	6d04 <udp_bind+0x1c8>
    6c7e:	68fb      	ldr	r3, [r7, #12]
    6c80:	88fa      	ldrh	r2, [r7, #6]
    6c82:	825a      	strh	r2, [r3, #18]
    6c84:	7cfb      	ldrb	r3, [r7, #19]
    6c86:	2b00      	cmp	r3, #0
    6c88:	d106      	bne.n	6c98 <udp_bind+0x15c>
    6c8a:	4b24      	ldr	r3, [pc, #144]	; (6d1c <udp_bind+0x1e0>)
    6c8c:	681a      	ldr	r2, [r3, #0]
    6c8e:	68fb      	ldr	r3, [r7, #12]
    6c90:	60da      	str	r2, [r3, #12]
    6c92:	4b22      	ldr	r3, [pc, #136]	; (6d1c <udp_bind+0x1e0>)
    6c94:	68fa      	ldr	r2, [r7, #12]
    6c96:	601a      	str	r2, [r3, #0]
    6c98:	68fb      	ldr	r3, [r7, #12]
    6c9a:	681b      	ldr	r3, [r3, #0]
    6c9c:	4618      	mov	r0, r3
    6c9e:	f7fd f929 	bl	3ef4 <ntohl>
    6ca2:	4603      	mov	r3, r0
    6ca4:	ea4f 6313 	mov.w	r3, r3, lsr #24
    6ca8:	b29b      	uxth	r3, r3
    6caa:	f003 06ff 	and.w	r6, r3, #255	; 0xff
    6cae:	68fb      	ldr	r3, [r7, #12]
    6cb0:	681b      	ldr	r3, [r3, #0]
    6cb2:	4618      	mov	r0, r3
    6cb4:	f7fd f91e 	bl	3ef4 <ntohl>
    6cb8:	4603      	mov	r3, r0
    6cba:	ea4f 4313 	mov.w	r3, r3, lsr #16
    6cbe:	b29b      	uxth	r3, r3
    6cc0:	f003 05ff 	and.w	r5, r3, #255	; 0xff
    6cc4:	68fb      	ldr	r3, [r7, #12]
    6cc6:	681b      	ldr	r3, [r3, #0]
    6cc8:	4618      	mov	r0, r3
    6cca:	f7fd f913 	bl	3ef4 <ntohl>
    6cce:	4603      	mov	r3, r0
    6cd0:	ea4f 2313 	mov.w	r3, r3, lsr #8
    6cd4:	b29b      	uxth	r3, r3
    6cd6:	f003 04ff 	and.w	r4, r3, #255	; 0xff
    6cda:	68fb      	ldr	r3, [r7, #12]
    6cdc:	681b      	ldr	r3, [r3, #0]
    6cde:	4618      	mov	r0, r3
    6ce0:	f7fd f908 	bl	3ef4 <ntohl>
    6ce4:	4603      	mov	r3, r0
    6ce6:	b29b      	uxth	r3, r3
    6ce8:	f003 02ff 	and.w	r2, r3, #255	; 0xff
    6cec:	68fb      	ldr	r3, [r7, #12]
    6cee:	8a5b      	ldrh	r3, [r3, #18]
    6cf0:	9200      	str	r2, [sp, #0]
    6cf2:	9301      	str	r3, [sp, #4]
    6cf4:	480b      	ldr	r0, [pc, #44]	; (6d24 <udp_bind+0x1e8>)
    6cf6:	4631      	mov	r1, r6
    6cf8:	462a      	mov	r2, r5
    6cfa:	4623      	mov	r3, r4
    6cfc:	f7fe fdfe 	bl	58fc <DebugPrintf>
    6d00:	f04f 0300 	mov.w	r3, #0
    6d04:	b25b      	sxtb	r3, r3
    6d06:	4618      	mov	r0, r3
    6d08:	f107 071c 	add.w	r7, r7, #28
    6d0c:	46bd      	mov	sp, r7
    6d0e:	bdf0      	pop	{r4, r5, r6, r7, pc}
    6d10:	0000a024 	.word	0x0000a024
    6d14:	0000a038 	.word	0x0000a038
    6d18:	0000a044 	.word	0x0000a044
    6d1c:	20004258 	.word	0x20004258
    6d20:	0000a054 	.word	0x0000a054
    6d24:	0000a078 	.word	0x0000a078

00006d28 <udp_recv>:
    6d28:	b480      	push	{r7}
    6d2a:	b085      	sub	sp, #20
    6d2c:	af00      	add	r7, sp, #0
    6d2e:	60f8      	str	r0, [r7, #12]
    6d30:	60b9      	str	r1, [r7, #8]
    6d32:	607a      	str	r2, [r7, #4]
    6d34:	68fb      	ldr	r3, [r7, #12]
    6d36:	68ba      	ldr	r2, [r7, #8]
    6d38:	619a      	str	r2, [r3, #24]
    6d3a:	68fb      	ldr	r3, [r7, #12]
    6d3c:	687a      	ldr	r2, [r7, #4]
    6d3e:	61da      	str	r2, [r3, #28]
    6d40:	f107 0714 	add.w	r7, r7, #20
    6d44:	46bd      	mov	sp, r7
    6d46:	bc80      	pop	{r7}
    6d48:	4770      	bx	lr
    6d4a:	bf00      	nop

00006d4c <udp_remove>:
    6d4c:	b580      	push	{r7, lr}
    6d4e:	b084      	sub	sp, #16
    6d50:	af00      	add	r7, sp, #0
    6d52:	6078      	str	r0, [r7, #4]
    6d54:	4b15      	ldr	r3, [pc, #84]	; (6dac <udp_remove+0x60>)
    6d56:	681a      	ldr	r2, [r3, #0]
    6d58:	687b      	ldr	r3, [r7, #4]
    6d5a:	429a      	cmp	r2, r3
    6d5c:	d105      	bne.n	6d6a <udp_remove+0x1e>
    6d5e:	4b13      	ldr	r3, [pc, #76]	; (6dac <udp_remove+0x60>)
    6d60:	681b      	ldr	r3, [r3, #0]
    6d62:	68da      	ldr	r2, [r3, #12]
    6d64:	4b11      	ldr	r3, [pc, #68]	; (6dac <udp_remove+0x60>)
    6d66:	601a      	str	r2, [r3, #0]
    6d68:	e016      	b.n	6d98 <udp_remove+0x4c>
    6d6a:	4b10      	ldr	r3, [pc, #64]	; (6dac <udp_remove+0x60>)
    6d6c:	681b      	ldr	r3, [r3, #0]
    6d6e:	60fb      	str	r3, [r7, #12]
    6d70:	e00f      	b.n	6d92 <udp_remove+0x46>
    6d72:	68fb      	ldr	r3, [r7, #12]
    6d74:	68db      	ldr	r3, [r3, #12]
    6d76:	2b00      	cmp	r3, #0
    6d78:	d008      	beq.n	6d8c <udp_remove+0x40>
    6d7a:	68fb      	ldr	r3, [r7, #12]
    6d7c:	68da      	ldr	r2, [r3, #12]
    6d7e:	687b      	ldr	r3, [r7, #4]
    6d80:	429a      	cmp	r2, r3
    6d82:	d103      	bne.n	6d8c <udp_remove+0x40>
    6d84:	687b      	ldr	r3, [r7, #4]
    6d86:	68da      	ldr	r2, [r3, #12]
    6d88:	68fb      	ldr	r3, [r7, #12]
    6d8a:	60da      	str	r2, [r3, #12]
    6d8c:	68fb      	ldr	r3, [r7, #12]
    6d8e:	68db      	ldr	r3, [r3, #12]
    6d90:	60fb      	str	r3, [r7, #12]
    6d92:	68fb      	ldr	r3, [r7, #12]
    6d94:	2b00      	cmp	r3, #0
    6d96:	d1ec      	bne.n	6d72 <udp_remove+0x26>
    6d98:	f04f 0001 	mov.w	r0, #1
    6d9c:	6879      	ldr	r1, [r7, #4]
    6d9e:	f7fb faa9 	bl	22f4 <memp_free>
    6da2:	f107 0710 	add.w	r7, r7, #16
    6da6:	46bd      	mov	sp, r7
    6da8:	bd80      	pop	{r7, pc}
    6daa:	bf00      	nop
    6dac:	20004258 	.word	0x20004258

00006db0 <udp_new>:
    6db0:	b580      	push	{r7, lr}
    6db2:	b082      	sub	sp, #8
    6db4:	af00      	add	r7, sp, #0
    6db6:	f04f 0001 	mov.w	r0, #1
    6dba:	f7fb f9f9 	bl	21b0 <memp_malloc>
    6dbe:	4603      	mov	r3, r0
    6dc0:	607b      	str	r3, [r7, #4]
    6dc2:	687b      	ldr	r3, [r7, #4]
    6dc4:	2b00      	cmp	r3, #0
    6dc6:	d00a      	beq.n	6dde <udp_new+0x2e>
    6dc8:	6878      	ldr	r0, [r7, #4]
    6dca:	f04f 0100 	mov.w	r1, #0
    6dce:	f04f 0220 	mov.w	r2, #32
    6dd2:	f002 f8fb 	bl	8fcc <memset>
    6dd6:	687b      	ldr	r3, [r7, #4]
    6dd8:	f04f 02ff 	mov.w	r2, #255	; 0xff
    6ddc:	72da      	strb	r2, [r3, #11]
    6dde:	687b      	ldr	r3, [r7, #4]
    6de0:	4618      	mov	r0, r3
    6de2:	f107 0708 	add.w	r7, r7, #8
    6de6:	46bd      	mov	sp, r7
    6de8:	bd80      	pop	{r7, pc}
    6dea:	bf00      	nop

00006dec <ip_route>:
    6dec:	b580      	push	{r7, lr}
    6dee:	b084      	sub	sp, #16
    6df0:	af00      	add	r7, sp, #0
    6df2:	6078      	str	r0, [r7, #4]
    6df4:	4b1c      	ldr	r3, [pc, #112]	; (6e68 <ip_route+0x7c>)
    6df6:	681b      	ldr	r3, [r3, #0]
    6df8:	60fb      	str	r3, [r7, #12]
    6dfa:	e015      	b.n	6e28 <ip_route+0x3c>
    6dfc:	68f8      	ldr	r0, [r7, #12]
    6dfe:	f7fd f887 	bl	3f10 <netif_is_up>
    6e02:	4603      	mov	r3, r0
    6e04:	2b00      	cmp	r3, #0
    6e06:	d00c      	beq.n	6e22 <ip_route+0x36>
    6e08:	687b      	ldr	r3, [r7, #4]
    6e0a:	681a      	ldr	r2, [r3, #0]
    6e0c:	68fb      	ldr	r3, [r7, #12]
    6e0e:	685b      	ldr	r3, [r3, #4]
    6e10:	405a      	eors	r2, r3
    6e12:	68fb      	ldr	r3, [r7, #12]
    6e14:	689b      	ldr	r3, [r3, #8]
    6e16:	ea02 0303 	and.w	r3, r2, r3
    6e1a:	2b00      	cmp	r3, #0
    6e1c:	d101      	bne.n	6e22 <ip_route+0x36>
    6e1e:	68fb      	ldr	r3, [r7, #12]
    6e20:	e01d      	b.n	6e5e <ip_route+0x72>
    6e22:	68fb      	ldr	r3, [r7, #12]
    6e24:	681b      	ldr	r3, [r3, #0]
    6e26:	60fb      	str	r3, [r7, #12]
    6e28:	68fb      	ldr	r3, [r7, #12]
    6e2a:	2b00      	cmp	r3, #0
    6e2c:	d1e6      	bne.n	6dfc <ip_route+0x10>
    6e2e:	4b0f      	ldr	r3, [pc, #60]	; (6e6c <ip_route+0x80>)
    6e30:	681b      	ldr	r3, [r3, #0]
    6e32:	2b00      	cmp	r3, #0
    6e34:	d007      	beq.n	6e46 <ip_route+0x5a>
    6e36:	4b0d      	ldr	r3, [pc, #52]	; (6e6c <ip_route+0x80>)
    6e38:	681b      	ldr	r3, [r3, #0]
    6e3a:	4618      	mov	r0, r3
    6e3c:	f7fd f868 	bl	3f10 <netif_is_up>
    6e40:	4603      	mov	r3, r0
    6e42:	2b00      	cmp	r3, #0
    6e44:	d109      	bne.n	6e5a <ip_route+0x6e>
    6e46:	4b0a      	ldr	r3, [pc, #40]	; (6e70 <ip_route+0x84>)
    6e48:	8fdb      	ldrh	r3, [r3, #62]	; 0x3e
    6e4a:	f103 0301 	add.w	r3, r3, #1
    6e4e:	b29a      	uxth	r2, r3
    6e50:	4b07      	ldr	r3, [pc, #28]	; (6e70 <ip_route+0x84>)
    6e52:	87da      	strh	r2, [r3, #62]	; 0x3e
    6e54:	f04f 0300 	mov.w	r3, #0
    6e58:	e001      	b.n	6e5e <ip_route+0x72>
    6e5a:	4b04      	ldr	r3, [pc, #16]	; (6e6c <ip_route+0x80>)
    6e5c:	681b      	ldr	r3, [r3, #0]
    6e5e:	4618      	mov	r0, r3
    6e60:	f107 0710 	add.w	r7, r7, #16
    6e64:	46bd      	mov	sp, r7
    6e66:	bd80      	pop	{r7, pc}
    6e68:	20004250 	.word	0x20004250
    6e6c:	20004254 	.word	0x20004254
    6e70:	20004128 	.word	0x20004128

00006e74 <ip_output_if>:
    6e74:	b590      	push	{r4, r7, lr}
    6e76:	b087      	sub	sp, #28
    6e78:	af00      	add	r7, sp, #0
    6e7a:	60f8      	str	r0, [r7, #12]
    6e7c:	60b9      	str	r1, [r7, #8]
    6e7e:	607a      	str	r2, [r7, #4]
    6e80:	70fb      	strb	r3, [r7, #3]
    6e82:	687b      	ldr	r3, [r7, #4]
    6e84:	2b00      	cmp	r3, #0
    6e86:	f000 80c1 	beq.w	700c <ip_output_if+0x198>
    6e8a:	f04f 0314 	mov.w	r3, #20
    6e8e:	82fb      	strh	r3, [r7, #22]
    6e90:	68f8      	ldr	r0, [r7, #12]
    6e92:	f04f 0114 	mov.w	r1, #20
    6e96:	f7fc fe05 	bl	3aa4 <pbuf_header>
    6e9a:	4603      	mov	r3, r0
    6e9c:	2b00      	cmp	r3, #0
    6e9e:	d00b      	beq.n	6eb8 <ip_output_if+0x44>
    6ea0:	4b68      	ldr	r3, [pc, #416]	; (7044 <ip_output_if+0x1d0>)
    6ea2:	f8b3 3044 	ldrh.w	r3, [r3, #68]	; 0x44
    6ea6:	f103 0301 	add.w	r3, r3, #1
    6eaa:	b29a      	uxth	r2, r3
    6eac:	4b65      	ldr	r3, [pc, #404]	; (7044 <ip_output_if+0x1d0>)
    6eae:	f8a3 2044 	strh.w	r2, [r3, #68]	; 0x44
    6eb2:	f04f 03fe 	mov.w	r3, #254	; 0xfe
    6eb6:	e0be      	b.n	7036 <ip_output_if+0x1c2>
    6eb8:	68fb      	ldr	r3, [r7, #12]
    6eba:	685b      	ldr	r3, [r3, #4]
    6ebc:	613b      	str	r3, [r7, #16]
    6ebe:	693b      	ldr	r3, [r7, #16]
    6ec0:	891b      	ldrh	r3, [r3, #8]
    6ec2:	b29b      	uxth	r3, r3
    6ec4:	4618      	mov	r0, r3
    6ec6:	f7fc ffe7 	bl	3e98 <ntohs>
    6eca:	4603      	mov	r3, r0
    6ecc:	b29b      	uxth	r3, r3
    6ece:	f003 03ff 	and.w	r3, r3, #255	; 0xff
    6ed2:	b29a      	uxth	r2, r3
    6ed4:	78fb      	ldrb	r3, [r7, #3]
    6ed6:	ea4f 2303 	mov.w	r3, r3, lsl #8
    6eda:	b29b      	uxth	r3, r3
    6edc:	ea42 0303 	orr.w	r3, r2, r3
    6ee0:	b29b      	uxth	r3, r3
    6ee2:	b29b      	uxth	r3, r3
    6ee4:	4618      	mov	r0, r3
    6ee6:	f7fc ffbf 	bl	3e68 <htons>
    6eea:	4603      	mov	r3, r0
    6eec:	461a      	mov	r2, r3
    6eee:	693b      	ldr	r3, [r7, #16]
    6ef0:	811a      	strh	r2, [r3, #8]
    6ef2:	f897 302c 	ldrb.w	r3, [r7, #44]	; 0x2c
    6ef6:	b29c      	uxth	r4, r3
    6ef8:	693b      	ldr	r3, [r7, #16]
    6efa:	891b      	ldrh	r3, [r3, #8]
    6efc:	b29b      	uxth	r3, r3
    6efe:	4618      	mov	r0, r3
    6f00:	f7fc ffca 	bl	3e98 <ntohs>
    6f04:	4603      	mov	r3, r0
    6f06:	ea4f 2313 	mov.w	r3, r3, lsr #8
    6f0a:	b29b      	uxth	r3, r3
    6f0c:	ea4f 2303 	mov.w	r3, r3, lsl #8
    6f10:	b29b      	uxth	r3, r3
    6f12:	4622      	mov	r2, r4
    6f14:	ea42 0303 	orr.w	r3, r2, r3
    6f18:	b29b      	uxth	r3, r3
    6f1a:	b29b      	uxth	r3, r3
    6f1c:	4618      	mov	r0, r3
    6f1e:	f7fc ffa3 	bl	3e68 <htons>
    6f22:	4603      	mov	r3, r0
    6f24:	461a      	mov	r2, r3
    6f26:	693b      	ldr	r3, [r7, #16]
    6f28:	811a      	strh	r2, [r3, #8]
    6f2a:	687b      	ldr	r3, [r7, #4]
    6f2c:	2b00      	cmp	r3, #0
    6f2e:	d002      	beq.n	6f36 <ip_output_if+0xc2>
    6f30:	687b      	ldr	r3, [r7, #4]
    6f32:	681b      	ldr	r3, [r3, #0]
    6f34:	e001      	b.n	6f3a <ip_output_if+0xc6>
    6f36:	f04f 0300 	mov.w	r3, #0
    6f3a:	693a      	ldr	r2, [r7, #16]
    6f3c:	6113      	str	r3, [r2, #16]
    6f3e:	8afb      	ldrh	r3, [r7, #22]
    6f40:	ea4f 0393 	mov.w	r3, r3, lsr #2
    6f44:	b29b      	uxth	r3, r3
    6f46:	ea4f 2303 	mov.w	r3, r3, lsl #8
    6f4a:	b29b      	uxth	r3, r3
    6f4c:	f443 4380 	orr.w	r3, r3, #16384	; 0x4000
    6f50:	b29a      	uxth	r2, r3
    6f52:	f897 3028 	ldrb.w	r3, [r7, #40]	; 0x28
    6f56:	b29b      	uxth	r3, r3
    6f58:	ea42 0303 	orr.w	r3, r2, r3
    6f5c:	b29b      	uxth	r3, r3
    6f5e:	b29b      	uxth	r3, r3
    6f60:	4618      	mov	r0, r3
    6f62:	f7fc ff81 	bl	3e68 <htons>
    6f66:	4603      	mov	r3, r0
    6f68:	461a      	mov	r2, r3
    6f6a:	693b      	ldr	r3, [r7, #16]
    6f6c:	801a      	strh	r2, [r3, #0]
    6f6e:	68fb      	ldr	r3, [r7, #12]
    6f70:	891b      	ldrh	r3, [r3, #8]
    6f72:	4618      	mov	r0, r3
    6f74:	f7fc ff78 	bl	3e68 <htons>
    6f78:	4603      	mov	r3, r0
    6f7a:	461a      	mov	r2, r3
    6f7c:	693b      	ldr	r3, [r7, #16]
    6f7e:	805a      	strh	r2, [r3, #2]
    6f80:	693b      	ldr	r3, [r7, #16]
    6f82:	f04f 0200 	mov.w	r2, #0
    6f86:	719a      	strb	r2, [r3, #6]
    6f88:	f04f 0200 	mov.w	r2, #0
    6f8c:	71da      	strb	r2, [r3, #7]
    6f8e:	4b2e      	ldr	r3, [pc, #184]	; (7048 <ip_output_if+0x1d4>)
    6f90:	881b      	ldrh	r3, [r3, #0]
    6f92:	4618      	mov	r0, r3
    6f94:	f7fc ff68 	bl	3e68 <htons>
    6f98:	4603      	mov	r3, r0
    6f9a:	461a      	mov	r2, r3
    6f9c:	693b      	ldr	r3, [r7, #16]
    6f9e:	809a      	strh	r2, [r3, #4]
    6fa0:	4b29      	ldr	r3, [pc, #164]	; (7048 <ip_output_if+0x1d4>)
    6fa2:	881b      	ldrh	r3, [r3, #0]
    6fa4:	f103 0301 	add.w	r3, r3, #1
    6fa8:	b29a      	uxth	r2, r3
    6faa:	4b27      	ldr	r3, [pc, #156]	; (7048 <ip_output_if+0x1d4>)
    6fac:	801a      	strh	r2, [r3, #0]
    6fae:	68bb      	ldr	r3, [r7, #8]
    6fb0:	2b00      	cmp	r3, #0
    6fb2:	d003      	beq.n	6fbc <ip_output_if+0x148>
    6fb4:	68bb      	ldr	r3, [r7, #8]
    6fb6:	681b      	ldr	r3, [r3, #0]
    6fb8:	2b00      	cmp	r3, #0
    6fba:	d10c      	bne.n	6fd6 <ip_output_if+0x162>
    6fbc:	6b3b      	ldr	r3, [r7, #48]	; 0x30
    6fbe:	f103 0304 	add.w	r3, r3, #4
    6fc2:	2b00      	cmp	r3, #0
    6fc4:	d002      	beq.n	6fcc <ip_output_if+0x158>
    6fc6:	6b3b      	ldr	r3, [r7, #48]	; 0x30
    6fc8:	685b      	ldr	r3, [r3, #4]
    6fca:	e001      	b.n	6fd0 <ip_output_if+0x15c>
    6fcc:	f04f 0300 	mov.w	r3, #0
    6fd0:	693a      	ldr	r2, [r7, #16]
    6fd2:	60d3      	str	r3, [r2, #12]
    6fd4:	e009      	b.n	6fea <ip_output_if+0x176>
    6fd6:	68bb      	ldr	r3, [r7, #8]
    6fd8:	2b00      	cmp	r3, #0
    6fda:	d002      	beq.n	6fe2 <ip_output_if+0x16e>
    6fdc:	68bb      	ldr	r3, [r7, #8]
    6fde:	681b      	ldr	r3, [r3, #0]
    6fe0:	e001      	b.n	6fe6 <ip_output_if+0x172>
    6fe2:	f04f 0300 	mov.w	r3, #0
    6fe6:	693a      	ldr	r2, [r7, #16]
    6fe8:	60d3      	str	r3, [r2, #12]
    6fea:	693b      	ldr	r3, [r7, #16]
    6fec:	f04f 0200 	mov.w	r2, #0
    6ff0:	729a      	strb	r2, [r3, #10]
    6ff2:	f04f 0200 	mov.w	r2, #0
    6ff6:	72da      	strb	r2, [r3, #11]
    6ff8:	8afb      	ldrh	r3, [r7, #22]
    6ffa:	6938      	ldr	r0, [r7, #16]
    6ffc:	4619      	mov	r1, r3
    6ffe:	f7fc f8c5 	bl	318c <inet_chksum>
    7002:	4603      	mov	r3, r0
    7004:	461a      	mov	r2, r3
    7006:	693b      	ldr	r3, [r7, #16]
    7008:	815a      	strh	r2, [r3, #10]
    700a:	e006      	b.n	701a <ip_output_if+0x1a6>
    700c:	68fb      	ldr	r3, [r7, #12]
    700e:	685b      	ldr	r3, [r3, #4]
    7010:	613b      	str	r3, [r7, #16]
    7012:	693b      	ldr	r3, [r7, #16]
    7014:	f103 0310 	add.w	r3, r3, #16
    7018:	607b      	str	r3, [r7, #4]
    701a:	4b0a      	ldr	r3, [pc, #40]	; (7044 <ip_output_if+0x1d0>)
    701c:	8e1b      	ldrh	r3, [r3, #48]	; 0x30
    701e:	f103 0301 	add.w	r3, r3, #1
    7022:	b29a      	uxth	r2, r3
    7024:	4b07      	ldr	r3, [pc, #28]	; (7044 <ip_output_if+0x1d0>)
    7026:	861a      	strh	r2, [r3, #48]	; 0x30
    7028:	6b3b      	ldr	r3, [r7, #48]	; 0x30
    702a:	695b      	ldr	r3, [r3, #20]
    702c:	6b38      	ldr	r0, [r7, #48]	; 0x30
    702e:	68f9      	ldr	r1, [r7, #12]
    7030:	687a      	ldr	r2, [r7, #4]
    7032:	4798      	blx	r3
    7034:	4603      	mov	r3, r0
    7036:	b25b      	sxtb	r3, r3
    7038:	4618      	mov	r0, r3
    703a:	f107 071c 	add.w	r7, r7, #28
    703e:	46bd      	mov	sp, r7
    7040:	bd90      	pop	{r4, r7, pc}
    7042:	bf00      	nop
    7044:	20004128 	.word	0x20004128
    7048:	20003dc4 	.word	0x20003dc4

0000704c <ip_output>:
    704c:	b580      	push	{r7, lr}
    704e:	b08a      	sub	sp, #40	; 0x28
    7050:	af04      	add	r7, sp, #16
    7052:	60f8      	str	r0, [r7, #12]
    7054:	60b9      	str	r1, [r7, #8]
    7056:	607a      	str	r2, [r7, #4]
    7058:	70fb      	strb	r3, [r7, #3]
    705a:	6878      	ldr	r0, [r7, #4]
    705c:	f7ff fec6 	bl	6dec <ip_route>
    7060:	6178      	str	r0, [r7, #20]
    7062:	697b      	ldr	r3, [r7, #20]
    7064:	2b00      	cmp	r3, #0
    7066:	d109      	bne.n	707c <ip_output+0x30>
    7068:	4b0f      	ldr	r3, [pc, #60]	; (70a8 <ip_output+0x5c>)
    706a:	8fdb      	ldrh	r3, [r3, #62]	; 0x3e
    706c:	f103 0301 	add.w	r3, r3, #1
    7070:	b29a      	uxth	r2, r3
    7072:	4b0d      	ldr	r3, [pc, #52]	; (70a8 <ip_output+0x5c>)
    7074:	87da      	strh	r2, [r3, #62]	; 0x3e
    7076:	f04f 03fc 	mov.w	r3, #252	; 0xfc
    707a:	e00e      	b.n	709a <ip_output+0x4e>
    707c:	78fb      	ldrb	r3, [r7, #3]
    707e:	f897 2020 	ldrb.w	r2, [r7, #32]
    7082:	9200      	str	r2, [sp, #0]
    7084:	f897 2024 	ldrb.w	r2, [r7, #36]	; 0x24
    7088:	9201      	str	r2, [sp, #4]
    708a:	697a      	ldr	r2, [r7, #20]
    708c:	9202      	str	r2, [sp, #8]
    708e:	68f8      	ldr	r0, [r7, #12]
    7090:	68b9      	ldr	r1, [r7, #8]
    7092:	687a      	ldr	r2, [r7, #4]
    7094:	f7ff feee 	bl	6e74 <ip_output_if>
    7098:	4603      	mov	r3, r0
    709a:	b25b      	sxtb	r3, r3
    709c:	4618      	mov	r0, r3
    709e:	f107 0718 	add.w	r7, r7, #24
    70a2:	46bd      	mov	sp, r7
    70a4:	bd80      	pop	{r7, pc}
    70a6:	bf00      	nop
    70a8:	20004128 	.word	0x20004128

000070ac <Default_Reset_Handler>:
    70ac:	b580      	push	{r7, lr}
    70ae:	b082      	sub	sp, #8
    70b0:	af00      	add	r7, sp, #0
    70b2:	4b12      	ldr	r3, [pc, #72]	; (70fc <zero_loop+0x18>)
    70b4:	607b      	str	r3, [r7, #4]
    70b6:	4b12      	ldr	r3, [pc, #72]	; (7100 <zero_loop+0x1c>)
    70b8:	603b      	str	r3, [r7, #0]
    70ba:	e00b      	b.n	70d4 <Default_Reset_Handler+0x28>
    70bc:	687b      	ldr	r3, [r7, #4]
    70be:	681a      	ldr	r2, [r3, #0]
    70c0:	683b      	ldr	r3, [r7, #0]
    70c2:	601a      	str	r2, [r3, #0]
    70c4:	683b      	ldr	r3, [r7, #0]
    70c6:	f103 0304 	add.w	r3, r3, #4
    70ca:	603b      	str	r3, [r7, #0]
    70cc:	687b      	ldr	r3, [r7, #4]
    70ce:	f103 0304 	add.w	r3, r3, #4
    70d2:	607b      	str	r3, [r7, #4]
    70d4:	683a      	ldr	r2, [r7, #0]
    70d6:	4b0b      	ldr	r3, [pc, #44]	; (7104 <zero_loop+0x20>)
    70d8:	429a      	cmp	r2, r3
    70da:	d3ef      	bcc.n	70bc <Default_Reset_Handler+0x10>
    70dc:	480a      	ldr	r0, [pc, #40]	; (7108 <zero_loop+0x24>)
    70de:	490b      	ldr	r1, [pc, #44]	; (710c <zero_loop+0x28>)
    70e0:	f04f 0200 	mov.w	r2, #0

000070e4 <zero_loop>:
    70e4:	4288      	cmp	r0, r1
    70e6:	bfb8      	it	lt
    70e8:	f840 2b04 	strlt.w	r2, [r0], #4
    70ec:	dbfa      	blt.n	70e4 <zero_loop>
    70ee:	f7fc f86d 	bl	31cc <main>
    70f2:	f107 0708 	add.w	r7, r7, #8
    70f6:	46bd      	mov	sp, r7
    70f8:	bd80      	pop	{r7, pc}
    70fa:	bf00      	nop
    70fc:	0000a93c 	.word	0x0000a93c
    7100:	20000000 	.word	0x20000000
    7104:	20000080 	.word	0x20000080
    7108:	20000080 	.word	0x20000080
    710c:	2000425c 	.word	0x2000425c

00007110 <BusFault_Handler>:
    7110:	b480      	push	{r7}
    7112:	af00      	add	r7, sp, #0
    7114:	e7fe      	b.n	7114 <BusFault_Handler+0x4>
    7116:	bf00      	nop

00007118 <InitTaskContext>:
    7118:	b480      	push	{r7}
    711a:	b087      	sub	sp, #28
    711c:	af00      	add	r7, sp, #0
    711e:	60f8      	str	r0, [r7, #12]
    7120:	60b9      	str	r1, [r7, #8]
    7122:	607a      	str	r2, [r7, #4]
    7124:	687b      	ldr	r3, [r7, #4]
    7126:	617b      	str	r3, [r7, #20]
    7128:	697b      	ldr	r3, [r7, #20]
    712a:	f04f 7280 	mov.w	r2, #16777216	; 0x1000000
    712e:	601a      	str	r2, [r3, #0]
    7130:	697b      	ldr	r3, [r7, #20]
    7132:	f1a3 0304 	sub.w	r3, r3, #4
    7136:	617b      	str	r3, [r7, #20]
    7138:	68fa      	ldr	r2, [r7, #12]
    713a:	697b      	ldr	r3, [r7, #20]
    713c:	601a      	str	r2, [r3, #0]
    713e:	697b      	ldr	r3, [r7, #20]
    7140:	f1a3 0304 	sub.w	r3, r3, #4
    7144:	617b      	str	r3, [r7, #20]
    7146:	697b      	ldr	r3, [r7, #20]
    7148:	f06f 0201 	mvn.w	r2, #1
    714c:	601a      	str	r2, [r3, #0]
    714e:	697b      	ldr	r3, [r7, #20]
    7150:	f1a3 0314 	sub.w	r3, r3, #20
    7154:	617b      	str	r3, [r7, #20]
    7156:	68ba      	ldr	r2, [r7, #8]
    7158:	697b      	ldr	r3, [r7, #20]
    715a:	601a      	str	r2, [r3, #0]
    715c:	697b      	ldr	r3, [r7, #20]
    715e:	f1a3 0320 	sub.w	r3, r3, #32
    7162:	617b      	str	r3, [r7, #20]
    7164:	697b      	ldr	r3, [r7, #20]
    7166:	4618      	mov	r0, r3
    7168:	f107 071c 	add.w	r7, r7, #28
    716c:	46bd      	mov	sp, r7
    716e:	bc80      	pop	{r7}
    7170:	4770      	bx	lr
    7172:	bf00      	nop

00007174 <SysTick_Handler>:
    7174:	b580      	push	{r7, lr}
    7176:	af00      	add	r7, sp, #0
    7178:	4b24      	ldr	r3, [pc, #144]	; (720c <SysTick_Handler+0x98>)
    717a:	781b      	ldrb	r3, [r3, #0]
    717c:	b2db      	uxtb	r3, r3
    717e:	f103 0301 	add.w	r3, r3, #1
    7182:	b2da      	uxtb	r2, r3
    7184:	4b21      	ldr	r3, [pc, #132]	; (720c <SysTick_Handler+0x98>)
    7186:	701a      	strb	r2, [r3, #0]
    7188:	4b21      	ldr	r3, [pc, #132]	; (7210 <SysTick_Handler+0x9c>)
    718a:	e9d3 0100 	ldrd	r0, r1, [r3]
    718e:	f04f 0201 	mov.w	r2, #1
    7192:	f04f 0300 	mov.w	r3, #0
    7196:	1812      	adds	r2, r2, r0
    7198:	eb43 0301 	adc.w	r3, r3, r1
    719c:	491c      	ldr	r1, [pc, #112]	; (7210 <SysTick_Handler+0x9c>)
    719e:	e9c1 2300 	strd	r2, r3, [r1]
    71a2:	4b1c      	ldr	r3, [pc, #112]	; (7214 <SysTick_Handler+0xa0>)
    71a4:	681b      	ldr	r3, [r3, #0]
    71a6:	2b00      	cmp	r3, #0
    71a8:	d012      	beq.n	71d0 <SysTick_Handler+0x5c>
    71aa:	4b1a      	ldr	r3, [pc, #104]	; (7214 <SysTick_Handler+0xa0>)
    71ac:	681b      	ldr	r3, [r3, #0]
    71ae:	6a1b      	ldr	r3, [r3, #32]
    71b0:	2b01      	cmp	r3, #1
    71b2:	d906      	bls.n	71c2 <SysTick_Handler+0x4e>
    71b4:	4b17      	ldr	r3, [pc, #92]	; (7214 <SysTick_Handler+0xa0>)
    71b6:	681b      	ldr	r3, [r3, #0]
    71b8:	6a1a      	ldr	r2, [r3, #32]
    71ba:	f102 32ff 	add.w	r2, r2, #4294967295
    71be:	621a      	str	r2, [r3, #32]
    71c0:	e006      	b.n	71d0 <SysTick_Handler+0x5c>
    71c2:	4b14      	ldr	r3, [pc, #80]	; (7214 <SysTick_Handler+0xa0>)
    71c4:	681b      	ldr	r3, [r3, #0]
    71c6:	f04f 0200 	mov.w	r2, #0
    71ca:	621a      	str	r2, [r3, #32]
    71cc:	f7fc ffd4 	bl	4178 <isr_TimeDispose>
    71d0:	4b11      	ldr	r3, [pc, #68]	; (7218 <SysTick_Handler+0xa4>)
    71d2:	681b      	ldr	r3, [r3, #0]
    71d4:	2b00      	cmp	r3, #0
    71d6:	d012      	beq.n	71fe <SysTick_Handler+0x8a>
    71d8:	4b0f      	ldr	r3, [pc, #60]	; (7218 <SysTick_Handler+0xa4>)
    71da:	681b      	ldr	r3, [r3, #0]
    71dc:	685b      	ldr	r3, [r3, #4]
    71de:	2b01      	cmp	r3, #1
    71e0:	d906      	bls.n	71f0 <SysTick_Handler+0x7c>
    71e2:	4b0d      	ldr	r3, [pc, #52]	; (7218 <SysTick_Handler+0xa4>)
    71e4:	681b      	ldr	r3, [r3, #0]
    71e6:	685a      	ldr	r2, [r3, #4]
    71e8:	f102 32ff 	add.w	r2, r2, #4294967295
    71ec:	605a      	str	r2, [r3, #4]
    71ee:	e006      	b.n	71fe <SysTick_Handler+0x8a>
    71f0:	4b09      	ldr	r3, [pc, #36]	; (7218 <SysTick_Handler+0xa4>)
    71f2:	681b      	ldr	r3, [r3, #0]
    71f4:	f04f 0200 	mov.w	r2, #0
    71f8:	605a      	str	r2, [r3, #4]
    71fa:	f7fa febd 	bl	1f78 <isr_TmrDispose>
    71fe:	4b07      	ldr	r3, [pc, #28]	; (721c <SysTick_Handler+0xa8>)
    7200:	f04f 0201 	mov.w	r2, #1
    7204:	701a      	strb	r2, [r3, #0]
    7206:	f7fa fb4d 	bl	18a4 <OsSchedUnlock>
    720a:	bd80      	pop	{r7, pc}
    720c:	20000982 	.word	0x20000982
    7210:	20003dc8 	.word	0x20003dc8
    7214:	20003a40 	.word	0x20003a40
    7218:	200009b4 	.word	0x200009b4
    721c:	20000983 	.word	0x20000983

00007220 <netconn_new_with_proto_and_callback>:
    7220:	b580      	push	{r7, lr}
    7222:	b088      	sub	sp, #32
    7224:	af00      	add	r7, sp, #0
    7226:	460b      	mov	r3, r1
    7228:	603a      	str	r2, [r7, #0]
    722a:	4602      	mov	r2, r0
    722c:	71fa      	strb	r2, [r7, #7]
    722e:	71bb      	strb	r3, [r7, #6]
    7230:	79fb      	ldrb	r3, [r7, #7]
    7232:	4618      	mov	r0, r3
    7234:	6839      	ldr	r1, [r7, #0]
    7236:	f7fd fab7 	bl	47a8 <netconn_alloc>
    723a:	61f8      	str	r0, [r7, #28]
    723c:	69fb      	ldr	r3, [r7, #28]
    723e:	2b00      	cmp	r3, #0
    7240:	d020      	beq.n	7284 <netconn_new_with_proto_and_callback+0x64>
    7242:	4b13      	ldr	r3, [pc, #76]	; (7290 <netconn_new_with_proto_and_callback+0x70>)
    7244:	60bb      	str	r3, [r7, #8]
    7246:	79bb      	ldrb	r3, [r7, #6]
    7248:	743b      	strb	r3, [r7, #16]
    724a:	69fb      	ldr	r3, [r7, #28]
    724c:	60fb      	str	r3, [r7, #12]
    724e:	f107 0308 	add.w	r3, r7, #8
    7252:	4618      	mov	r0, r3
    7254:	f7fb fab6 	bl	27c4 <tcpip_apimsg>
    7258:	69fb      	ldr	r3, [r7, #28]
    725a:	7a1b      	ldrb	r3, [r3, #8]
    725c:	2b00      	cmp	r3, #0
    725e:	d011      	beq.n	7284 <netconn_new_with_proto_and_callback+0x64>
    7260:	69fb      	ldr	r3, [r7, #28]
    7262:	7a5b      	ldrb	r3, [r3, #9]
    7264:	4618      	mov	r0, r3
    7266:	f7fe faa1 	bl	57ac <sys_sem_free>
    726a:	69fb      	ldr	r3, [r7, #28]
    726c:	7a9b      	ldrb	r3, [r3, #10]
    726e:	4618      	mov	r0, r3
    7270:	f7fe f93e 	bl	54f0 <sys_mbox_free>
    7274:	f04f 0006 	mov.w	r0, #6
    7278:	69f9      	ldr	r1, [r7, #28]
    727a:	f7fb f83b 	bl	22f4 <memp_free>
    727e:	f04f 0300 	mov.w	r3, #0
    7282:	e000      	b.n	7286 <netconn_new_with_proto_and_callback+0x66>
    7284:	69fb      	ldr	r3, [r7, #28]
    7286:	4618      	mov	r0, r3
    7288:	f107 0720 	add.w	r7, r7, #32
    728c:	46bd      	mov	sp, r7
    728e:	bd80      	pop	{r7, pc}
    7290:	0000477d 	.word	0x0000477d

00007294 <netconn_delete>:
    7294:	b580      	push	{r7, lr}
    7296:	b088      	sub	sp, #32
    7298:	af00      	add	r7, sp, #0
    729a:	6078      	str	r0, [r7, #4]
    729c:	687b      	ldr	r3, [r7, #4]
    729e:	2b00      	cmp	r3, #0
    72a0:	d102      	bne.n	72a8 <netconn_delete+0x14>
    72a2:	f04f 0300 	mov.w	r3, #0
    72a6:	e011      	b.n	72cc <netconn_delete+0x38>
    72a8:	4b0b      	ldr	r3, [pc, #44]	; (72d8 <netconn_delete+0x44>)
    72aa:	60fb      	str	r3, [r7, #12]
    72ac:	687b      	ldr	r3, [r7, #4]
    72ae:	613b      	str	r3, [r7, #16]
    72b0:	f107 030c 	add.w	r3, r7, #12
    72b4:	4618      	mov	r0, r3
    72b6:	f7fb fa85 	bl	27c4 <tcpip_apimsg>
    72ba:	687b      	ldr	r3, [r7, #4]
    72bc:	f04f 0200 	mov.w	r2, #0
    72c0:	605a      	str	r2, [r3, #4]
    72c2:	6878      	ldr	r0, [r7, #4]
    72c4:	f7fd fade 	bl	4884 <netconn_free>
    72c8:	f04f 0300 	mov.w	r3, #0
    72cc:	b25b      	sxtb	r3, r3
    72ce:	4618      	mov	r0, r3
    72d0:	f107 0720 	add.w	r7, r7, #32
    72d4:	46bd      	mov	sp, r7
    72d6:	bd80      	pop	{r7, pc}
    72d8:	00004a6d 	.word	0x00004a6d

000072dc <netconn_bind>:
    72dc:	b580      	push	{r7, lr}
    72de:	b08a      	sub	sp, #40	; 0x28
    72e0:	af00      	add	r7, sp, #0
    72e2:	60f8      	str	r0, [r7, #12]
    72e4:	60b9      	str	r1, [r7, #8]
    72e6:	4613      	mov	r3, r2
    72e8:	80fb      	strh	r3, [r7, #6]
    72ea:	68fb      	ldr	r3, [r7, #12]
    72ec:	2b00      	cmp	r3, #0
    72ee:	d102      	bne.n	72f6 <netconn_bind+0x1a>
    72f0:	f04f 03f6 	mov.w	r3, #246	; 0xf6
    72f4:	e00e      	b.n	7314 <netconn_bind+0x38>
    72f6:	4b0a      	ldr	r3, [pc, #40]	; (7320 <netconn_bind+0x44>)
    72f8:	617b      	str	r3, [r7, #20]
    72fa:	68fb      	ldr	r3, [r7, #12]
    72fc:	61bb      	str	r3, [r7, #24]
    72fe:	68bb      	ldr	r3, [r7, #8]
    7300:	61fb      	str	r3, [r7, #28]
    7302:	88fb      	ldrh	r3, [r7, #6]
    7304:	843b      	strh	r3, [r7, #32]
    7306:	f107 0314 	add.w	r3, r7, #20
    730a:	4618      	mov	r0, r3
    730c:	f7fb fa5a 	bl	27c4 <tcpip_apimsg>
    7310:	68fb      	ldr	r3, [r7, #12]
    7312:	7a1b      	ldrb	r3, [r3, #8]
    7314:	b25b      	sxtb	r3, r3
    7316:	4618      	mov	r0, r3
    7318:	f107 0728 	add.w	r7, r7, #40	; 0x28
    731c:	46bd      	mov	sp, r7
    731e:	bd80      	pop	{r7, pc}
    7320:	00004b35 	.word	0x00004b35

00007324 <netconn_listen_with_backlog>:
    7324:	b580      	push	{r7, lr}
    7326:	b088      	sub	sp, #32
    7328:	af00      	add	r7, sp, #0
    732a:	6078      	str	r0, [r7, #4]
    732c:	460b      	mov	r3, r1
    732e:	70fb      	strb	r3, [r7, #3]
    7330:	687b      	ldr	r3, [r7, #4]
    7332:	2b00      	cmp	r3, #0
    7334:	d102      	bne.n	733c <netconn_listen_with_backlog+0x18>
    7336:	f04f 03f6 	mov.w	r3, #246	; 0xf6
    733a:	e00a      	b.n	7352 <netconn_listen_with_backlog+0x2e>
    733c:	4b08      	ldr	r3, [pc, #32]	; (7360 <netconn_listen_with_backlog+0x3c>)
    733e:	60fb      	str	r3, [r7, #12]
    7340:	687b      	ldr	r3, [r7, #4]
    7342:	613b      	str	r3, [r7, #16]
    7344:	f107 030c 	add.w	r3, r7, #12
    7348:	4618      	mov	r0, r3
    734a:	f7fb fa3b 	bl	27c4 <tcpip_apimsg>
    734e:	687b      	ldr	r3, [r7, #4]
    7350:	7a1b      	ldrb	r3, [r3, #8]
    7352:	b25b      	sxtb	r3, r3
    7354:	4618      	mov	r0, r3
    7356:	f107 0720 	add.w	r7, r7, #32
    735a:	46bd      	mov	sp, r7
    735c:	bd80      	pop	{r7, pc}
    735e:	bf00      	nop
    7360:	00004bed 	.word	0x00004bed

00007364 <netconn_accept>:
    7364:	b580      	push	{r7, lr}
    7366:	b084      	sub	sp, #16
    7368:	af00      	add	r7, sp, #0
    736a:	6078      	str	r0, [r7, #4]
    736c:	687b      	ldr	r3, [r7, #4]
    736e:	2b00      	cmp	r3, #0
    7370:	d102      	bne.n	7378 <netconn_accept+0x14>
    7372:	f04f 0300 	mov.w	r3, #0
    7376:	e01d      	b.n	73b4 <netconn_accept+0x50>
    7378:	687b      	ldr	r3, [r7, #4]
    737a:	7adb      	ldrb	r3, [r3, #11]
    737c:	2bff      	cmp	r3, #255	; 0xff
    737e:	d102      	bne.n	7386 <netconn_accept+0x22>
    7380:	f04f 0300 	mov.w	r3, #0
    7384:	e016      	b.n	73b4 <netconn_accept+0x50>
    7386:	687b      	ldr	r3, [r7, #4]
    7388:	7ada      	ldrb	r2, [r3, #11]
    738a:	f107 030c 	add.w	r3, r7, #12
    738e:	4610      	mov	r0, r2
    7390:	4619      	mov	r1, r3
    7392:	f04f 0200 	mov.w	r2, #0
    7396:	f7fe f909 	bl	55ac <sys_arch_mbox_fetch>
    739a:	687b      	ldr	r3, [r7, #4]
    739c:	69db      	ldr	r3, [r3, #28]
    739e:	2b00      	cmp	r3, #0
    73a0:	d007      	beq.n	73b2 <netconn_accept+0x4e>
    73a2:	687b      	ldr	r3, [r7, #4]
    73a4:	69db      	ldr	r3, [r3, #28]
    73a6:	6878      	ldr	r0, [r7, #4]
    73a8:	f04f 0101 	mov.w	r1, #1
    73ac:	f04f 0200 	mov.w	r2, #0
    73b0:	4798      	blx	r3
    73b2:	68fb      	ldr	r3, [r7, #12]
    73b4:	4618      	mov	r0, r3
    73b6:	f107 0710 	add.w	r7, r7, #16
    73ba:	46bd      	mov	sp, r7
    73bc:	bd80      	pop	{r7, pc}
    73be:	bf00      	nop

000073c0 <netconn_recv>:
    73c0:	b580      	push	{r7, lr}
    73c2:	b08c      	sub	sp, #48	; 0x30
    73c4:	af00      	add	r7, sp, #0
    73c6:	6078      	str	r0, [r7, #4]
    73c8:	f04f 0300 	mov.w	r3, #0
    73cc:	60fb      	str	r3, [r7, #12]
    73ce:	687b      	ldr	r3, [r7, #4]
    73d0:	2b00      	cmp	r3, #0
    73d2:	d102      	bne.n	73da <netconn_recv+0x1a>
    73d4:	f04f 0300 	mov.w	r3, #0
    73d8:	e0cc      	b.n	7574 <netconn_recv+0x1b4>
    73da:	687b      	ldr	r3, [r7, #4]
    73dc:	7a9b      	ldrb	r3, [r3, #10]
    73de:	2bff      	cmp	r3, #255	; 0xff
    73e0:	d106      	bne.n	73f0 <netconn_recv+0x30>
    73e2:	687b      	ldr	r3, [r7, #4]
    73e4:	f04f 02f8 	mov.w	r2, #248	; 0xf8
    73e8:	721a      	strb	r2, [r3, #8]
    73ea:	f04f 0300 	mov.w	r3, #0
    73ee:	e0c1      	b.n	7574 <netconn_recv+0x1b4>
    73f0:	687b      	ldr	r3, [r7, #4]
    73f2:	7a1b      	ldrb	r3, [r3, #8]
    73f4:	b25b      	sxtb	r3, r3
    73f6:	f113 0f04 	cmn.w	r3, #4
    73fa:	da02      	bge.n	7402 <netconn_recv+0x42>
    73fc:	f04f 0300 	mov.w	r3, #0
    7400:	e0b8      	b.n	7574 <netconn_recv+0x1b4>
    7402:	687b      	ldr	r3, [r7, #4]
    7404:	781b      	ldrb	r3, [r3, #0]
    7406:	2b10      	cmp	r3, #16
    7408:	d17f      	bne.n	750a <netconn_recv+0x14a>
    740a:	687b      	ldr	r3, [r7, #4]
    740c:	785b      	ldrb	r3, [r3, #1]
    740e:	2b02      	cmp	r3, #2
    7410:	d106      	bne.n	7420 <netconn_recv+0x60>
    7412:	687b      	ldr	r3, [r7, #4]
    7414:	f04f 02f8 	mov.w	r2, #248	; 0xf8
    7418:	721a      	strb	r2, [r3, #8]
    741a:	f04f 0300 	mov.w	r3, #0
    741e:	e0a9      	b.n	7574 <netconn_recv+0x1b4>
    7420:	f04f 0005 	mov.w	r0, #5
    7424:	f7fa fec4 	bl	21b0 <memp_malloc>
    7428:	4603      	mov	r3, r0
    742a:	60fb      	str	r3, [r7, #12]
    742c:	68fb      	ldr	r3, [r7, #12]
    742e:	2b00      	cmp	r3, #0
    7430:	d106      	bne.n	7440 <netconn_recv+0x80>
    7432:	687b      	ldr	r3, [r7, #4]
    7434:	f04f 02ff 	mov.w	r2, #255	; 0xff
    7438:	721a      	strb	r2, [r3, #8]
    743a:	f04f 0300 	mov.w	r3, #0
    743e:	e099      	b.n	7574 <netconn_recv+0x1b4>
    7440:	687b      	ldr	r3, [r7, #4]
    7442:	7a9a      	ldrb	r2, [r3, #10]
    7444:	f107 0308 	add.w	r3, r7, #8
    7448:	4610      	mov	r0, r2
    744a:	4619      	mov	r1, r3
    744c:	f04f 0200 	mov.w	r2, #0
    7450:	f7fe f8ac 	bl	55ac <sys_arch_mbox_fetch>
    7454:	68bb      	ldr	r3, [r7, #8]
    7456:	2b00      	cmp	r3, #0
    7458:	d012      	beq.n	7480 <netconn_recv+0xc0>
    745a:	68bb      	ldr	r3, [r7, #8]
    745c:	891b      	ldrh	r3, [r3, #8]
    745e:	85fb      	strh	r3, [r7, #46]	; 0x2e
    7460:	f7fe fa3a 	bl	58d8 <sys_arch_protect>
    7464:	62b8      	str	r0, [r7, #40]	; 0x28
    7466:	687b      	ldr	r3, [r7, #4]
    7468:	8a1b      	ldrh	r3, [r3, #16]
    746a:	b29a      	uxth	r2, r3
    746c:	8dfb      	ldrh	r3, [r7, #46]	; 0x2e
    746e:	1ad3      	subs	r3, r2, r3
    7470:	b29b      	uxth	r3, r3
    7472:	b29a      	uxth	r2, r3
    7474:	687b      	ldr	r3, [r7, #4]
    7476:	821a      	strh	r2, [r3, #16]
    7478:	6ab8      	ldr	r0, [r7, #40]	; 0x28
    747a:	f7fe fa35 	bl	58e8 <sys_arch_unprotect>
    747e:	e002      	b.n	7486 <netconn_recv+0xc6>
    7480:	f04f 0300 	mov.w	r3, #0
    7484:	85fb      	strh	r3, [r7, #46]	; 0x2e
    7486:	687b      	ldr	r3, [r7, #4]
    7488:	69db      	ldr	r3, [r3, #28]
    748a:	2b00      	cmp	r3, #0
    748c:	d006      	beq.n	749c <netconn_recv+0xdc>
    748e:	687b      	ldr	r3, [r7, #4]
    7490:	69db      	ldr	r3, [r3, #28]
    7492:	8dfa      	ldrh	r2, [r7, #46]	; 0x2e
    7494:	6878      	ldr	r0, [r7, #4]
    7496:	f04f 0101 	mov.w	r1, #1
    749a:	4798      	blx	r3
    749c:	68bb      	ldr	r3, [r7, #8]
    749e:	2b00      	cmp	r3, #0
    74a0:	d110      	bne.n	74c4 <netconn_recv+0x104>
    74a2:	68fb      	ldr	r3, [r7, #12]
    74a4:	f04f 0005 	mov.w	r0, #5
    74a8:	4619      	mov	r1, r3
    74aa:	f7fa ff23 	bl	22f4 <memp_free>
    74ae:	687b      	ldr	r3, [r7, #4]
    74b0:	7a1b      	ldrb	r3, [r3, #8]
    74b2:	2b00      	cmp	r3, #0
    74b4:	d103      	bne.n	74be <netconn_recv+0xfe>
    74b6:	687b      	ldr	r3, [r7, #4]
    74b8:	f04f 02f9 	mov.w	r2, #249	; 0xf9
    74bc:	721a      	strb	r2, [r3, #8]
    74be:	f04f 0300 	mov.w	r3, #0
    74c2:	e057      	b.n	7574 <netconn_recv+0x1b4>
    74c4:	68fb      	ldr	r3, [r7, #12]
    74c6:	68ba      	ldr	r2, [r7, #8]
    74c8:	601a      	str	r2, [r3, #0]
    74ca:	68fb      	ldr	r3, [r7, #12]
    74cc:	68ba      	ldr	r2, [r7, #8]
    74ce:	605a      	str	r2, [r3, #4]
    74d0:	68fb      	ldr	r3, [r7, #12]
    74d2:	f04f 0200 	mov.w	r2, #0
    74d6:	819a      	strh	r2, [r3, #12]
    74d8:	68fb      	ldr	r3, [r7, #12]
    74da:	f04f 0200 	mov.w	r2, #0
    74de:	609a      	str	r2, [r3, #8]
    74e0:	4b27      	ldr	r3, [pc, #156]	; (7580 <netconn_recv+0x1c0>)
    74e2:	613b      	str	r3, [r7, #16]
    74e4:	687b      	ldr	r3, [r7, #4]
    74e6:	617b      	str	r3, [r7, #20]
    74e8:	68fb      	ldr	r3, [r7, #12]
    74ea:	2b00      	cmp	r3, #0
    74ec:	d004      	beq.n	74f8 <netconn_recv+0x138>
    74ee:	68fb      	ldr	r3, [r7, #12]
    74f0:	681b      	ldr	r3, [r3, #0]
    74f2:	891b      	ldrh	r3, [r3, #8]
    74f4:	833b      	strh	r3, [r7, #24]
    74f6:	e002      	b.n	74fe <netconn_recv+0x13e>
    74f8:	f04f 0301 	mov.w	r3, #1
    74fc:	833b      	strh	r3, [r7, #24]
    74fe:	f107 0310 	add.w	r3, r7, #16
    7502:	4618      	mov	r0, r3
    7504:	f7fb f95e 	bl	27c4 <tcpip_apimsg>
    7508:	e02a      	b.n	7560 <netconn_recv+0x1a0>
    750a:	687b      	ldr	r3, [r7, #4]
    750c:	7a9a      	ldrb	r2, [r3, #10]
    750e:	f107 030c 	add.w	r3, r7, #12
    7512:	4610      	mov	r0, r2
    7514:	4619      	mov	r1, r3
    7516:	f04f 0200 	mov.w	r2, #0
    751a:	f7fe f847 	bl	55ac <sys_arch_mbox_fetch>
    751e:	68fb      	ldr	r3, [r7, #12]
    7520:	2b00      	cmp	r3, #0
    7522:	d01d      	beq.n	7560 <netconn_recv+0x1a0>
    7524:	f7fe f9d8 	bl	58d8 <sys_arch_protect>
    7528:	6278      	str	r0, [r7, #36]	; 0x24
    752a:	687b      	ldr	r3, [r7, #4]
    752c:	8a1b      	ldrh	r3, [r3, #16]
    752e:	b29a      	uxth	r2, r3
    7530:	68fb      	ldr	r3, [r7, #12]
    7532:	681b      	ldr	r3, [r3, #0]
    7534:	891b      	ldrh	r3, [r3, #8]
    7536:	1ad3      	subs	r3, r2, r3
    7538:	b29b      	uxth	r3, r3
    753a:	b29a      	uxth	r2, r3
    753c:	687b      	ldr	r3, [r7, #4]
    753e:	821a      	strh	r2, [r3, #16]
    7540:	6a78      	ldr	r0, [r7, #36]	; 0x24
    7542:	f7fe f9d1 	bl	58e8 <sys_arch_unprotect>
    7546:	687b      	ldr	r3, [r7, #4]
    7548:	69db      	ldr	r3, [r3, #28]
    754a:	2b00      	cmp	r3, #0
    754c:	d008      	beq.n	7560 <netconn_recv+0x1a0>
    754e:	687b      	ldr	r3, [r7, #4]
    7550:	69db      	ldr	r3, [r3, #28]
    7552:	68fa      	ldr	r2, [r7, #12]
    7554:	6812      	ldr	r2, [r2, #0]
    7556:	8912      	ldrh	r2, [r2, #8]
    7558:	6878      	ldr	r0, [r7, #4]
    755a:	f04f 0101 	mov.w	r1, #1
    755e:	4798      	blx	r3
    7560:	68fa      	ldr	r2, [r7, #12]
    7562:	687b      	ldr	r3, [r7, #4]
    7564:	7a1b      	ldrb	r3, [r3, #8]
    7566:	b25b      	sxtb	r3, r3
    7568:	4806      	ldr	r0, [pc, #24]	; (7584 <netconn_recv+0x1c4>)
    756a:	4611      	mov	r1, r2
    756c:	461a      	mov	r2, r3
    756e:	f7fe f9c5 	bl	58fc <DebugPrintf>
    7572:	68fb      	ldr	r3, [r7, #12]
    7574:	4618      	mov	r0, r3
    7576:	f107 0730 	add.w	r7, r7, #48	; 0x30
    757a:	46bd      	mov	sp, r7
    757c:	bd80      	pop	{r7, pc}
    757e:	bf00      	nop
    7580:	00004cf1 	.word	0x00004cf1
    7584:	0000a170 	.word	0x0000a170

00007588 <netconn_write>:
    7588:	b580      	push	{r7, lr}
    758a:	b08a      	sub	sp, #40	; 0x28
    758c:	af00      	add	r7, sp, #0
    758e:	60f8      	str	r0, [r7, #12]
    7590:	60b9      	str	r1, [r7, #8]
    7592:	607a      	str	r2, [r7, #4]
    7594:	70fb      	strb	r3, [r7, #3]
    7596:	68fb      	ldr	r3, [r7, #12]
    7598:	2b00      	cmp	r3, #0
    759a:	d102      	bne.n	75a2 <netconn_write+0x1a>
    759c:	f04f 03f6 	mov.w	r3, #246	; 0xf6
    75a0:	e018      	b.n	75d4 <netconn_write+0x4c>
    75a2:	68fb      	ldr	r3, [r7, #12]
    75a4:	781b      	ldrb	r3, [r3, #0]
    75a6:	2b10      	cmp	r3, #16
    75a8:	d002      	beq.n	75b0 <netconn_write+0x28>
    75aa:	f04f 03f7 	mov.w	r3, #247	; 0xf7
    75ae:	e011      	b.n	75d4 <netconn_write+0x4c>
    75b0:	4b0b      	ldr	r3, [pc, #44]	; (75e0 <netconn_write+0x58>)
    75b2:	617b      	str	r3, [r7, #20]
    75b4:	68fb      	ldr	r3, [r7, #12]
    75b6:	61bb      	str	r3, [r7, #24]
    75b8:	68bb      	ldr	r3, [r7, #8]
    75ba:	61fb      	str	r3, [r7, #28]
    75bc:	78fb      	ldrb	r3, [r7, #3]
    75be:	f887 3024 	strb.w	r3, [r7, #36]	; 0x24
    75c2:	687b      	ldr	r3, [r7, #4]
    75c4:	623b      	str	r3, [r7, #32]
    75c6:	f107 0314 	add.w	r3, r7, #20
    75ca:	4618      	mov	r0, r3
    75cc:	f7fb f8fa 	bl	27c4 <tcpip_apimsg>
    75d0:	68fb      	ldr	r3, [r7, #12]
    75d2:	7a1b      	ldrb	r3, [r3, #8]
    75d4:	b25b      	sxtb	r3, r3
    75d6:	4618      	mov	r0, r3
    75d8:	f107 0728 	add.w	r7, r7, #40	; 0x28
    75dc:	46bd      	mov	sp, r7
    75de:	bd80      	pop	{r7, pc}
    75e0:	00004ec9 	.word	0x00004ec9

000075e4 <netconn_close>:
    75e4:	b580      	push	{r7, lr}
    75e6:	b088      	sub	sp, #32
    75e8:	af00      	add	r7, sp, #0
    75ea:	6078      	str	r0, [r7, #4]
    75ec:	687b      	ldr	r3, [r7, #4]
    75ee:	2b00      	cmp	r3, #0
    75f0:	d102      	bne.n	75f8 <netconn_close+0x14>
    75f2:	f04f 03f6 	mov.w	r3, #246	; 0xf6
    75f6:	e00a      	b.n	760e <netconn_close+0x2a>
    75f8:	4b08      	ldr	r3, [pc, #32]	; (761c <netconn_close+0x38>)
    75fa:	60fb      	str	r3, [r7, #12]
    75fc:	687b      	ldr	r3, [r7, #4]
    75fe:	613b      	str	r3, [r7, #16]
    7600:	f107 030c 	add.w	r3, r7, #12
    7604:	4618      	mov	r0, r3
    7606:	f7fb f8dd 	bl	27c4 <tcpip_apimsg>
    760a:	687b      	ldr	r3, [r7, #4]
    760c:	7a1b      	ldrb	r3, [r3, #8]
    760e:	b25b      	sxtb	r3, r3
    7610:	4618      	mov	r0, r3
    7612:	f107 0720 	add.w	r7, r7, #32
    7616:	46bd      	mov	sp, r7
    7618:	bd80      	pop	{r7, pc}
    761a:	bf00      	nop
    761c:	00004f41 	.word	0x00004f41

00007620 <serial_init>:
    7620:	b580      	push	{r7, lr}
    7622:	af00      	add	r7, sp, #0
    7624:	f7fb feb8 	bl	3398 <USBSerial_Init>
    7628:	bd80      	pop	{r7, pc}
    762a:	bf00      	nop

0000762c <CoCreateSem>:
    762c:	b580      	push	{r7, lr}
    762e:	b084      	sub	sp, #16
    7630:	af00      	add	r7, sp, #0
    7632:	4613      	mov	r3, r2
    7634:	4602      	mov	r2, r0
    7636:	80fa      	strh	r2, [r7, #6]
    7638:	460a      	mov	r2, r1
    763a:	80ba      	strh	r2, [r7, #4]
    763c:	70fb      	strb	r3, [r7, #3]
    763e:	88fa      	ldrh	r2, [r7, #6]
    7640:	88bb      	ldrh	r3, [r7, #4]
    7642:	429a      	cmp	r2, r3
    7644:	d902      	bls.n	764c <CoCreateSem+0x20>
    7646:	f04f 03ff 	mov.w	r3, #255	; 0xff
    764a:	e01f      	b.n	768c <CoCreateSem+0x60>
    764c:	78fb      	ldrb	r3, [r7, #3]
    764e:	2b01      	cmp	r3, #1
    7650:	d005      	beq.n	765e <CoCreateSem+0x32>
    7652:	78fb      	ldrb	r3, [r7, #3]
    7654:	2b02      	cmp	r3, #2
    7656:	d002      	beq.n	765e <CoCreateSem+0x32>
    7658:	f04f 03ff 	mov.w	r3, #255	; 0xff
    765c:	e016      	b.n	768c <CoCreateSem+0x60>
    765e:	78fb      	ldrb	r3, [r7, #3]
    7660:	f04f 0001 	mov.w	r0, #1
    7664:	4619      	mov	r1, r3
    7666:	f04f 0200 	mov.w	r2, #0
    766a:	f7fd fcf9 	bl	5060 <CreatEvent>
    766e:	60f8      	str	r0, [r7, #12]
    7670:	68fb      	ldr	r3, [r7, #12]
    7672:	2b00      	cmp	r3, #0
    7674:	d102      	bne.n	767c <CoCreateSem+0x50>
    7676:	f04f 03ff 	mov.w	r3, #255	; 0xff
    767a:	e007      	b.n	768c <CoCreateSem+0x60>
    767c:	68fb      	ldr	r3, [r7, #12]
    767e:	88fa      	ldrh	r2, [r7, #6]
    7680:	80da      	strh	r2, [r3, #6]
    7682:	68fb      	ldr	r3, [r7, #12]
    7684:	88ba      	ldrh	r2, [r7, #4]
    7686:	811a      	strh	r2, [r3, #8]
    7688:	68fb      	ldr	r3, [r7, #12]
    768a:	791b      	ldrb	r3, [r3, #4]
    768c:	4618      	mov	r0, r3
    768e:	f107 0710 	add.w	r7, r7, #16
    7692:	46bd      	mov	sp, r7
    7694:	bd80      	pop	{r7, pc}
    7696:	bf00      	nop

00007698 <CoDelSem>:
    7698:	b580      	push	{r7, lr}
    769a:	b084      	sub	sp, #16
    769c:	af00      	add	r7, sp, #0
    769e:	4602      	mov	r2, r0
    76a0:	460b      	mov	r3, r1
    76a2:	71fa      	strb	r2, [r7, #7]
    76a4:	71bb      	strb	r3, [r7, #6]
    76a6:	79fb      	ldrb	r3, [r7, #7]
    76a8:	2b13      	cmp	r3, #19
    76aa:	d902      	bls.n	76b2 <CoDelSem+0x1a>
    76ac:	f04f 0301 	mov.w	r3, #1
    76b0:	e015      	b.n	76de <CoDelSem+0x46>
    76b2:	79fb      	ldrb	r3, [r7, #7]
    76b4:	ea4f 1203 	mov.w	r2, r3, lsl #4
    76b8:	4b0b      	ldr	r3, [pc, #44]	; (76e8 <CoDelSem+0x50>)
    76ba:	18d3      	adds	r3, r2, r3
    76bc:	60fb      	str	r3, [r7, #12]
    76be:	68fb      	ldr	r3, [r7, #12]
    76c0:	795b      	ldrb	r3, [r3, #5]
    76c2:	f003 030f 	and.w	r3, r3, #15
    76c6:	b2db      	uxtb	r3, r3
    76c8:	2b01      	cmp	r3, #1
    76ca:	d002      	beq.n	76d2 <CoDelSem+0x3a>
    76cc:	f04f 0301 	mov.w	r3, #1
    76d0:	e005      	b.n	76de <CoDelSem+0x46>
    76d2:	79bb      	ldrb	r3, [r7, #6]
    76d4:	68f8      	ldr	r0, [r7, #12]
    76d6:	4619      	mov	r1, r3
    76d8:	f7fd fd0a 	bl	50f0 <DeleteEvent>
    76dc:	4603      	mov	r3, r0
    76de:	4618      	mov	r0, r3
    76e0:	f107 0710 	add.w	r7, r7, #16
    76e4:	46bd      	mov	sp, r7
    76e6:	bd80      	pop	{r7, pc}
    76e8:	20003a44 	.word	0x20003a44

000076ec <CoPendSem>:
    76ec:	b580      	push	{r7, lr}
    76ee:	b084      	sub	sp, #16
    76f0:	af00      	add	r7, sp, #0
    76f2:	4603      	mov	r3, r0
    76f4:	6039      	str	r1, [r7, #0]
    76f6:	71fb      	strb	r3, [r7, #7]
    76f8:	4b3a      	ldr	r3, [pc, #232]	; (77e4 <CoPendSem+0xf8>)
    76fa:	781b      	ldrb	r3, [r3, #0]
    76fc:	b2db      	uxtb	r3, r3
    76fe:	2b00      	cmp	r3, #0
    7700:	d002      	beq.n	7708 <CoPendSem+0x1c>
    7702:	f04f 0303 	mov.w	r3, #3
    7706:	e067      	b.n	77d8 <CoPendSem+0xec>
    7708:	79fb      	ldrb	r3, [r7, #7]
    770a:	2b13      	cmp	r3, #19
    770c:	d902      	bls.n	7714 <CoPendSem+0x28>
    770e:	f04f 0301 	mov.w	r3, #1
    7712:	e061      	b.n	77d8 <CoPendSem+0xec>
    7714:	79fb      	ldrb	r3, [r7, #7]
    7716:	ea4f 1203 	mov.w	r2, r3, lsl #4
    771a:	4b33      	ldr	r3, [pc, #204]	; (77e8 <CoPendSem+0xfc>)
    771c:	18d3      	adds	r3, r2, r3
    771e:	60fb      	str	r3, [r7, #12]
    7720:	68fb      	ldr	r3, [r7, #12]
    7722:	795b      	ldrb	r3, [r3, #5]
    7724:	f003 030f 	and.w	r3, r3, #15
    7728:	b2db      	uxtb	r3, r3
    772a:	2b01      	cmp	r3, #1
    772c:	d002      	beq.n	7734 <CoPendSem+0x48>
    772e:	f04f 0301 	mov.w	r3, #1
    7732:	e051      	b.n	77d8 <CoPendSem+0xec>
    7734:	4b2d      	ldr	r3, [pc, #180]	; (77ec <CoPendSem+0x100>)
    7736:	781b      	ldrb	r3, [r3, #0]
    7738:	b2db      	uxtb	r3, r3
    773a:	2b00      	cmp	r3, #0
    773c:	d002      	beq.n	7744 <CoPendSem+0x58>
    773e:	f04f 0315 	mov.w	r3, #21
    7742:	e049      	b.n	77d8 <CoPendSem+0xec>
    7744:	4b29      	ldr	r3, [pc, #164]	; (77ec <CoPendSem+0x100>)
    7746:	781b      	ldrb	r3, [r3, #0]
    7748:	b2db      	uxtb	r3, r3
    774a:	f103 0301 	add.w	r3, r3, #1
    774e:	b2da      	uxtb	r2, r3
    7750:	4b26      	ldr	r3, [pc, #152]	; (77ec <CoPendSem+0x100>)
    7752:	701a      	strb	r2, [r3, #0]
    7754:	68fb      	ldr	r3, [r7, #12]
    7756:	88db      	ldrh	r3, [r3, #6]
    7758:	2b00      	cmp	r3, #0
    775a:	d00b      	beq.n	7774 <CoPendSem+0x88>
    775c:	68fb      	ldr	r3, [r7, #12]
    775e:	88db      	ldrh	r3, [r3, #6]
    7760:	f103 33ff 	add.w	r3, r3, #4294967295
    7764:	b29a      	uxth	r2, r3
    7766:	68fb      	ldr	r3, [r7, #12]
    7768:	80da      	strh	r2, [r3, #6]
    776a:	f7fa f89b 	bl	18a4 <OsSchedUnlock>
    776e:	f04f 0300 	mov.w	r3, #0
    7772:	e031      	b.n	77d8 <CoPendSem+0xec>
    7774:	f7fa f896 	bl	18a4 <OsSchedUnlock>
    7778:	4b1d      	ldr	r3, [pc, #116]	; (77f0 <CoPendSem+0x104>)
    777a:	681b      	ldr	r3, [r3, #0]
    777c:	60bb      	str	r3, [r7, #8]
    777e:	683b      	ldr	r3, [r7, #0]
    7780:	2b00      	cmp	r3, #0
    7782:	d10a      	bne.n	779a <CoPendSem+0xae>
    7784:	68f8      	ldr	r0, [r7, #12]
    7786:	68b9      	ldr	r1, [r7, #8]
    7788:	f7fd fcfe 	bl	5188 <EventTaskToWait>
    778c:	68bb      	ldr	r3, [r7, #8]
    778e:	f04f 0200 	mov.w	r2, #0
    7792:	611a      	str	r2, [r3, #16]
    7794:	f04f 0300 	mov.w	r3, #0
    7798:	e01e      	b.n	77d8 <CoPendSem+0xec>
    779a:	4b14      	ldr	r3, [pc, #80]	; (77ec <CoPendSem+0x100>)
    779c:	781b      	ldrb	r3, [r3, #0]
    779e:	b2db      	uxtb	r3, r3
    77a0:	f103 0301 	add.w	r3, r3, #1
    77a4:	b2da      	uxtb	r2, r3
    77a6:	4b11      	ldr	r3, [pc, #68]	; (77ec <CoPendSem+0x100>)
    77a8:	701a      	strb	r2, [r3, #0]
    77aa:	68f8      	ldr	r0, [r7, #12]
    77ac:	68b9      	ldr	r1, [r7, #8]
    77ae:	f7fd fceb 	bl	5188 <EventTaskToWait>
    77b2:	68b8      	ldr	r0, [r7, #8]
    77b4:	6839      	ldr	r1, [r7, #0]
    77b6:	f7fc fbbb 	bl	3f30 <InsertDelayList>
    77ba:	f7fa f873 	bl	18a4 <OsSchedUnlock>
    77be:	68bb      	ldr	r3, [r7, #8]
    77c0:	691b      	ldr	r3, [r3, #16]
    77c2:	2b00      	cmp	r3, #0
    77c4:	d102      	bne.n	77cc <CoPendSem+0xe0>
    77c6:	f04f 0305 	mov.w	r3, #5
    77ca:	e005      	b.n	77d8 <CoPendSem+0xec>
    77cc:	68bb      	ldr	r3, [r7, #8]
    77ce:	f04f 0200 	mov.w	r2, #0
    77d2:	611a      	str	r2, [r3, #16]
    77d4:	f04f 0300 	mov.w	r3, #0
    77d8:	4618      	mov	r0, r3
    77da:	f107 0710 	add.w	r7, r7, #16
    77de:	46bd      	mov	sp, r7
    77e0:	bd80      	pop	{r7, pc}
    77e2:	bf00      	nop
    77e4:	20000981 	.word	0x20000981
    77e8:	20003a44 	.word	0x20003a44
    77ec:	20000982 	.word	0x20000982
    77f0:	20003790 	.word	0x20003790

000077f4 <CoPostSem>:
    77f4:	b580      	push	{r7, lr}
    77f6:	b084      	sub	sp, #16
    77f8:	af00      	add	r7, sp, #0
    77fa:	4603      	mov	r3, r0
    77fc:	71fb      	strb	r3, [r7, #7]
    77fe:	79fb      	ldrb	r3, [r7, #7]
    7800:	2b13      	cmp	r3, #19
    7802:	d902      	bls.n	780a <CoPostSem+0x16>
    7804:	f04f 0301 	mov.w	r3, #1
    7808:	e02e      	b.n	7868 <CoPostSem+0x74>
    780a:	79fb      	ldrb	r3, [r7, #7]
    780c:	ea4f 1203 	mov.w	r2, r3, lsl #4
    7810:	4b18      	ldr	r3, [pc, #96]	; (7874 <CoPostSem+0x80>)
    7812:	18d3      	adds	r3, r2, r3
    7814:	60fb      	str	r3, [r7, #12]
    7816:	68fb      	ldr	r3, [r7, #12]
    7818:	795b      	ldrb	r3, [r3, #5]
    781a:	f003 030f 	and.w	r3, r3, #15
    781e:	b2db      	uxtb	r3, r3
    7820:	2b01      	cmp	r3, #1
    7822:	d002      	beq.n	782a <CoPostSem+0x36>
    7824:	f04f 0301 	mov.w	r3, #1
    7828:	e01e      	b.n	7868 <CoPostSem+0x74>
    782a:	68fb      	ldr	r3, [r7, #12]
    782c:	88da      	ldrh	r2, [r3, #6]
    782e:	68fb      	ldr	r3, [r7, #12]
    7830:	891b      	ldrh	r3, [r3, #8]
    7832:	429a      	cmp	r2, r3
    7834:	d102      	bne.n	783c <CoPostSem+0x48>
    7836:	f04f 0306 	mov.w	r3, #6
    783a:	e015      	b.n	7868 <CoPostSem+0x74>
    783c:	4b0e      	ldr	r3, [pc, #56]	; (7878 <CoPostSem+0x84>)
    783e:	781b      	ldrb	r3, [r3, #0]
    7840:	b2db      	uxtb	r3, r3
    7842:	f103 0301 	add.w	r3, r3, #1
    7846:	b2da      	uxtb	r2, r3
    7848:	4b0b      	ldr	r3, [pc, #44]	; (7878 <CoPostSem+0x84>)
    784a:	701a      	strb	r2, [r3, #0]
    784c:	68fb      	ldr	r3, [r7, #12]
    784e:	88db      	ldrh	r3, [r3, #6]
    7850:	f103 0301 	add.w	r3, r3, #1
    7854:	b29a      	uxth	r2, r3
    7856:	68fb      	ldr	r3, [r7, #12]
    7858:	80da      	strh	r2, [r3, #6]
    785a:	68f8      	ldr	r0, [r7, #12]
    785c:	f7fd fd1a 	bl	5294 <EventTaskToRdy>
    7860:	f7fa f820 	bl	18a4 <OsSchedUnlock>
    7864:	f04f 0300 	mov.w	r3, #0
    7868:	4618      	mov	r0, r3
    786a:	f107 0710 	add.w	r7, r7, #16
    786e:	46bd      	mov	sp, r7
    7870:	bd80      	pop	{r7, pc}
    7872:	bf00      	nop
    7874:	20003a44 	.word	0x20003a44
    7878:	20000982 	.word	0x20000982

0000787c <CoIdleTask>:
    787c:	b480      	push	{r7}
    787e:	b083      	sub	sp, #12
    7880:	af00      	add	r7, sp, #0
    7882:	6078      	str	r0, [r7, #4]
    7884:	e7fe      	b.n	7884 <CoIdleTask+0x8>
    7886:	bf00      	nop

00007888 <CoStkOverflowHook>:
    7888:	b480      	push	{r7}
    788a:	b083      	sub	sp, #12
    788c:	af00      	add	r7, sp, #0
    788e:	4603      	mov	r3, r0
    7890:	71fb      	strb	r3, [r7, #7]
    7892:	e7fe      	b.n	7892 <CoStkOverflowHook+0xa>

00007894 <tcp_output_set_header>:
    7894:	b590      	push	{r4, r7, lr}
    7896:	b087      	sub	sp, #28
    7898:	af00      	add	r7, sp, #0
    789a:	60f8      	str	r0, [r7, #12]
    789c:	60b9      	str	r1, [r7, #8]
    789e:	607a      	str	r2, [r7, #4]
    78a0:	603b      	str	r3, [r7, #0]
    78a2:	68bb      	ldr	r3, [r7, #8]
    78a4:	685b      	ldr	r3, [r3, #4]
    78a6:	617b      	str	r3, [r7, #20]
    78a8:	68fb      	ldr	r3, [r7, #12]
    78aa:	8b1b      	ldrh	r3, [r3, #24]
    78ac:	4618      	mov	r0, r3
    78ae:	f7fc fadb 	bl	3e68 <htons>
    78b2:	4603      	mov	r3, r0
    78b4:	461a      	mov	r2, r3
    78b6:	697b      	ldr	r3, [r7, #20]
    78b8:	801a      	strh	r2, [r3, #0]
    78ba:	68fb      	ldr	r3, [r7, #12]
    78bc:	8c1b      	ldrh	r3, [r3, #32]
    78be:	4618      	mov	r0, r3
    78c0:	f7fc fad2 	bl	3e68 <htons>
    78c4:	4603      	mov	r3, r0
    78c6:	461a      	mov	r2, r3
    78c8:	697b      	ldr	r3, [r7, #20]
    78ca:	805a      	strh	r2, [r3, #2]
    78cc:	697b      	ldr	r3, [r7, #20]
    78ce:	683a      	ldr	r2, [r7, #0]
    78d0:	605a      	str	r2, [r3, #4]
    78d2:	68fb      	ldr	r3, [r7, #12]
    78d4:	6a5b      	ldr	r3, [r3, #36]	; 0x24
    78d6:	4618      	mov	r0, r3
    78d8:	f7fc faee 	bl	3eb8 <htonl>
    78dc:	4602      	mov	r2, r0
    78de:	697b      	ldr	r3, [r7, #20]
    78e0:	609a      	str	r2, [r3, #8]
    78e2:	697b      	ldr	r3, [r7, #20]
    78e4:	899b      	ldrh	r3, [r3, #12]
    78e6:	b29c      	uxth	r4, r3
    78e8:	f64f 70c0 	movw	r0, #65472	; 0xffc0
    78ec:	f7fc fabc 	bl	3e68 <htons>
    78f0:	4603      	mov	r3, r0
    78f2:	ea04 0303 	and.w	r3, r4, r3
    78f6:	b29c      	uxth	r4, r3
    78f8:	f04f 0010 	mov.w	r0, #16
    78fc:	f7fc fab4 	bl	3e68 <htons>
    7900:	4603      	mov	r3, r0
    7902:	ea44 0303 	orr.w	r3, r4, r3
    7906:	b29a      	uxth	r2, r3
    7908:	697b      	ldr	r3, [r7, #20]
    790a:	819a      	strh	r2, [r3, #12]
    790c:	68fb      	ldr	r3, [r7, #12]
    790e:	8d5b      	ldrh	r3, [r3, #42]	; 0x2a
    7910:	4618      	mov	r0, r3
    7912:	f7fc faa9 	bl	3e68 <htons>
    7916:	4603      	mov	r3, r0
    7918:	461a      	mov	r2, r3
    791a:	697b      	ldr	r3, [r7, #20]
    791c:	81da      	strh	r2, [r3, #14]
    791e:	697b      	ldr	r3, [r7, #20]
    7920:	f04f 0200 	mov.w	r2, #0
    7924:	749a      	strb	r2, [r3, #18]
    7926:	f04f 0200 	mov.w	r2, #0
    792a:	74da      	strb	r2, [r3, #19]
    792c:	687b      	ldr	r3, [r7, #4]
    792e:	2b00      	cmp	r3, #0
    7930:	da01      	bge.n	7936 <tcp_output_set_header+0xa2>
    7932:	f103 0303 	add.w	r3, r3, #3
    7936:	ea4f 03a3 	mov.w	r3, r3, asr #2
    793a:	b29b      	uxth	r3, r3
    793c:	f103 0305 	add.w	r3, r3, #5
    7940:	b29b      	uxth	r3, r3
    7942:	ea4f 3303 	mov.w	r3, r3, lsl #12
    7946:	b29c      	uxth	r4, r3
    7948:	697b      	ldr	r3, [r7, #20]
    794a:	899b      	ldrh	r3, [r3, #12]
    794c:	b29b      	uxth	r3, r3
    794e:	4618      	mov	r0, r3
    7950:	f7fc faa2 	bl	3e98 <ntohs>
    7954:	4603      	mov	r3, r0
    7956:	f003 033f 	and.w	r3, r3, #63	; 0x3f
    795a:	b29b      	uxth	r3, r3
    795c:	ea44 0303 	orr.w	r3, r4, r3
    7960:	b29b      	uxth	r3, r3
    7962:	4618      	mov	r0, r3
    7964:	f7fc fa80 	bl	3e68 <htons>
    7968:	4603      	mov	r3, r0
    796a:	461a      	mov	r2, r3
    796c:	697b      	ldr	r3, [r7, #20]
    796e:	819a      	strh	r2, [r3, #12]
    7970:	697b      	ldr	r3, [r7, #20]
    7972:	f04f 0200 	mov.w	r2, #0
    7976:	741a      	strb	r2, [r3, #16]
    7978:	f04f 0200 	mov.w	r2, #0
    797c:	745a      	strb	r2, [r3, #17]
    797e:	68fb      	ldr	r3, [r7, #12]
    7980:	6a5a      	ldr	r2, [r3, #36]	; 0x24
    7982:	68fb      	ldr	r3, [r7, #12]
    7984:	8d5b      	ldrh	r3, [r3, #42]	; 0x2a
    7986:	18d2      	adds	r2, r2, r3
    7988:	68fb      	ldr	r3, [r7, #12]
    798a:	62da      	str	r2, [r3, #44]	; 0x2c
    798c:	697b      	ldr	r3, [r7, #20]
    798e:	4618      	mov	r0, r3
    7990:	f107 071c 	add.w	r7, r7, #28
    7994:	46bd      	mov	sp, r7
    7996:	bd90      	pop	{r4, r7, pc}

00007998 <tcp_send_ctrl>:
    7998:	b580      	push	{r7, lr}
    799a:	b084      	sub	sp, #16
    799c:	af02      	add	r7, sp, #8
    799e:	6078      	str	r0, [r7, #4]
    79a0:	460b      	mov	r3, r1
    79a2:	70fb      	strb	r3, [r7, #3]
    79a4:	78fb      	ldrb	r3, [r7, #3]
    79a6:	f04f 0201 	mov.w	r2, #1
    79aa:	9200      	str	r2, [sp, #0]
    79ac:	f04f 0200 	mov.w	r2, #0
    79b0:	9201      	str	r2, [sp, #4]
    79b2:	6878      	ldr	r0, [r7, #4]
    79b4:	f04f 0100 	mov.w	r1, #0
    79b8:	f04f 0200 	mov.w	r2, #0
    79bc:	f000 f84a 	bl	7a54 <tcp_enqueue>
    79c0:	4603      	mov	r3, r0
    79c2:	4618      	mov	r0, r3
    79c4:	f107 0708 	add.w	r7, r7, #8
    79c8:	46bd      	mov	sp, r7
    79ca:	bd80      	pop	{r7, pc}

000079cc <tcp_write>:
    79cc:	b580      	push	{r7, lr}
    79ce:	b086      	sub	sp, #24
    79d0:	af02      	add	r7, sp, #8
    79d2:	60f8      	str	r0, [r7, #12]
    79d4:	60b9      	str	r1, [r7, #8]
    79d6:	80fa      	strh	r2, [r7, #6]
    79d8:	717b      	strb	r3, [r7, #5]
    79da:	88fb      	ldrh	r3, [r7, #6]
    79dc:	797a      	ldrb	r2, [r7, #5]
    79de:	9200      	str	r2, [sp, #0]
    79e0:	481a      	ldr	r0, [pc, #104]	; (7a4c <tcp_write+0x80>)
    79e2:	68f9      	ldr	r1, [r7, #12]
    79e4:	68ba      	ldr	r2, [r7, #8]
    79e6:	f7fd ff89 	bl	58fc <DebugPrintf>
    79ea:	68fb      	ldr	r3, [r7, #12]
    79ec:	7c1b      	ldrb	r3, [r3, #16]
    79ee:	2b04      	cmp	r3, #4
    79f0:	d00b      	beq.n	7a0a <tcp_write+0x3e>
    79f2:	68fb      	ldr	r3, [r7, #12]
    79f4:	7c1b      	ldrb	r3, [r3, #16]
    79f6:	2b07      	cmp	r3, #7
    79f8:	d007      	beq.n	7a0a <tcp_write+0x3e>
    79fa:	68fb      	ldr	r3, [r7, #12]
    79fc:	7c1b      	ldrb	r3, [r3, #16]
    79fe:	2b02      	cmp	r3, #2
    7a00:	d003      	beq.n	7a0a <tcp_write+0x3e>
    7a02:	68fb      	ldr	r3, [r7, #12]
    7a04:	7c1b      	ldrb	r3, [r3, #16]
    7a06:	2b03      	cmp	r3, #3
    7a08:	d114      	bne.n	7a34 <tcp_write+0x68>
    7a0a:	88fb      	ldrh	r3, [r7, #6]
    7a0c:	2b00      	cmp	r3, #0
    7a0e:	d00e      	beq.n	7a2e <tcp_write+0x62>
    7a10:	88fb      	ldrh	r3, [r7, #6]
    7a12:	797a      	ldrb	r2, [r7, #5]
    7a14:	9200      	str	r2, [sp, #0]
    7a16:	f04f 0200 	mov.w	r2, #0
    7a1a:	9201      	str	r2, [sp, #4]
    7a1c:	68f8      	ldr	r0, [r7, #12]
    7a1e:	68b9      	ldr	r1, [r7, #8]
    7a20:	461a      	mov	r2, r3
    7a22:	f04f 0300 	mov.w	r3, #0
    7a26:	f000 f815 	bl	7a54 <tcp_enqueue>
    7a2a:	4603      	mov	r3, r0
    7a2c:	e007      	b.n	7a3e <tcp_write+0x72>
    7a2e:	f04f 0300 	mov.w	r3, #0
    7a32:	e004      	b.n	7a3e <tcp_write+0x72>
    7a34:	4806      	ldr	r0, [pc, #24]	; (7a50 <tcp_write+0x84>)
    7a36:	f7fd ff61 	bl	58fc <DebugPrintf>
    7a3a:	f04f 03f8 	mov.w	r3, #248	; 0xf8
    7a3e:	b25b      	sxtb	r3, r3
    7a40:	4618      	mov	r0, r3
    7a42:	f107 0710 	add.w	r7, r7, #16
    7a46:	46bd      	mov	sp, r7
    7a48:	bd80      	pop	{r7, pc}
    7a4a:	bf00      	nop
    7a4c:	0000a1b4 	.word	0x0000a1b4
    7a50:	0000a1e8 	.word	0x0000a1e8

00007a54 <tcp_enqueue>:
    7a54:	b5f0      	push	{r4, r5, r6, r7, lr}
    7a56:	b091      	sub	sp, #68	; 0x44
    7a58:	af02      	add	r7, sp, #8
    7a5a:	60f8      	str	r0, [r7, #12]
    7a5c:	60b9      	str	r1, [r7, #8]
    7a5e:	80fa      	strh	r2, [r7, #6]
    7a60:	717b      	strb	r3, [r7, #5]
    7a62:	88fb      	ldrh	r3, [r7, #6]
    7a64:	7979      	ldrb	r1, [r7, #5]
    7a66:	f897 2050 	ldrb.w	r2, [r7, #80]	; 0x50
    7a6a:	9100      	str	r1, [sp, #0]
    7a6c:	9201      	str	r2, [sp, #4]
    7a6e:	488c      	ldr	r0, [pc, #560]	; (7ca0 <tcp_enqueue+0x24c>)
    7a70:	68f9      	ldr	r1, [r7, #12]
    7a72:	68ba      	ldr	r2, [r7, #8]
    7a74:	f7fd ff42 	bl	58fc <DebugPrintf>
    7a78:	88fb      	ldrh	r3, [r7, #6]
    7a7a:	2b00      	cmp	r3, #0
    7a7c:	d10b      	bne.n	7a96 <tcp_enqueue+0x42>
    7a7e:	f897 3054 	ldrb.w	r3, [r7, #84]	; 0x54
    7a82:	2b00      	cmp	r3, #0
    7a84:	d107      	bne.n	7a96 <tcp_enqueue+0x42>
    7a86:	797b      	ldrb	r3, [r7, #5]
    7a88:	f003 0303 	and.w	r3, r3, #3
    7a8c:	2b00      	cmp	r3, #0
    7a8e:	d102      	bne.n	7a96 <tcp_enqueue+0x42>
    7a90:	f04f 03f6 	mov.w	r3, #246	; 0xf6
    7a94:	e392      	b.n	81bc <tcp_enqueue+0x768>
    7a96:	88fb      	ldrh	r3, [r7, #6]
    7a98:	2b00      	cmp	r3, #0
    7a9a:	d105      	bne.n	7aa8 <tcp_enqueue+0x54>
    7a9c:	68bb      	ldr	r3, [r7, #8]
    7a9e:	2b00      	cmp	r3, #0
    7aa0:	d002      	beq.n	7aa8 <tcp_enqueue+0x54>
    7aa2:	f04f 03f6 	mov.w	r3, #246	; 0xf6
    7aa6:	e389      	b.n	81bc <tcp_enqueue+0x768>
    7aa8:	68fb      	ldr	r3, [r7, #12]
    7aaa:	f8b3 306e 	ldrh.w	r3, [r3, #110]	; 0x6e
    7aae:	88fa      	ldrh	r2, [r7, #6]
    7ab0:	429a      	cmp	r2, r3
    7ab2:	d914      	bls.n	7ade <tcp_enqueue+0x8a>
    7ab4:	88fa      	ldrh	r2, [r7, #6]
    7ab6:	68fb      	ldr	r3, [r7, #12]
    7ab8:	f8b3 306e 	ldrh.w	r3, [r3, #110]	; 0x6e
    7abc:	4879      	ldr	r0, [pc, #484]	; (7ca4 <tcp_enqueue+0x250>)
    7abe:	4611      	mov	r1, r2
    7ac0:	461a      	mov	r2, r3
    7ac2:	f7fd ff1b 	bl	58fc <DebugPrintf>
    7ac6:	68fb      	ldr	r3, [r7, #12]
    7ac8:	f893 3022 	ldrb.w	r3, [r3, #34]	; 0x22
    7acc:	f063 037f 	orn	r3, r3, #127	; 0x7f
    7ad0:	b2da      	uxtb	r2, r3
    7ad2:	68fb      	ldr	r3, [r7, #12]
    7ad4:	f883 2022 	strb.w	r2, [r3, #34]	; 0x22
    7ad8:	f04f 03ff 	mov.w	r3, #255	; 0xff
    7adc:	e36e      	b.n	81bc <tcp_enqueue+0x768>
    7ade:	88fb      	ldrh	r3, [r7, #6]
    7ae0:	84fb      	strh	r3, [r7, #38]	; 0x26
    7ae2:	68bb      	ldr	r3, [r7, #8]
    7ae4:	623b      	str	r3, [r7, #32]
    7ae6:	f897 3054 	ldrb.w	r3, [r7, #84]	; 0x54
    7aea:	f003 0301 	and.w	r3, r3, #1
    7aee:	b2db      	uxtb	r3, r3
    7af0:	2b00      	cmp	r3, #0
    7af2:	d002      	beq.n	7afa <tcp_enqueue+0xa6>
    7af4:	f04f 0204 	mov.w	r2, #4
    7af8:	e001      	b.n	7afe <tcp_enqueue+0xaa>
    7afa:	f04f 0200 	mov.w	r2, #0
    7afe:	f897 3054 	ldrb.w	r3, [r7, #84]	; 0x54
    7b02:	f003 0302 	and.w	r3, r3, #2
    7b06:	2b00      	cmp	r3, #0
    7b08:	d002      	beq.n	7b10 <tcp_enqueue+0xbc>
    7b0a:	f04f 030c 	mov.w	r3, #12
    7b0e:	e001      	b.n	7b14 <tcp_enqueue+0xc0>
    7b10:	f04f 0300 	mov.w	r3, #0
    7b14:	18d3      	adds	r3, r2, r3
    7b16:	777b      	strb	r3, [r7, #29]
    7b18:	68fb      	ldr	r3, [r7, #12]
    7b1a:	6e9b      	ldr	r3, [r3, #104]	; 0x68
    7b1c:	62bb      	str	r3, [r7, #40]	; 0x28
    7b1e:	68fb      	ldr	r3, [r7, #12]
    7b20:	f8b3 3070 	ldrh.w	r3, [r3, #112]	; 0x70
    7b24:	4860      	ldr	r0, [pc, #384]	; (7ca8 <tcp_enqueue+0x254>)
    7b26:	4619      	mov	r1, r3
    7b28:	f7fd fee8 	bl	58fc <DebugPrintf>
    7b2c:	68fb      	ldr	r3, [r7, #12]
    7b2e:	f8b3 3070 	ldrh.w	r3, [r3, #112]	; 0x70
    7b32:	83fb      	strh	r3, [r7, #30]
    7b34:	8bfb      	ldrh	r3, [r7, #30]
    7b36:	2b0f      	cmp	r3, #15
    7b38:	d804      	bhi.n	7b44 <tcp_enqueue+0xf0>
    7b3a:	8bfa      	ldrh	r2, [r7, #30]
    7b3c:	f64f 73fc 	movw	r3, #65532	; 0xfffc
    7b40:	429a      	cmp	r2, r3
    7b42:	d91b      	bls.n	7b7c <tcp_enqueue+0x128>
    7b44:	8bfb      	ldrh	r3, [r7, #30]
    7b46:	4859      	ldr	r0, [pc, #356]	; (7cac <tcp_enqueue+0x258>)
    7b48:	4619      	mov	r1, r3
    7b4a:	f04f 0210 	mov.w	r2, #16
    7b4e:	f7fd fed5 	bl	58fc <DebugPrintf>
    7b52:	4b57      	ldr	r3, [pc, #348]	; (7cb0 <tcp_enqueue+0x25c>)
    7b54:	f8b3 3084 	ldrh.w	r3, [r3, #132]	; 0x84
    7b58:	f103 0301 	add.w	r3, r3, #1
    7b5c:	b29a      	uxth	r2, r3
    7b5e:	4b54      	ldr	r3, [pc, #336]	; (7cb0 <tcp_enqueue+0x25c>)
    7b60:	f8a3 2084 	strh.w	r2, [r3, #132]	; 0x84
    7b64:	68fb      	ldr	r3, [r7, #12]
    7b66:	f893 3022 	ldrb.w	r3, [r3, #34]	; 0x22
    7b6a:	f063 037f 	orn	r3, r3, #127	; 0x7f
    7b6e:	b2da      	uxtb	r2, r3
    7b70:	68fb      	ldr	r3, [r7, #12]
    7b72:	f883 2022 	strb.w	r2, [r3, #34]	; 0x22
    7b76:	f04f 03ff 	mov.w	r3, #255	; 0xff
    7b7a:	e31f      	b.n	81bc <tcp_enqueue+0x768>
    7b7c:	8bfb      	ldrh	r3, [r7, #30]
    7b7e:	2b00      	cmp	r3, #0
    7b80:	d003      	beq.n	7b8a <tcp_enqueue+0x136>
    7b82:	68fb      	ldr	r3, [r7, #12]
    7b84:	6f9b      	ldr	r3, [r3, #120]	; 0x78
    7b86:	2b00      	cmp	r3, #0
    7b88:	e002      	b.n	7b90 <tcp_enqueue+0x13c>
    7b8a:	68fb      	ldr	r3, [r7, #12]
    7b8c:	6f9b      	ldr	r3, [r3, #120]	; 0x78
    7b8e:	2b00      	cmp	r3, #0
    7b90:	f04f 0300 	mov.w	r3, #0
    7b94:	637b      	str	r3, [r7, #52]	; 0x34
    7b96:	6b7b      	ldr	r3, [r7, #52]	; 0x34
    7b98:	62fb      	str	r3, [r7, #44]	; 0x2c
    7b9a:	6afb      	ldr	r3, [r7, #44]	; 0x2c
    7b9c:	633b      	str	r3, [r7, #48]	; 0x30
    7b9e:	f04f 0300 	mov.w	r3, #0
    7ba2:	84bb      	strh	r3, [r7, #36]	; 0x24
    7ba4:	e183      	b.n	7eae <tcp_enqueue+0x45a>
    7ba6:	8cfa      	ldrh	r2, [r7, #38]	; 0x26
    7ba8:	68fb      	ldr	r3, [r7, #12]
    7baa:	8f1b      	ldrh	r3, [r3, #56]	; 0x38
    7bac:	4619      	mov	r1, r3
    7bae:	7f7b      	ldrb	r3, [r7, #29]
    7bb0:	1acb      	subs	r3, r1, r3
    7bb2:	429a      	cmp	r2, r3
    7bb4:	bfb8      	it	lt
    7bb6:	4613      	movlt	r3, r2
    7bb8:	84bb      	strh	r3, [r7, #36]	; 0x24
    7bba:	f04f 0004 	mov.w	r0, #4
    7bbe:	f7fa faf7 	bl	21b0 <memp_malloc>
    7bc2:	4603      	mov	r3, r0
    7bc4:	637b      	str	r3, [r7, #52]	; 0x34
    7bc6:	6b7b      	ldr	r3, [r7, #52]	; 0x34
    7bc8:	2b00      	cmp	r3, #0
    7bca:	d103      	bne.n	7bd4 <tcp_enqueue+0x180>
    7bcc:	4839      	ldr	r0, [pc, #228]	; (7cb4 <tcp_enqueue+0x260>)
    7bce:	f7fd fe95 	bl	58fc <DebugPrintf>
    7bd2:	e2ca      	b.n	816a <tcp_enqueue+0x716>
    7bd4:	6b7b      	ldr	r3, [r7, #52]	; 0x34
    7bd6:	f04f 0200 	mov.w	r2, #0
    7bda:	601a      	str	r2, [r3, #0]
    7bdc:	6b7b      	ldr	r3, [r7, #52]	; 0x34
    7bde:	f04f 0200 	mov.w	r2, #0
    7be2:	605a      	str	r2, [r3, #4]
    7be4:	6afb      	ldr	r3, [r7, #44]	; 0x2c
    7be6:	2b00      	cmp	r3, #0
    7be8:	d102      	bne.n	7bf0 <tcp_enqueue+0x19c>
    7bea:	6b7b      	ldr	r3, [r7, #52]	; 0x34
    7bec:	62fb      	str	r3, [r7, #44]	; 0x2c
    7bee:	e002      	b.n	7bf6 <tcp_enqueue+0x1a2>
    7bf0:	6b3b      	ldr	r3, [r7, #48]	; 0x30
    7bf2:	6b7a      	ldr	r2, [r7, #52]	; 0x34
    7bf4:	601a      	str	r2, [r3, #0]
    7bf6:	6b7b      	ldr	r3, [r7, #52]	; 0x34
    7bf8:	633b      	str	r3, [r7, #48]	; 0x30
    7bfa:	f897 3050 	ldrb.w	r3, [r7, #80]	; 0x50
    7bfe:	f003 0301 	and.w	r3, r3, #1
    7c02:	b2db      	uxtb	r3, r3
    7c04:	2b00      	cmp	r3, #0
    7c06:	d036      	beq.n	7c76 <tcp_enqueue+0x222>
    7c08:	7f7b      	ldrb	r3, [r7, #29]
    7c0a:	b29a      	uxth	r2, r3
    7c0c:	8cbb      	ldrh	r3, [r7, #36]	; 0x24
    7c0e:	18d3      	adds	r3, r2, r3
    7c10:	b29b      	uxth	r3, r3
    7c12:	f04f 0000 	mov.w	r0, #0
    7c16:	4619      	mov	r1, r3
    7c18:	f04f 0200 	mov.w	r2, #0
    7c1c:	f7fb fdfc 	bl	3818 <pbuf_alloc>
    7c20:	4602      	mov	r2, r0
    7c22:	6b7b      	ldr	r3, [r7, #52]	; 0x34
    7c24:	605a      	str	r2, [r3, #4]
    7c26:	6b7b      	ldr	r3, [r7, #52]	; 0x34
    7c28:	685b      	ldr	r3, [r3, #4]
    7c2a:	2b00      	cmp	r3, #0
    7c2c:	d105      	bne.n	7c3a <tcp_enqueue+0x1e6>
    7c2e:	8cbb      	ldrh	r3, [r7, #36]	; 0x24
    7c30:	4821      	ldr	r0, [pc, #132]	; (7cb8 <tcp_enqueue+0x264>)
    7c32:	4619      	mov	r1, r3
    7c34:	f7fd fe62 	bl	58fc <DebugPrintf>
    7c38:	e297      	b.n	816a <tcp_enqueue+0x716>
    7c3a:	6b7b      	ldr	r3, [r7, #52]	; 0x34
    7c3c:	685b      	ldr	r3, [r3, #4]
    7c3e:	4618      	mov	r0, r3
    7c40:	f7fc f836 	bl	3cb0 <pbuf_clen>
    7c44:	4603      	mov	r3, r0
    7c46:	461a      	mov	r2, r3
    7c48:	8bfb      	ldrh	r3, [r7, #30]
    7c4a:	18d3      	adds	r3, r2, r3
    7c4c:	83fb      	strh	r3, [r7, #30]
    7c4e:	68bb      	ldr	r3, [r7, #8]
    7c50:	2b00      	cmp	r3, #0
    7c52:	d00a      	beq.n	7c6a <tcp_enqueue+0x216>
    7c54:	6b7b      	ldr	r3, [r7, #52]	; 0x34
    7c56:	685b      	ldr	r3, [r3, #4]
    7c58:	685a      	ldr	r2, [r3, #4]
    7c5a:	7f7b      	ldrb	r3, [r7, #29]
    7c5c:	18d2      	adds	r2, r2, r3
    7c5e:	8cbb      	ldrh	r3, [r7, #36]	; 0x24
    7c60:	4610      	mov	r0, r2
    7c62:	6a39      	ldr	r1, [r7, #32]
    7c64:	461a      	mov	r2, r3
    7c66:	f001 f909 	bl	8e7c <memcpy>
    7c6a:	6b7b      	ldr	r3, [r7, #52]	; 0x34
    7c6c:	685b      	ldr	r3, [r3, #4]
    7c6e:	685a      	ldr	r2, [r3, #4]
    7c70:	6b7b      	ldr	r3, [r7, #52]	; 0x34
    7c72:	609a      	str	r2, [r3, #8]
    7c74:	e05d      	b.n	7d32 <tcp_enqueue+0x2de>
    7c76:	7f7b      	ldrb	r3, [r7, #29]
    7c78:	b29b      	uxth	r3, r3
    7c7a:	f04f 0000 	mov.w	r0, #0
    7c7e:	4619      	mov	r1, r3
    7c80:	f04f 0200 	mov.w	r2, #0
    7c84:	f7fb fdc8 	bl	3818 <pbuf_alloc>
    7c88:	4602      	mov	r2, r0
    7c8a:	6b7b      	ldr	r3, [r7, #52]	; 0x34
    7c8c:	605a      	str	r2, [r3, #4]
    7c8e:	6b7b      	ldr	r3, [r7, #52]	; 0x34
    7c90:	685b      	ldr	r3, [r3, #4]
    7c92:	2b00      	cmp	r3, #0
    7c94:	d114      	bne.n	7cc0 <tcp_enqueue+0x26c>
    7c96:	4809      	ldr	r0, [pc, #36]	; (7cbc <tcp_enqueue+0x268>)
    7c98:	f7fd fe30 	bl	58fc <DebugPrintf>
    7c9c:	e265      	b.n	816a <tcp_enqueue+0x716>
    7c9e:	bf00      	nop
    7ca0:	0000a210 	.word	0x0000a210
    7ca4:	0000a24c 	.word	0x0000a24c
    7ca8:	0000a280 	.word	0x0000a280
    7cac:	0000a29c 	.word	0x0000a29c
    7cb0:	20004128 	.word	0x20004128
    7cb4:	0000a2c8 	.word	0x0000a2c8
    7cb8:	0000a2fc 	.word	0x0000a2fc
    7cbc:	0000a33c 	.word	0x0000a33c
    7cc0:	6b7b      	ldr	r3, [r7, #52]	; 0x34
    7cc2:	685b      	ldr	r3, [r3, #4]
    7cc4:	4618      	mov	r0, r3
    7cc6:	f7fb fff3 	bl	3cb0 <pbuf_clen>
    7cca:	4603      	mov	r3, r0
    7ccc:	461a      	mov	r2, r3
    7cce:	8bfb      	ldrh	r3, [r7, #30]
    7cd0:	18d3      	adds	r3, r2, r3
    7cd2:	83fb      	strh	r3, [r7, #30]
    7cd4:	8cfb      	ldrh	r3, [r7, #38]	; 0x26
    7cd6:	2b00      	cmp	r3, #0
    7cd8:	d02b      	beq.n	7d32 <tcp_enqueue+0x2de>
    7cda:	8cbb      	ldrh	r3, [r7, #36]	; 0x24
    7cdc:	f04f 0003 	mov.w	r0, #3
    7ce0:	4619      	mov	r1, r3
    7ce2:	f04f 0201 	mov.w	r2, #1
    7ce6:	f7fb fd97 	bl	3818 <pbuf_alloc>
    7cea:	61b8      	str	r0, [r7, #24]
    7cec:	69bb      	ldr	r3, [r7, #24]
    7cee:	2b00      	cmp	r3, #0
    7cf0:	d10c      	bne.n	7d0c <tcp_enqueue+0x2b8>
    7cf2:	6b7b      	ldr	r3, [r7, #52]	; 0x34
    7cf4:	685b      	ldr	r3, [r3, #4]
    7cf6:	4618      	mov	r0, r3
    7cf8:	f7fb ff64 	bl	3bc4 <pbuf_free>
    7cfc:	6b7b      	ldr	r3, [r7, #52]	; 0x34
    7cfe:	f04f 0200 	mov.w	r2, #0
    7d02:	605a      	str	r2, [r3, #4]
    7d04:	4874      	ldr	r0, [pc, #464]	; (7ed8 <tcp_enqueue+0x484>)
    7d06:	f7fd fdf9 	bl	58fc <DebugPrintf>
    7d0a:	e22e      	b.n	816a <tcp_enqueue+0x716>
    7d0c:	8bfb      	ldrh	r3, [r7, #30]
    7d0e:	f103 0301 	add.w	r3, r3, #1
    7d12:	83fb      	strh	r3, [r7, #30]
    7d14:	69bb      	ldr	r3, [r7, #24]
    7d16:	6a3a      	ldr	r2, [r7, #32]
    7d18:	605a      	str	r2, [r3, #4]
    7d1a:	6b7b      	ldr	r3, [r7, #52]	; 0x34
    7d1c:	6a3a      	ldr	r2, [r7, #32]
    7d1e:	609a      	str	r2, [r3, #8]
    7d20:	6b7b      	ldr	r3, [r7, #52]	; 0x34
    7d22:	685b      	ldr	r3, [r3, #4]
    7d24:	4618      	mov	r0, r3
    7d26:	69b9      	ldr	r1, [r7, #24]
    7d28:	f7fb ffdc 	bl	3ce4 <pbuf_cat>
    7d2c:	f04f 0300 	mov.w	r3, #0
    7d30:	61bb      	str	r3, [r7, #24]
    7d32:	8bfb      	ldrh	r3, [r7, #30]
    7d34:	2b10      	cmp	r3, #16
    7d36:	d804      	bhi.n	7d42 <tcp_enqueue+0x2ee>
    7d38:	8bfa      	ldrh	r2, [r7, #30]
    7d3a:	f64f 73fc 	movw	r3, #65532	; 0xfffc
    7d3e:	429a      	cmp	r2, r3
    7d40:	d907      	bls.n	7d52 <tcp_enqueue+0x2fe>
    7d42:	8bfb      	ldrh	r3, [r7, #30]
    7d44:	4865      	ldr	r0, [pc, #404]	; (7edc <tcp_enqueue+0x488>)
    7d46:	4619      	mov	r1, r3
    7d48:	f04f 0210 	mov.w	r2, #16
    7d4c:	f7fd fdd6 	bl	58fc <DebugPrintf>
    7d50:	e20b      	b.n	816a <tcp_enqueue+0x716>
    7d52:	6b7b      	ldr	r3, [r7, #52]	; 0x34
    7d54:	8cba      	ldrh	r2, [r7, #36]	; 0x24
    7d56:	819a      	strh	r2, [r3, #12]
    7d58:	6b7b      	ldr	r3, [r7, #52]	; 0x34
    7d5a:	685b      	ldr	r3, [r3, #4]
    7d5c:	4618      	mov	r0, r3
    7d5e:	f04f 0114 	mov.w	r1, #20
    7d62:	f7fb fe9f 	bl	3aa4 <pbuf_header>
    7d66:	4603      	mov	r3, r0
    7d68:	2b00      	cmp	r3, #0
    7d6a:	d00c      	beq.n	7d86 <tcp_enqueue+0x332>
    7d6c:	485c      	ldr	r0, [pc, #368]	; (7ee0 <tcp_enqueue+0x48c>)
    7d6e:	f7fd fdc5 	bl	58fc <DebugPrintf>
    7d72:	4b5c      	ldr	r3, [pc, #368]	; (7ee4 <tcp_enqueue+0x490>)
    7d74:	f8b3 308c 	ldrh.w	r3, [r3, #140]	; 0x8c
    7d78:	f103 0301 	add.w	r3, r3, #1
    7d7c:	b29a      	uxth	r2, r3
    7d7e:	4b59      	ldr	r3, [pc, #356]	; (7ee4 <tcp_enqueue+0x490>)
    7d80:	f8a3 208c 	strh.w	r2, [r3, #140]	; 0x8c
    7d84:	e1f1      	b.n	816a <tcp_enqueue+0x716>
    7d86:	6b7b      	ldr	r3, [r7, #52]	; 0x34
    7d88:	685b      	ldr	r3, [r3, #4]
    7d8a:	685b      	ldr	r3, [r3, #4]
    7d8c:	461a      	mov	r2, r3
    7d8e:	6b7b      	ldr	r3, [r7, #52]	; 0x34
    7d90:	611a      	str	r2, [r3, #16]
    7d92:	6b7b      	ldr	r3, [r7, #52]	; 0x34
    7d94:	691c      	ldr	r4, [r3, #16]
    7d96:	68fb      	ldr	r3, [r7, #12]
    7d98:	8b1b      	ldrh	r3, [r3, #24]
    7d9a:	4618      	mov	r0, r3
    7d9c:	f7fc f864 	bl	3e68 <htons>
    7da0:	4603      	mov	r3, r0
    7da2:	8023      	strh	r3, [r4, #0]
    7da4:	6b7b      	ldr	r3, [r7, #52]	; 0x34
    7da6:	691c      	ldr	r4, [r3, #16]
    7da8:	68fb      	ldr	r3, [r7, #12]
    7daa:	8c1b      	ldrh	r3, [r3, #32]
    7dac:	4618      	mov	r0, r3
    7dae:	f7fc f85b 	bl	3e68 <htons>
    7db2:	4603      	mov	r3, r0
    7db4:	8063      	strh	r3, [r4, #2]
    7db6:	6b7b      	ldr	r3, [r7, #52]	; 0x34
    7db8:	691c      	ldr	r4, [r3, #16]
    7dba:	6ab8      	ldr	r0, [r7, #40]	; 0x28
    7dbc:	f7fc f87c 	bl	3eb8 <htonl>
    7dc0:	4603      	mov	r3, r0
    7dc2:	6063      	str	r3, [r4, #4]
    7dc4:	6b7b      	ldr	r3, [r7, #52]	; 0x34
    7dc6:	691b      	ldr	r3, [r3, #16]
    7dc8:	f04f 0200 	mov.w	r2, #0
    7dcc:	749a      	strb	r2, [r3, #18]
    7dce:	f04f 0200 	mov.w	r2, #0
    7dd2:	74da      	strb	r2, [r3, #19]
    7dd4:	6b7b      	ldr	r3, [r7, #52]	; 0x34
    7dd6:	691c      	ldr	r4, [r3, #16]
    7dd8:	6b7b      	ldr	r3, [r7, #52]	; 0x34
    7dda:	691b      	ldr	r3, [r3, #16]
    7ddc:	899b      	ldrh	r3, [r3, #12]
    7dde:	b29d      	uxth	r5, r3
    7de0:	f64f 70c0 	movw	r0, #65472	; 0xffc0
    7de4:	f7fc f840 	bl	3e68 <htons>
    7de8:	4603      	mov	r3, r0
    7dea:	ea05 0303 	and.w	r3, r5, r3
    7dee:	b29d      	uxth	r5, r3
    7df0:	797b      	ldrb	r3, [r7, #5]
    7df2:	b29b      	uxth	r3, r3
    7df4:	4618      	mov	r0, r3
    7df6:	f7fc f837 	bl	3e68 <htons>
    7dfa:	4603      	mov	r3, r0
    7dfc:	ea45 0303 	orr.w	r3, r5, r3
    7e00:	b29b      	uxth	r3, r3
    7e02:	81a3      	strh	r3, [r4, #12]
    7e04:	6b7b      	ldr	r3, [r7, #52]	; 0x34
    7e06:	f897 2054 	ldrb.w	r2, [r7, #84]	; 0x54
    7e0a:	739a      	strb	r2, [r3, #14]
    7e0c:	6b7b      	ldr	r3, [r7, #52]	; 0x34
    7e0e:	691c      	ldr	r4, [r3, #16]
    7e10:	7f7b      	ldrb	r3, [r7, #29]
    7e12:	ea4f 0393 	mov.w	r3, r3, lsr #2
    7e16:	b2db      	uxtb	r3, r3
    7e18:	f103 0305 	add.w	r3, r3, #5
    7e1c:	b29b      	uxth	r3, r3
    7e1e:	ea4f 3303 	mov.w	r3, r3, lsl #12
    7e22:	b29d      	uxth	r5, r3
    7e24:	6b7b      	ldr	r3, [r7, #52]	; 0x34
    7e26:	691b      	ldr	r3, [r3, #16]
    7e28:	899b      	ldrh	r3, [r3, #12]
    7e2a:	b29b      	uxth	r3, r3
    7e2c:	4618      	mov	r0, r3
    7e2e:	f7fc f833 	bl	3e98 <ntohs>
    7e32:	4603      	mov	r3, r0
    7e34:	f003 033f 	and.w	r3, r3, #63	; 0x3f
    7e38:	b29b      	uxth	r3, r3
    7e3a:	ea45 0303 	orr.w	r3, r5, r3
    7e3e:	b29b      	uxth	r3, r3
    7e40:	4618      	mov	r0, r3
    7e42:	f7fc f811 	bl	3e68 <htons>
    7e46:	4603      	mov	r3, r0
    7e48:	81a3      	strh	r3, [r4, #12]
    7e4a:	6b7b      	ldr	r3, [r7, #52]	; 0x34
    7e4c:	691b      	ldr	r3, [r3, #16]
    7e4e:	685b      	ldr	r3, [r3, #4]
    7e50:	4618      	mov	r0, r3
    7e52:	f7fc f84f 	bl	3ef4 <ntohl>
    7e56:	4604      	mov	r4, r0
    7e58:	6b7b      	ldr	r3, [r7, #52]	; 0x34
    7e5a:	691b      	ldr	r3, [r3, #16]
    7e5c:	685b      	ldr	r3, [r3, #4]
    7e5e:	4618      	mov	r0, r3
    7e60:	f7fc f848 	bl	3ef4 <ntohl>
    7e64:	4605      	mov	r5, r0
    7e66:	6b7b      	ldr	r3, [r7, #52]	; 0x34
    7e68:	899b      	ldrh	r3, [r3, #12]
    7e6a:	461e      	mov	r6, r3
    7e6c:	6b7b      	ldr	r3, [r7, #52]	; 0x34
    7e6e:	691b      	ldr	r3, [r3, #16]
    7e70:	899b      	ldrh	r3, [r3, #12]
    7e72:	b29b      	uxth	r3, r3
    7e74:	4618      	mov	r0, r3
    7e76:	f7fc f80f 	bl	3e98 <ntohs>
    7e7a:	4603      	mov	r3, r0
    7e7c:	f003 0303 	and.w	r3, r3, #3
    7e80:	2b00      	cmp	r3, #0
    7e82:	bf0c      	ite	eq
    7e84:	2300      	moveq	r3, #0
    7e86:	2301      	movne	r3, #1
    7e88:	18f3      	adds	r3, r6, r3
    7e8a:	18ea      	adds	r2, r5, r3
    7e8c:	797b      	ldrb	r3, [r7, #5]
    7e8e:	4816      	ldr	r0, [pc, #88]	; (7ee8 <tcp_enqueue+0x494>)
    7e90:	4621      	mov	r1, r4
    7e92:	f7fd fd33 	bl	58fc <DebugPrintf>
    7e96:	8cfa      	ldrh	r2, [r7, #38]	; 0x26
    7e98:	8cbb      	ldrh	r3, [r7, #36]	; 0x24
    7e9a:	1ad3      	subs	r3, r2, r3
    7e9c:	84fb      	strh	r3, [r7, #38]	; 0x26
    7e9e:	8cbb      	ldrh	r3, [r7, #36]	; 0x24
    7ea0:	6aba      	ldr	r2, [r7, #40]	; 0x28
    7ea2:	18d3      	adds	r3, r2, r3
    7ea4:	62bb      	str	r3, [r7, #40]	; 0x28
    7ea6:	8cbb      	ldrh	r3, [r7, #36]	; 0x24
    7ea8:	6a3a      	ldr	r2, [r7, #32]
    7eaa:	18d3      	adds	r3, r2, r3
    7eac:	623b      	str	r3, [r7, #32]
    7eae:	6afb      	ldr	r3, [r7, #44]	; 0x2c
    7eb0:	2b00      	cmp	r3, #0
    7eb2:	f43f ae78 	beq.w	7ba6 <tcp_enqueue+0x152>
    7eb6:	8cfb      	ldrh	r3, [r7, #38]	; 0x26
    7eb8:	2b00      	cmp	r3, #0
    7eba:	f47f ae74 	bne.w	7ba6 <tcp_enqueue+0x152>
    7ebe:	68fb      	ldr	r3, [r7, #12]
    7ec0:	6f5b      	ldr	r3, [r3, #116]	; 0x74
    7ec2:	2b00      	cmp	r3, #0
    7ec4:	d103      	bne.n	7ece <tcp_enqueue+0x47a>
    7ec6:	f04f 0300 	mov.w	r3, #0
    7eca:	633b      	str	r3, [r7, #48]	; 0x30
    7ecc:	e015      	b.n	7efa <tcp_enqueue+0x4a6>
    7ece:	68fb      	ldr	r3, [r7, #12]
    7ed0:	6f5b      	ldr	r3, [r3, #116]	; 0x74
    7ed2:	633b      	str	r3, [r7, #48]	; 0x30
    7ed4:	e00d      	b.n	7ef2 <tcp_enqueue+0x49e>
    7ed6:	bf00      	nop
    7ed8:	0000a374 	.word	0x0000a374
    7edc:	0000a3b0 	.word	0x0000a3b0
    7ee0:	0000a3d8 	.word	0x0000a3d8
    7ee4:	20004128 	.word	0x20004128
    7ee8:	0000a408 	.word	0x0000a408
    7eec:	6b3b      	ldr	r3, [r7, #48]	; 0x30
    7eee:	681b      	ldr	r3, [r3, #0]
    7ef0:	633b      	str	r3, [r7, #48]	; 0x30
    7ef2:	6b3b      	ldr	r3, [r7, #48]	; 0x30
    7ef4:	681b      	ldr	r3, [r3, #0]
    7ef6:	2b00      	cmp	r3, #0
    7ef8:	d1f8      	bne.n	7eec <tcp_enqueue+0x498>
    7efa:	6b3b      	ldr	r3, [r7, #48]	; 0x30
    7efc:	2b00      	cmp	r3, #0
    7efe:	f000 80c8 	beq.w	8092 <tcp_enqueue+0x63e>
    7f02:	6b3b      	ldr	r3, [r7, #48]	; 0x30
    7f04:	899b      	ldrh	r3, [r3, #12]
    7f06:	461c      	mov	r4, r3
    7f08:	6b3b      	ldr	r3, [r7, #48]	; 0x30
    7f0a:	691b      	ldr	r3, [r3, #16]
    7f0c:	899b      	ldrh	r3, [r3, #12]
    7f0e:	b29b      	uxth	r3, r3
    7f10:	4618      	mov	r0, r3
    7f12:	f7fb ffc1 	bl	3e98 <ntohs>
    7f16:	4603      	mov	r3, r0
    7f18:	f003 0303 	and.w	r3, r3, #3
    7f1c:	2b00      	cmp	r3, #0
    7f1e:	bf0c      	ite	eq
    7f20:	2300      	moveq	r3, #0
    7f22:	2301      	movne	r3, #1
    7f24:	18e3      	adds	r3, r4, r3
    7f26:	2b00      	cmp	r3, #0
    7f28:	f000 80b3 	beq.w	8092 <tcp_enqueue+0x63e>
    7f2c:	6b3b      	ldr	r3, [r7, #48]	; 0x30
    7f2e:	691b      	ldr	r3, [r3, #16]
    7f30:	899b      	ldrh	r3, [r3, #12]
    7f32:	b29b      	uxth	r3, r3
    7f34:	4618      	mov	r0, r3
    7f36:	f7fb ffaf 	bl	3e98 <ntohs>
    7f3a:	4603      	mov	r3, r0
    7f3c:	f003 0303 	and.w	r3, r3, #3
    7f40:	2b00      	cmp	r3, #0
    7f42:	f040 80a6 	bne.w	8092 <tcp_enqueue+0x63e>
    7f46:	797b      	ldrb	r3, [r7, #5]
    7f48:	f003 0303 	and.w	r3, r3, #3
    7f4c:	2b00      	cmp	r3, #0
    7f4e:	d003      	beq.n	7f58 <tcp_enqueue+0x504>
    7f50:	797b      	ldrb	r3, [r7, #5]
    7f52:	2b01      	cmp	r3, #1
    7f54:	f040 809d 	bne.w	8092 <tcp_enqueue+0x63e>
    7f58:	6b3b      	ldr	r3, [r7, #48]	; 0x30
    7f5a:	899b      	ldrh	r3, [r3, #12]
    7f5c:	461a      	mov	r2, r3
    7f5e:	6afb      	ldr	r3, [r7, #44]	; 0x2c
    7f60:	899b      	ldrh	r3, [r3, #12]
    7f62:	18d2      	adds	r2, r2, r3
    7f64:	68fb      	ldr	r3, [r7, #12]
    7f66:	8f1b      	ldrh	r3, [r3, #56]	; 0x38
    7f68:	429a      	cmp	r2, r3
    7f6a:	f300 8092 	bgt.w	8092 <tcp_enqueue+0x63e>
    7f6e:	6b3b      	ldr	r3, [r7, #48]	; 0x30
    7f70:	7b9a      	ldrb	r2, [r3, #14]
    7f72:	6afb      	ldr	r3, [r7, #44]	; 0x2c
    7f74:	7b9b      	ldrb	r3, [r3, #14]
    7f76:	429a      	cmp	r2, r3
    7f78:	f040 808b 	bne.w	8092 <tcp_enqueue+0x63e>
    7f7c:	6b3b      	ldr	r3, [r7, #48]	; 0x30
    7f7e:	691b      	ldr	r3, [r3, #16]
    7f80:	685b      	ldr	r3, [r3, #4]
    7f82:	4618      	mov	r0, r3
    7f84:	f7fb ffb6 	bl	3ef4 <ntohl>
    7f88:	4602      	mov	r2, r0
    7f8a:	6b3b      	ldr	r3, [r7, #48]	; 0x30
    7f8c:	899b      	ldrh	r3, [r3, #12]
    7f8e:	18d4      	adds	r4, r2, r3
    7f90:	6afb      	ldr	r3, [r7, #44]	; 0x2c
    7f92:	691b      	ldr	r3, [r3, #16]
    7f94:	685b      	ldr	r3, [r3, #4]
    7f96:	4618      	mov	r0, r3
    7f98:	f7fb ffac 	bl	3ef4 <ntohl>
    7f9c:	4603      	mov	r3, r0
    7f9e:	429c      	cmp	r4, r3
    7fa0:	d177      	bne.n	8092 <tcp_enqueue+0x63e>
    7fa2:	6afb      	ldr	r3, [r7, #44]	; 0x2c
    7fa4:	685a      	ldr	r2, [r3, #4]
    7fa6:	7f7b      	ldrb	r3, [r7, #29]
    7fa8:	b299      	uxth	r1, r3
    7faa:	f06f 0313 	mvn.w	r3, #19
    7fae:	1a5b      	subs	r3, r3, r1
    7fb0:	b29b      	uxth	r3, r3
    7fb2:	b29b      	uxth	r3, r3
    7fb4:	b21b      	sxth	r3, r3
    7fb6:	4610      	mov	r0, r2
    7fb8:	4619      	mov	r1, r3
    7fba:	f7fb fd73 	bl	3aa4 <pbuf_header>
    7fbe:	4603      	mov	r3, r0
    7fc0:	2b00      	cmp	r3, #0
    7fc2:	d009      	beq.n	7fd8 <tcp_enqueue+0x584>
    7fc4:	4b80      	ldr	r3, [pc, #512]	; (81c8 <tcp_enqueue+0x774>)
    7fc6:	f8b3 308c 	ldrh.w	r3, [r3, #140]	; 0x8c
    7fca:	f103 0301 	add.w	r3, r3, #1
    7fce:	b29a      	uxth	r2, r3
    7fd0:	4b7d      	ldr	r3, [pc, #500]	; (81c8 <tcp_enqueue+0x774>)
    7fd2:	f8a3 208c 	strh.w	r2, [r3, #140]	; 0x8c
    7fd6:	e0c8      	b.n	816a <tcp_enqueue+0x716>
    7fd8:	6afb      	ldr	r3, [r7, #44]	; 0x2c
    7fda:	685b      	ldr	r3, [r3, #4]
    7fdc:	895b      	ldrh	r3, [r3, #10]
    7fde:	2b00      	cmp	r3, #0
    7fe0:	d112      	bne.n	8008 <tcp_enqueue+0x5b4>
    7fe2:	6afb      	ldr	r3, [r7, #44]	; 0x2c
    7fe4:	685b      	ldr	r3, [r3, #4]
    7fe6:	617b      	str	r3, [r7, #20]
    7fe8:	6afb      	ldr	r3, [r7, #44]	; 0x2c
    7fea:	685b      	ldr	r3, [r3, #4]
    7fec:	681a      	ldr	r2, [r3, #0]
    7fee:	6afb      	ldr	r3, [r7, #44]	; 0x2c
    7ff0:	605a      	str	r2, [r3, #4]
    7ff2:	697b      	ldr	r3, [r7, #20]
    7ff4:	f04f 0200 	mov.w	r2, #0
    7ff8:	601a      	str	r2, [r3, #0]
    7ffa:	8bfb      	ldrh	r3, [r7, #30]
    7ffc:	f103 33ff 	add.w	r3, r3, #4294967295
    8000:	83fb      	strh	r3, [r7, #30]
    8002:	6978      	ldr	r0, [r7, #20]
    8004:	f7fb fdde 	bl	3bc4 <pbuf_free>
    8008:	797b      	ldrb	r3, [r7, #5]
    800a:	f003 0301 	and.w	r3, r3, #1
    800e:	b2db      	uxtb	r3, r3
    8010:	2b00      	cmp	r3, #0
    8012:	d012      	beq.n	803a <tcp_enqueue+0x5e6>
    8014:	6afb      	ldr	r3, [r7, #44]	; 0x2c
    8016:	685b      	ldr	r3, [r3, #4]
    8018:	2b00      	cmp	r3, #0
    801a:	6b3b      	ldr	r3, [r7, #48]	; 0x30
    801c:	691c      	ldr	r4, [r3, #16]
    801e:	6b3b      	ldr	r3, [r7, #48]	; 0x30
    8020:	691b      	ldr	r3, [r3, #16]
    8022:	899b      	ldrh	r3, [r3, #12]
    8024:	b29d      	uxth	r5, r3
    8026:	f04f 0001 	mov.w	r0, #1
    802a:	f7fb ff1d 	bl	3e68 <htons>
    802e:	4603      	mov	r3, r0
    8030:	ea45 0303 	orr.w	r3, r5, r3
    8034:	b29b      	uxth	r3, r3
    8036:	81a3      	strh	r3, [r4, #12]
    8038:	e016      	b.n	8068 <tcp_enqueue+0x614>
    803a:	6afb      	ldr	r3, [r7, #44]	; 0x2c
    803c:	685b      	ldr	r3, [r3, #4]
    803e:	2b00      	cmp	r3, #0
    8040:	6b3b      	ldr	r3, [r7, #48]	; 0x30
    8042:	685a      	ldr	r2, [r3, #4]
    8044:	6afb      	ldr	r3, [r7, #44]	; 0x2c
    8046:	685b      	ldr	r3, [r3, #4]
    8048:	4610      	mov	r0, r2
    804a:	4619      	mov	r1, r3
    804c:	f7fb fe4a 	bl	3ce4 <pbuf_cat>
    8050:	6b3b      	ldr	r3, [r7, #48]	; 0x30
    8052:	899a      	ldrh	r2, [r3, #12]
    8054:	6afb      	ldr	r3, [r7, #44]	; 0x2c
    8056:	899b      	ldrh	r3, [r3, #12]
    8058:	18d3      	adds	r3, r2, r3
    805a:	b29a      	uxth	r2, r3
    805c:	6b3b      	ldr	r3, [r7, #48]	; 0x30
    805e:	819a      	strh	r2, [r3, #12]
    8060:	6afb      	ldr	r3, [r7, #44]	; 0x2c
    8062:	681a      	ldr	r2, [r3, #0]
    8064:	6b3b      	ldr	r3, [r7, #48]	; 0x30
    8066:	601a      	str	r2, [r3, #0]
    8068:	6b3b      	ldr	r3, [r7, #48]	; 0x30
    806a:	899b      	ldrh	r3, [r3, #12]
    806c:	4857      	ldr	r0, [pc, #348]	; (81cc <tcp_enqueue+0x778>)
    806e:	4619      	mov	r1, r3
    8070:	f7fd fc44 	bl	58fc <DebugPrintf>
    8074:	6b7a      	ldr	r2, [r7, #52]	; 0x34
    8076:	6afb      	ldr	r3, [r7, #44]	; 0x2c
    8078:	429a      	cmp	r2, r3
    807a:	d104      	bne.n	8086 <tcp_enqueue+0x632>
    807c:	6b3b      	ldr	r3, [r7, #48]	; 0x30
    807e:	637b      	str	r3, [r7, #52]	; 0x34
    8080:	6b3b      	ldr	r3, [r7, #48]	; 0x30
    8082:	899b      	ldrh	r3, [r3, #12]
    8084:	84bb      	strh	r3, [r7, #36]	; 0x24
    8086:	f04f 0004 	mov.w	r0, #4
    808a:	6af9      	ldr	r1, [r7, #44]	; 0x2c
    808c:	f7fa f932 	bl	22f4 <memp_free>
    8090:	e009      	b.n	80a6 <tcp_enqueue+0x652>
    8092:	6b3b      	ldr	r3, [r7, #48]	; 0x30
    8094:	2b00      	cmp	r3, #0
    8096:	d103      	bne.n	80a0 <tcp_enqueue+0x64c>
    8098:	68fb      	ldr	r3, [r7, #12]
    809a:	6afa      	ldr	r2, [r7, #44]	; 0x2c
    809c:	675a      	str	r2, [r3, #116]	; 0x74
    809e:	e002      	b.n	80a6 <tcp_enqueue+0x652>
    80a0:	6b3b      	ldr	r3, [r7, #48]	; 0x30
    80a2:	6afa      	ldr	r2, [r7, #44]	; 0x2c
    80a4:	601a      	str	r2, [r3, #0]
    80a6:	797b      	ldrb	r3, [r7, #5]
    80a8:	f003 0302 	and.w	r3, r3, #2
    80ac:	2b00      	cmp	r3, #0
    80ae:	d105      	bne.n	80bc <tcp_enqueue+0x668>
    80b0:	797b      	ldrb	r3, [r7, #5]
    80b2:	f003 0301 	and.w	r3, r3, #1
    80b6:	b2db      	uxtb	r3, r3
    80b8:	2b00      	cmp	r3, #0
    80ba:	d003      	beq.n	80c4 <tcp_enqueue+0x670>
    80bc:	88fb      	ldrh	r3, [r7, #6]
    80be:	f103 0301 	add.w	r3, r3, #1
    80c2:	80fb      	strh	r3, [r7, #6]
    80c4:	797b      	ldrb	r3, [r7, #5]
    80c6:	f003 0301 	and.w	r3, r3, #1
    80ca:	b2db      	uxtb	r3, r3
    80cc:	2b00      	cmp	r3, #0
    80ce:	d008      	beq.n	80e2 <tcp_enqueue+0x68e>
    80d0:	68fb      	ldr	r3, [r7, #12]
    80d2:	f893 3022 	ldrb.w	r3, [r3, #34]	; 0x22
    80d6:	f043 0320 	orr.w	r3, r3, #32
    80da:	b2da      	uxtb	r2, r3
    80dc:	68fb      	ldr	r3, [r7, #12]
    80de:	f883 2022 	strb.w	r2, [r3, #34]	; 0x22
    80e2:	68fb      	ldr	r3, [r7, #12]
    80e4:	6e9a      	ldr	r2, [r3, #104]	; 0x68
    80e6:	88fb      	ldrh	r3, [r7, #6]
    80e8:	18d2      	adds	r2, r2, r3
    80ea:	68fb      	ldr	r3, [r7, #12]
    80ec:	669a      	str	r2, [r3, #104]	; 0x68
    80ee:	68fb      	ldr	r3, [r7, #12]
    80f0:	f8b3 206e 	ldrh.w	r2, [r3, #110]	; 0x6e
    80f4:	88fb      	ldrh	r3, [r7, #6]
    80f6:	1ad3      	subs	r3, r2, r3
    80f8:	b29a      	uxth	r2, r3
    80fa:	68fb      	ldr	r3, [r7, #12]
    80fc:	f8a3 206e 	strh.w	r2, [r3, #110]	; 0x6e
    8100:	68fb      	ldr	r3, [r7, #12]
    8102:	8bfa      	ldrh	r2, [r7, #30]
    8104:	f8a3 2070 	strh.w	r2, [r3, #112]	; 0x70
    8108:	68fb      	ldr	r3, [r7, #12]
    810a:	f8b3 3070 	ldrh.w	r3, [r3, #112]	; 0x70
    810e:	4830      	ldr	r0, [pc, #192]	; (81d0 <tcp_enqueue+0x77c>)
    8110:	4619      	mov	r1, r3
    8112:	f7fd fbf3 	bl	58fc <DebugPrintf>
    8116:	68fb      	ldr	r3, [r7, #12]
    8118:	f8b3 3070 	ldrh.w	r3, [r3, #112]	; 0x70
    811c:	2b00      	cmp	r3, #0
    811e:	d002      	beq.n	8126 <tcp_enqueue+0x6d2>
    8120:	68fb      	ldr	r3, [r7, #12]
    8122:	6f9b      	ldr	r3, [r3, #120]	; 0x78
    8124:	2b00      	cmp	r3, #0
    8126:	6b7b      	ldr	r3, [r7, #52]	; 0x34
    8128:	2b00      	cmp	r3, #0
    812a:	d01b      	beq.n	8164 <tcp_enqueue+0x710>
    812c:	8cbb      	ldrh	r3, [r7, #36]	; 0x24
    812e:	2b00      	cmp	r3, #0
    8130:	d018      	beq.n	8164 <tcp_enqueue+0x710>
    8132:	6b7b      	ldr	r3, [r7, #52]	; 0x34
    8134:	691b      	ldr	r3, [r3, #16]
    8136:	2b00      	cmp	r3, #0
    8138:	d014      	beq.n	8164 <tcp_enqueue+0x710>
    813a:	f897 3050 	ldrb.w	r3, [r7, #80]	; 0x50
    813e:	f003 0302 	and.w	r3, r3, #2
    8142:	2b00      	cmp	r3, #0
    8144:	d10e      	bne.n	8164 <tcp_enqueue+0x710>
    8146:	6b7b      	ldr	r3, [r7, #52]	; 0x34
    8148:	691c      	ldr	r4, [r3, #16]
    814a:	6b7b      	ldr	r3, [r7, #52]	; 0x34
    814c:	691b      	ldr	r3, [r3, #16]
    814e:	899b      	ldrh	r3, [r3, #12]
    8150:	b29d      	uxth	r5, r3
    8152:	f04f 0008 	mov.w	r0, #8
    8156:	f7fb fe87 	bl	3e68 <htons>
    815a:	4603      	mov	r3, r0
    815c:	ea45 0303 	orr.w	r3, r5, r3
    8160:	b29b      	uxth	r3, r3
    8162:	81a3      	strh	r3, [r4, #12]
    8164:	f04f 0300 	mov.w	r3, #0
    8168:	e028      	b.n	81bc <tcp_enqueue+0x768>
    816a:	68fb      	ldr	r3, [r7, #12]
    816c:	f893 3022 	ldrb.w	r3, [r3, #34]	; 0x22
    8170:	f063 037f 	orn	r3, r3, #127	; 0x7f
    8174:	b2da      	uxtb	r2, r3
    8176:	68fb      	ldr	r3, [r7, #12]
    8178:	f883 2022 	strb.w	r2, [r3, #34]	; 0x22
    817c:	4b12      	ldr	r3, [pc, #72]	; (81c8 <tcp_enqueue+0x774>)
    817e:	f8b3 3084 	ldrh.w	r3, [r3, #132]	; 0x84
    8182:	f103 0301 	add.w	r3, r3, #1
    8186:	b29a      	uxth	r2, r3
    8188:	4b0f      	ldr	r3, [pc, #60]	; (81c8 <tcp_enqueue+0x774>)
    818a:	f8a3 2084 	strh.w	r2, [r3, #132]	; 0x84
    818e:	6afb      	ldr	r3, [r7, #44]	; 0x2c
    8190:	2b00      	cmp	r3, #0
    8192:	d002      	beq.n	819a <tcp_enqueue+0x746>
    8194:	6af8      	ldr	r0, [r7, #44]	; 0x2c
    8196:	f7f9 f863 	bl	1260 <tcp_segs_free>
    819a:	68fb      	ldr	r3, [r7, #12]
    819c:	f8b3 3070 	ldrh.w	r3, [r3, #112]	; 0x70
    81a0:	2b00      	cmp	r3, #0
    81a2:	d002      	beq.n	81aa <tcp_enqueue+0x756>
    81a4:	68fb      	ldr	r3, [r7, #12]
    81a6:	6f9b      	ldr	r3, [r3, #120]	; 0x78
    81a8:	2b00      	cmp	r3, #0
    81aa:	68fb      	ldr	r3, [r7, #12]
    81ac:	f8b3 3070 	ldrh.w	r3, [r3, #112]	; 0x70
    81b0:	4808      	ldr	r0, [pc, #32]	; (81d4 <tcp_enqueue+0x780>)
    81b2:	4619      	mov	r1, r3
    81b4:	f7fd fba2 	bl	58fc <DebugPrintf>
    81b8:	f04f 03ff 	mov.w	r3, #255	; 0xff
    81bc:	b25b      	sxtb	r3, r3
    81be:	4618      	mov	r0, r3
    81c0:	f107 073c 	add.w	r7, r7, #60	; 0x3c
    81c4:	46bd      	mov	sp, r7
    81c6:	bdf0      	pop	{r4, r5, r6, r7, pc}
    81c8:	20004128 	.word	0x20004128
    81cc:	0000a42c 	.word	0x0000a42c
    81d0:	0000a458 	.word	0x0000a458
    81d4:	0000a47c 	.word	0x0000a47c

000081d8 <tcp_send_empty_ack>:
    81d8:	b590      	push	{r4, r7, lr}
    81da:	b089      	sub	sp, #36	; 0x24
    81dc:	af02      	add	r7, sp, #8
    81de:	6078      	str	r0, [r7, #4]
    81e0:	f04f 0300 	mov.w	r3, #0
    81e4:	75fb      	strb	r3, [r7, #23]
    81e6:	7dfb      	ldrb	r3, [r7, #23]
    81e8:	b29b      	uxth	r3, r3
    81ea:	f103 0314 	add.w	r3, r3, #20
    81ee:	b29b      	uxth	r3, r3
    81f0:	f04f 0001 	mov.w	r0, #1
    81f4:	4619      	mov	r1, r3
    81f6:	f04f 0200 	mov.w	r2, #0
    81fa:	f7fb fb0d 	bl	3818 <pbuf_alloc>
    81fe:	6138      	str	r0, [r7, #16]
    8200:	693b      	ldr	r3, [r7, #16]
    8202:	2b00      	cmp	r3, #0
    8204:	d105      	bne.n	8212 <tcp_send_empty_ack+0x3a>
    8206:	4827      	ldr	r0, [pc, #156]	; (82a4 <tcp_send_empty_ack+0xcc>)
    8208:	f7fd fb78 	bl	58fc <DebugPrintf>
    820c:	f04f 03fe 	mov.w	r3, #254	; 0xfe
    8210:	e041      	b.n	8296 <tcp_send_empty_ack+0xbe>
    8212:	687b      	ldr	r3, [r7, #4]
    8214:	6a5b      	ldr	r3, [r3, #36]	; 0x24
    8216:	4824      	ldr	r0, [pc, #144]	; (82a8 <tcp_send_empty_ack+0xd0>)
    8218:	4619      	mov	r1, r3
    821a:	f7fd fb6f 	bl	58fc <DebugPrintf>
    821e:	687b      	ldr	r3, [r7, #4]
    8220:	f893 3022 	ldrb.w	r3, [r3, #34]	; 0x22
    8224:	f023 0303 	bic.w	r3, r3, #3
    8228:	b2da      	uxtb	r2, r3
    822a:	687b      	ldr	r3, [r7, #4]
    822c:	f883 2022 	strb.w	r2, [r3, #34]	; 0x22
    8230:	7dfc      	ldrb	r4, [r7, #23]
    8232:	687b      	ldr	r3, [r7, #4]
    8234:	6d9b      	ldr	r3, [r3, #88]	; 0x58
    8236:	4618      	mov	r0, r3
    8238:	f7fb fe3e 	bl	3eb8 <htonl>
    823c:	4603      	mov	r3, r0
    823e:	6878      	ldr	r0, [r7, #4]
    8240:	6939      	ldr	r1, [r7, #16]
    8242:	4622      	mov	r2, r4
    8244:	f7ff fb26 	bl	7894 <tcp_output_set_header>
    8248:	60f8      	str	r0, [r7, #12]
    824a:	687a      	ldr	r2, [r7, #4]
    824c:	687b      	ldr	r3, [r7, #4]
    824e:	f103 0304 	add.w	r3, r3, #4
    8252:	6939      	ldr	r1, [r7, #16]
    8254:	8909      	ldrh	r1, [r1, #8]
    8256:	9100      	str	r1, [sp, #0]
    8258:	6938      	ldr	r0, [r7, #16]
    825a:	4611      	mov	r1, r2
    825c:	461a      	mov	r2, r3
    825e:	f04f 0306 	mov.w	r3, #6
    8262:	f7fa fedf 	bl	3024 <inet_chksum_pseudo>
    8266:	4603      	mov	r3, r0
    8268:	461a      	mov	r2, r3
    826a:	68fb      	ldr	r3, [r7, #12]
    826c:	821a      	strh	r2, [r3, #16]
    826e:	6879      	ldr	r1, [r7, #4]
    8270:	687b      	ldr	r3, [r7, #4]
    8272:	f103 0204 	add.w	r2, r3, #4
    8276:	687b      	ldr	r3, [r7, #4]
    8278:	7adb      	ldrb	r3, [r3, #11]
    827a:	6878      	ldr	r0, [r7, #4]
    827c:	7a80      	ldrb	r0, [r0, #10]
    827e:	9000      	str	r0, [sp, #0]
    8280:	f04f 0006 	mov.w	r0, #6
    8284:	9001      	str	r0, [sp, #4]
    8286:	6938      	ldr	r0, [r7, #16]
    8288:	f7fe fee0 	bl	704c <ip_output>
    828c:	6938      	ldr	r0, [r7, #16]
    828e:	f7fb fc99 	bl	3bc4 <pbuf_free>
    8292:	f04f 0300 	mov.w	r3, #0
    8296:	b25b      	sxtb	r3, r3
    8298:	4618      	mov	r0, r3
    829a:	f107 071c 	add.w	r7, r7, #28
    829e:	46bd      	mov	sp, r7
    82a0:	bd90      	pop	{r4, r7, pc}
    82a2:	bf00      	nop
    82a4:	0000a49c 	.word	0x0000a49c
    82a8:	0000a4c8 	.word	0x0000a4c8

000082ac <tcp_output>:
    82ac:	b5f0      	push	{r4, r5, r6, r7, lr}
    82ae:	b08d      	sub	sp, #52	; 0x34
    82b0:	af04      	add	r7, sp, #16
    82b2:	6078      	str	r0, [r7, #4]
    82b4:	f04f 0300 	mov.w	r3, #0
    82b8:	82fb      	strh	r3, [r7, #22]
    82ba:	4b56      	ldr	r3, [pc, #344]	; (8414 <tcp_output+0x168>)
    82bc:	681a      	ldr	r2, [r3, #0]
    82be:	687b      	ldr	r3, [r7, #4]
    82c0:	429a      	cmp	r2, r3
    82c2:	d102      	bne.n	82ca <tcp_output+0x1e>
    82c4:	f04f 0300 	mov.w	r3, #0
    82c8:	e1d9      	b.n	867e <tcp_output+0x3d2>
    82ca:	687b      	ldr	r3, [r7, #4]
    82cc:	f8b3 2052 	ldrh.w	r2, [r3, #82]	; 0x52
    82d0:	687b      	ldr	r3, [r7, #4]
    82d2:	f8b3 305c 	ldrh.w	r3, [r3, #92]	; 0x5c
    82d6:	429a      	cmp	r2, r3
    82d8:	bf38      	it	cc
    82da:	4613      	movcc	r3, r2
    82dc:	b29b      	uxth	r3, r3
    82de:	60fb      	str	r3, [r7, #12]
    82e0:	687b      	ldr	r3, [r7, #4]
    82e2:	6f5b      	ldr	r3, [r3, #116]	; 0x74
    82e4:	61fb      	str	r3, [r7, #28]
    82e6:	687b      	ldr	r3, [r7, #4]
    82e8:	f893 3022 	ldrb.w	r3, [r3, #34]	; 0x22
    82ec:	f003 0302 	and.w	r3, r3, #2
    82f0:	2b00      	cmp	r3, #0
    82f2:	d017      	beq.n	8324 <tcp_output+0x78>
    82f4:	69fb      	ldr	r3, [r7, #28]
    82f6:	2b00      	cmp	r3, #0
    82f8:	d00f      	beq.n	831a <tcp_output+0x6e>
    82fa:	69fb      	ldr	r3, [r7, #28]
    82fc:	691b      	ldr	r3, [r3, #16]
    82fe:	685b      	ldr	r3, [r3, #4]
    8300:	4618      	mov	r0, r3
    8302:	f7fb fdf7 	bl	3ef4 <ntohl>
    8306:	4602      	mov	r2, r0
    8308:	687b      	ldr	r3, [r7, #4]
    830a:	6cdb      	ldr	r3, [r3, #76]	; 0x4c
    830c:	1ad2      	subs	r2, r2, r3
    830e:	69fb      	ldr	r3, [r7, #28]
    8310:	899b      	ldrh	r3, [r3, #12]
    8312:	18d2      	adds	r2, r2, r3
    8314:	68fb      	ldr	r3, [r7, #12]
    8316:	429a      	cmp	r2, r3
    8318:	d904      	bls.n	8324 <tcp_output+0x78>
    831a:	6878      	ldr	r0, [r7, #4]
    831c:	f7ff ff5c 	bl	81d8 <tcp_send_empty_ack>
    8320:	4603      	mov	r3, r0
    8322:	e1ac      	b.n	867e <tcp_output+0x3d2>
    8324:	687b      	ldr	r3, [r7, #4]
    8326:	6f9b      	ldr	r3, [r3, #120]	; 0x78
    8328:	61bb      	str	r3, [r7, #24]
    832a:	69bb      	ldr	r3, [r7, #24]
    832c:	2b00      	cmp	r3, #0
    832e:	d007      	beq.n	8340 <tcp_output+0x94>
    8330:	e002      	b.n	8338 <tcp_output+0x8c>
    8332:	69bb      	ldr	r3, [r7, #24]
    8334:	681b      	ldr	r3, [r3, #0]
    8336:	61bb      	str	r3, [r7, #24]
    8338:	69bb      	ldr	r3, [r7, #24]
    833a:	681b      	ldr	r3, [r3, #0]
    833c:	2b00      	cmp	r3, #0
    833e:	d1f8      	bne.n	8332 <tcp_output+0x86>
    8340:	69fb      	ldr	r3, [r7, #28]
    8342:	2b00      	cmp	r3, #0
    8344:	d105      	bne.n	8352 <tcp_output+0xa6>
    8346:	687b      	ldr	r3, [r7, #4]
    8348:	6f5b      	ldr	r3, [r3, #116]	; 0x74
    834a:	4833      	ldr	r0, [pc, #204]	; (8418 <tcp_output+0x16c>)
    834c:	4619      	mov	r1, r3
    834e:	f7fd fad5 	bl	58fc <DebugPrintf>
    8352:	69fb      	ldr	r3, [r7, #28]
    8354:	2b00      	cmp	r3, #0
    8356:	d110      	bne.n	837a <tcp_output+0xce>
    8358:	687b      	ldr	r3, [r7, #4]
    835a:	f8b3 305c 	ldrh.w	r3, [r3, #92]	; 0x5c
    835e:	461a      	mov	r2, r3
    8360:	687b      	ldr	r3, [r7, #4]
    8362:	f8b3 3052 	ldrh.w	r3, [r3, #82]	; 0x52
    8366:	6879      	ldr	r1, [r7, #4]
    8368:	6cc9      	ldr	r1, [r1, #76]	; 0x4c
    836a:	9100      	str	r1, [sp, #0]
    836c:	482b      	ldr	r0, [pc, #172]	; (841c <tcp_output+0x170>)
    836e:	4611      	mov	r1, r2
    8370:	461a      	mov	r2, r3
    8372:	68fb      	ldr	r3, [r7, #12]
    8374:	f7fd fac2 	bl	58fc <DebugPrintf>
    8378:	e13c      	b.n	85f4 <tcp_output+0x348>
    837a:	687b      	ldr	r3, [r7, #4]
    837c:	f8b3 305c 	ldrh.w	r3, [r3, #92]	; 0x5c
    8380:	461d      	mov	r5, r3
    8382:	687b      	ldr	r3, [r7, #4]
    8384:	f8b3 3052 	ldrh.w	r3, [r3, #82]	; 0x52
    8388:	461c      	mov	r4, r3
    838a:	69fb      	ldr	r3, [r7, #28]
    838c:	691b      	ldr	r3, [r3, #16]
    838e:	685b      	ldr	r3, [r3, #4]
    8390:	4618      	mov	r0, r3
    8392:	f7fb fdaf 	bl	3ef4 <ntohl>
    8396:	4602      	mov	r2, r0
    8398:	687b      	ldr	r3, [r7, #4]
    839a:	6cdb      	ldr	r3, [r3, #76]	; 0x4c
    839c:	1ad2      	subs	r2, r2, r3
    839e:	69fb      	ldr	r3, [r7, #28]
    83a0:	899b      	ldrh	r3, [r3, #12]
    83a2:	18d6      	adds	r6, r2, r3
    83a4:	69fb      	ldr	r3, [r7, #28]
    83a6:	691b      	ldr	r3, [r3, #16]
    83a8:	685b      	ldr	r3, [r3, #4]
    83aa:	4618      	mov	r0, r3
    83ac:	f7fb fda2 	bl	3ef4 <ntohl>
    83b0:	4602      	mov	r2, r0
    83b2:	687b      	ldr	r3, [r7, #4]
    83b4:	6cdb      	ldr	r3, [r3, #76]	; 0x4c
    83b6:	9600      	str	r6, [sp, #0]
    83b8:	9201      	str	r2, [sp, #4]
    83ba:	9302      	str	r3, [sp, #8]
    83bc:	4818      	ldr	r0, [pc, #96]	; (8420 <tcp_output+0x174>)
    83be:	4629      	mov	r1, r5
    83c0:	4622      	mov	r2, r4
    83c2:	68fb      	ldr	r3, [r7, #12]
    83c4:	f7fd fa9a 	bl	58fc <DebugPrintf>
    83c8:	e114      	b.n	85f4 <tcp_output+0x348>
    83ca:	69fb      	ldr	r3, [r7, #28]
    83cc:	691b      	ldr	r3, [r3, #16]
    83ce:	899b      	ldrh	r3, [r3, #12]
    83d0:	b29b      	uxth	r3, r3
    83d2:	4618      	mov	r0, r3
    83d4:	f7fb fd60 	bl	3e98 <ntohs>
    83d8:	687b      	ldr	r3, [r7, #4]
    83da:	6f9b      	ldr	r3, [r3, #120]	; 0x78
    83dc:	2b00      	cmp	r3, #0
    83de:	d016      	beq.n	840e <tcp_output+0x162>
    83e0:	687b      	ldr	r3, [r7, #4]
    83e2:	f893 3022 	ldrb.w	r3, [r3, #34]	; 0x22
    83e6:	f003 0344 	and.w	r3, r3, #68	; 0x44
    83ea:	2b00      	cmp	r3, #0
    83ec:	d10f      	bne.n	840e <tcp_output+0x162>
    83ee:	687b      	ldr	r3, [r7, #4]
    83f0:	6f5b      	ldr	r3, [r3, #116]	; 0x74
    83f2:	2b00      	cmp	r3, #0
    83f4:	d016      	beq.n	8424 <tcp_output+0x178>
    83f6:	687b      	ldr	r3, [r7, #4]
    83f8:	6f5b      	ldr	r3, [r3, #116]	; 0x74
    83fa:	681b      	ldr	r3, [r3, #0]
    83fc:	2b00      	cmp	r3, #0
    83fe:	d106      	bne.n	840e <tcp_output+0x162>
    8400:	687b      	ldr	r3, [r7, #4]
    8402:	6f5b      	ldr	r3, [r3, #116]	; 0x74
    8404:	899a      	ldrh	r2, [r3, #12]
    8406:	687b      	ldr	r3, [r7, #4]
    8408:	8f1b      	ldrh	r3, [r3, #56]	; 0x38
    840a:	429a      	cmp	r2, r3
    840c:	d30a      	bcc.n	8424 <tcp_output+0x178>
    840e:	f04f 0301 	mov.w	r3, #1
    8412:	e009      	b.n	8428 <tcp_output+0x17c>
    8414:	20003dec 	.word	0x20003dec
    8418:	0000a4e8 	.word	0x0000a4e8
    841c:	0000a50c 	.word	0x0000a50c
    8420:	0000a54c 	.word	0x0000a54c
    8424:	f04f 0300 	mov.w	r3, #0
    8428:	2b00      	cmp	r3, #0
    842a:	d107      	bne.n	843c <tcp_output+0x190>
    842c:	687b      	ldr	r3, [r7, #4]
    842e:	f893 3022 	ldrb.w	r3, [r3, #34]	; 0x22
    8432:	f003 03a0 	and.w	r3, r3, #160	; 0xa0
    8436:	2b00      	cmp	r3, #0
    8438:	f000 80f1 	beq.w	861e <tcp_output+0x372>
    843c:	687b      	ldr	r3, [r7, #4]
    843e:	f8b3 305c 	ldrh.w	r3, [r3, #92]	; 0x5c
    8442:	461d      	mov	r5, r3
    8444:	687b      	ldr	r3, [r7, #4]
    8446:	f8b3 3052 	ldrh.w	r3, [r3, #82]	; 0x52
    844a:	461c      	mov	r4, r3
    844c:	69fb      	ldr	r3, [r7, #28]
    844e:	691b      	ldr	r3, [r3, #16]
    8450:	685b      	ldr	r3, [r3, #4]
    8452:	4618      	mov	r0, r3
    8454:	f7fb fd4e 	bl	3ef4 <ntohl>
    8458:	4602      	mov	r2, r0
    845a:	69fb      	ldr	r3, [r7, #28]
    845c:	899b      	ldrh	r3, [r3, #12]
    845e:	18d2      	adds	r2, r2, r3
    8460:	687b      	ldr	r3, [r7, #4]
    8462:	6cdb      	ldr	r3, [r3, #76]	; 0x4c
    8464:	1ad6      	subs	r6, r2, r3
    8466:	69fb      	ldr	r3, [r7, #28]
    8468:	691b      	ldr	r3, [r3, #16]
    846a:	685b      	ldr	r3, [r3, #4]
    846c:	4618      	mov	r0, r3
    846e:	f7fb fd41 	bl	3ef4 <ntohl>
    8472:	4601      	mov	r1, r0
    8474:	687b      	ldr	r3, [r7, #4]
    8476:	6cda      	ldr	r2, [r3, #76]	; 0x4c
    8478:	f9b7 3016 	ldrsh.w	r3, [r7, #22]
    847c:	9600      	str	r6, [sp, #0]
    847e:	9101      	str	r1, [sp, #4]
    8480:	9202      	str	r2, [sp, #8]
    8482:	9303      	str	r3, [sp, #12]
    8484:	4881      	ldr	r0, [pc, #516]	; (868c <tcp_output+0x3e0>)
    8486:	4629      	mov	r1, r5
    8488:	4622      	mov	r2, r4
    848a:	68fb      	ldr	r3, [r7, #12]
    848c:	f7fd fa36 	bl	58fc <DebugPrintf>
    8490:	8afb      	ldrh	r3, [r7, #22]
    8492:	f103 0301 	add.w	r3, r3, #1
    8496:	82fb      	strh	r3, [r7, #22]
    8498:	69fb      	ldr	r3, [r7, #28]
    849a:	681a      	ldr	r2, [r3, #0]
    849c:	687b      	ldr	r3, [r7, #4]
    849e:	675a      	str	r2, [r3, #116]	; 0x74
    84a0:	687b      	ldr	r3, [r7, #4]
    84a2:	7c1b      	ldrb	r3, [r3, #16]
    84a4:	2b02      	cmp	r3, #2
    84a6:	d017      	beq.n	84d8 <tcp_output+0x22c>
    84a8:	69fb      	ldr	r3, [r7, #28]
    84aa:	691c      	ldr	r4, [r3, #16]
    84ac:	69fb      	ldr	r3, [r7, #28]
    84ae:	691b      	ldr	r3, [r3, #16]
    84b0:	899b      	ldrh	r3, [r3, #12]
    84b2:	b29d      	uxth	r5, r3
    84b4:	f04f 0010 	mov.w	r0, #16
    84b8:	f7fb fcd6 	bl	3e68 <htons>
    84bc:	4603      	mov	r3, r0
    84be:	ea45 0303 	orr.w	r3, r5, r3
    84c2:	b29b      	uxth	r3, r3
    84c4:	81a3      	strh	r3, [r4, #12]
    84c6:	687b      	ldr	r3, [r7, #4]
    84c8:	f893 3022 	ldrb.w	r3, [r3, #34]	; 0x22
    84cc:	f023 0303 	bic.w	r3, r3, #3
    84d0:	b2da      	uxtb	r2, r3
    84d2:	687b      	ldr	r3, [r7, #4]
    84d4:	f883 2022 	strb.w	r2, [r3, #34]	; 0x22
    84d8:	69f8      	ldr	r0, [r7, #28]
    84da:	6879      	ldr	r1, [r7, #4]
    84dc:	f000 f8d8 	bl	8690 <tcp_output_segment>
    84e0:	69fb      	ldr	r3, [r7, #28]
    84e2:	691b      	ldr	r3, [r3, #16]
    84e4:	685b      	ldr	r3, [r3, #4]
    84e6:	4618      	mov	r0, r3
    84e8:	f7fb fd04 	bl	3ef4 <ntohl>
    84ec:	4604      	mov	r4, r0
    84ee:	69fb      	ldr	r3, [r7, #28]
    84f0:	899b      	ldrh	r3, [r3, #12]
    84f2:	461d      	mov	r5, r3
    84f4:	69fb      	ldr	r3, [r7, #28]
    84f6:	691b      	ldr	r3, [r3, #16]
    84f8:	899b      	ldrh	r3, [r3, #12]
    84fa:	b29b      	uxth	r3, r3
    84fc:	4618      	mov	r0, r3
    84fe:	f7fb fccb 	bl	3e98 <ntohs>
    8502:	4603      	mov	r3, r0
    8504:	f003 0303 	and.w	r3, r3, #3
    8508:	2b00      	cmp	r3, #0
    850a:	bf0c      	ite	eq
    850c:	2300      	moveq	r3, #0
    850e:	2301      	movne	r3, #1
    8510:	18eb      	adds	r3, r5, r3
    8512:	18e3      	adds	r3, r4, r3
    8514:	60bb      	str	r3, [r7, #8]
    8516:	687b      	ldr	r3, [r7, #4]
    8518:	6d9a      	ldr	r2, [r3, #88]	; 0x58
    851a:	68bb      	ldr	r3, [r7, #8]
    851c:	1ad3      	subs	r3, r2, r3
    851e:	2b00      	cmp	r3, #0
    8520:	da02      	bge.n	8528 <tcp_output+0x27c>
    8522:	687b      	ldr	r3, [r7, #4]
    8524:	68ba      	ldr	r2, [r7, #8]
    8526:	659a      	str	r2, [r3, #88]	; 0x58
    8528:	69fb      	ldr	r3, [r7, #28]
    852a:	899b      	ldrh	r3, [r3, #12]
    852c:	461c      	mov	r4, r3
    852e:	69fb      	ldr	r3, [r7, #28]
    8530:	691b      	ldr	r3, [r3, #16]
    8532:	899b      	ldrh	r3, [r3, #12]
    8534:	b29b      	uxth	r3, r3
    8536:	4618      	mov	r0, r3
    8538:	f7fb fcae 	bl	3e98 <ntohs>
    853c:	4603      	mov	r3, r0
    853e:	f003 0303 	and.w	r3, r3, #3
    8542:	2b00      	cmp	r3, #0
    8544:	bf0c      	ite	eq
    8546:	2300      	moveq	r3, #0
    8548:	2301      	movne	r3, #1
    854a:	18e3      	adds	r3, r4, r3
    854c:	2b00      	cmp	r3, #0
    854e:	dd4b      	ble.n	85e8 <tcp_output+0x33c>
    8550:	69fb      	ldr	r3, [r7, #28]
    8552:	f04f 0200 	mov.w	r2, #0
    8556:	601a      	str	r2, [r3, #0]
    8558:	687b      	ldr	r3, [r7, #4]
    855a:	6f9b      	ldr	r3, [r3, #120]	; 0x78
    855c:	2b00      	cmp	r3, #0
    855e:	d105      	bne.n	856c <tcp_output+0x2c0>
    8560:	687b      	ldr	r3, [r7, #4]
    8562:	69fa      	ldr	r2, [r7, #28]
    8564:	679a      	str	r2, [r3, #120]	; 0x78
    8566:	69fb      	ldr	r3, [r7, #28]
    8568:	61bb      	str	r3, [r7, #24]
    856a:	e040      	b.n	85ee <tcp_output+0x342>
    856c:	69fb      	ldr	r3, [r7, #28]
    856e:	691b      	ldr	r3, [r3, #16]
    8570:	685b      	ldr	r3, [r3, #4]
    8572:	4618      	mov	r0, r3
    8574:	f7fb fcbe 	bl	3ef4 <ntohl>
    8578:	4604      	mov	r4, r0
    857a:	69bb      	ldr	r3, [r7, #24]
    857c:	691b      	ldr	r3, [r3, #16]
    857e:	685b      	ldr	r3, [r3, #4]
    8580:	4618      	mov	r0, r3
    8582:	f7fb fcb7 	bl	3ef4 <ntohl>
    8586:	4603      	mov	r3, r0
    8588:	1ae3      	subs	r3, r4, r3
    858a:	2b00      	cmp	r3, #0
    858c:	da25      	bge.n	85da <tcp_output+0x32e>
    858e:	687b      	ldr	r3, [r7, #4]
    8590:	f103 0378 	add.w	r3, r3, #120	; 0x78
    8594:	613b      	str	r3, [r7, #16]
    8596:	e002      	b.n	859e <tcp_output+0x2f2>
    8598:	693b      	ldr	r3, [r7, #16]
    859a:	681b      	ldr	r3, [r3, #0]
    859c:	613b      	str	r3, [r7, #16]
    859e:	693b      	ldr	r3, [r7, #16]
    85a0:	681b      	ldr	r3, [r3, #0]
    85a2:	2b00      	cmp	r3, #0
    85a4:	d011      	beq.n	85ca <tcp_output+0x31e>
    85a6:	693b      	ldr	r3, [r7, #16]
    85a8:	681b      	ldr	r3, [r3, #0]
    85aa:	691b      	ldr	r3, [r3, #16]
    85ac:	685b      	ldr	r3, [r3, #4]
    85ae:	4618      	mov	r0, r3
    85b0:	f7fb fca0 	bl	3ef4 <ntohl>
    85b4:	4604      	mov	r4, r0
    85b6:	69fb      	ldr	r3, [r7, #28]
    85b8:	691b      	ldr	r3, [r3, #16]
    85ba:	685b      	ldr	r3, [r3, #4]
    85bc:	4618      	mov	r0, r3
    85be:	f7fb fc99 	bl	3ef4 <ntohl>
    85c2:	4603      	mov	r3, r0
    85c4:	1ae3      	subs	r3, r4, r3
    85c6:	2b00      	cmp	r3, #0
    85c8:	dbe6      	blt.n	8598 <tcp_output+0x2ec>
    85ca:	693b      	ldr	r3, [r7, #16]
    85cc:	681a      	ldr	r2, [r3, #0]
    85ce:	69fb      	ldr	r3, [r7, #28]
    85d0:	601a      	str	r2, [r3, #0]
    85d2:	693b      	ldr	r3, [r7, #16]
    85d4:	69fa      	ldr	r2, [r7, #28]
    85d6:	601a      	str	r2, [r3, #0]
    85d8:	e009      	b.n	85ee <tcp_output+0x342>
    85da:	69bb      	ldr	r3, [r7, #24]
    85dc:	69fa      	ldr	r2, [r7, #28]
    85de:	601a      	str	r2, [r3, #0]
    85e0:	69bb      	ldr	r3, [r7, #24]
    85e2:	681b      	ldr	r3, [r3, #0]
    85e4:	61bb      	str	r3, [r7, #24]
    85e6:	e002      	b.n	85ee <tcp_output+0x342>
    85e8:	69f8      	ldr	r0, [r7, #28]
    85ea:	f7f8 fe57 	bl	129c <tcp_seg_free>
    85ee:	687b      	ldr	r3, [r7, #4]
    85f0:	6f5b      	ldr	r3, [r3, #116]	; 0x74
    85f2:	61fb      	str	r3, [r7, #28]
    85f4:	69fb      	ldr	r3, [r7, #28]
    85f6:	2b00      	cmp	r3, #0
    85f8:	d012      	beq.n	8620 <tcp_output+0x374>
    85fa:	69fb      	ldr	r3, [r7, #28]
    85fc:	691b      	ldr	r3, [r3, #16]
    85fe:	685b      	ldr	r3, [r3, #4]
    8600:	4618      	mov	r0, r3
    8602:	f7fb fc77 	bl	3ef4 <ntohl>
    8606:	4602      	mov	r2, r0
    8608:	687b      	ldr	r3, [r7, #4]
    860a:	6cdb      	ldr	r3, [r3, #76]	; 0x4c
    860c:	1ad2      	subs	r2, r2, r3
    860e:	69fb      	ldr	r3, [r7, #28]
    8610:	899b      	ldrh	r3, [r3, #12]
    8612:	18d2      	adds	r2, r2, r3
    8614:	68fb      	ldr	r3, [r7, #12]
    8616:	429a      	cmp	r2, r3
    8618:	f67f aed7 	bls.w	83ca <tcp_output+0x11e>
    861c:	e000      	b.n	8620 <tcp_output+0x374>
    861e:	bf00      	nop
    8620:	69fb      	ldr	r3, [r7, #28]
    8622:	2b00      	cmp	r3, #0
    8624:	d020      	beq.n	8668 <tcp_output+0x3bc>
    8626:	687b      	ldr	r3, [r7, #4]
    8628:	f893 30a0 	ldrb.w	r3, [r3, #160]	; 0xa0
    862c:	2b00      	cmp	r3, #0
    862e:	d11b      	bne.n	8668 <tcp_output+0x3bc>
    8630:	69fb      	ldr	r3, [r7, #28]
    8632:	691b      	ldr	r3, [r3, #16]
    8634:	685b      	ldr	r3, [r3, #4]
    8636:	4618      	mov	r0, r3
    8638:	f7fb fc5c 	bl	3ef4 <ntohl>
    863c:	4602      	mov	r2, r0
    863e:	687b      	ldr	r3, [r7, #4]
    8640:	6cdb      	ldr	r3, [r3, #76]	; 0x4c
    8642:	1ad2      	subs	r2, r2, r3
    8644:	69fb      	ldr	r3, [r7, #28]
    8646:	899b      	ldrh	r3, [r3, #12]
    8648:	18d2      	adds	r2, r2, r3
    864a:	687b      	ldr	r3, [r7, #4]
    864c:	f8b3 305c 	ldrh.w	r3, [r3, #92]	; 0x5c
    8650:	429a      	cmp	r2, r3
    8652:	d909      	bls.n	8668 <tcp_output+0x3bc>
    8654:	687b      	ldr	r3, [r7, #4]
    8656:	f04f 0200 	mov.w	r2, #0
    865a:	f8c3 209c 	str.w	r2, [r3, #156]	; 0x9c
    865e:	687b      	ldr	r3, [r7, #4]
    8660:	f04f 0201 	mov.w	r2, #1
    8664:	f883 20a0 	strb.w	r2, [r3, #160]	; 0xa0
    8668:	687b      	ldr	r3, [r7, #4]
    866a:	f893 3022 	ldrb.w	r3, [r3, #34]	; 0x22
    866e:	f003 037f 	and.w	r3, r3, #127	; 0x7f
    8672:	b2da      	uxtb	r2, r3
    8674:	687b      	ldr	r3, [r7, #4]
    8676:	f883 2022 	strb.w	r2, [r3, #34]	; 0x22
    867a:	f04f 0300 	mov.w	r3, #0
    867e:	b25b      	sxtb	r3, r3
    8680:	4618      	mov	r0, r3
    8682:	f107 0724 	add.w	r7, r7, #36	; 0x24
    8686:	46bd      	mov	sp, r7
    8688:	bdf0      	pop	{r4, r5, r6, r7, pc}
    868a:	bf00      	nop
    868c:	0000a590 	.word	0x0000a590

00008690 <tcp_output_segment>:
    8690:	b590      	push	{r4, r7, lr}
    8692:	b089      	sub	sp, #36	; 0x24
    8694:	af02      	add	r7, sp, #8
    8696:	6078      	str	r0, [r7, #4]
    8698:	6039      	str	r1, [r7, #0]
    869a:	687b      	ldr	r3, [r7, #4]
    869c:	691c      	ldr	r4, [r3, #16]
    869e:	683b      	ldr	r3, [r7, #0]
    86a0:	6a5b      	ldr	r3, [r3, #36]	; 0x24
    86a2:	4618      	mov	r0, r3
    86a4:	f7fb fc08 	bl	3eb8 <htonl>
    86a8:	4603      	mov	r3, r0
    86aa:	60a3      	str	r3, [r4, #8]
    86ac:	687b      	ldr	r3, [r7, #4]
    86ae:	691c      	ldr	r4, [r3, #16]
    86b0:	683b      	ldr	r3, [r7, #0]
    86b2:	8d5b      	ldrh	r3, [r3, #42]	; 0x2a
    86b4:	4618      	mov	r0, r3
    86b6:	f7fb fbd7 	bl	3e68 <htons>
    86ba:	4603      	mov	r3, r0
    86bc:	81e3      	strh	r3, [r4, #14]
    86be:	683b      	ldr	r3, [r7, #0]
    86c0:	6a5a      	ldr	r2, [r3, #36]	; 0x24
    86c2:	683b      	ldr	r3, [r7, #0]
    86c4:	8d5b      	ldrh	r3, [r3, #42]	; 0x2a
    86c6:	18d2      	adds	r2, r2, r3
    86c8:	683b      	ldr	r3, [r7, #0]
    86ca:	62da      	str	r2, [r3, #44]	; 0x2c
    86cc:	687b      	ldr	r3, [r7, #4]
    86ce:	691b      	ldr	r3, [r3, #16]
    86d0:	f103 0314 	add.w	r3, r3, #20
    86d4:	617b      	str	r3, [r7, #20]
    86d6:	687b      	ldr	r3, [r7, #4]
    86d8:	7b9b      	ldrb	r3, [r3, #14]
    86da:	f003 0301 	and.w	r3, r3, #1
    86de:	b2db      	uxtb	r3, r3
    86e0:	2b00      	cmp	r3, #0
    86e2:	d009      	beq.n	86f8 <tcp_output_segment+0x68>
    86e4:	485d      	ldr	r0, [pc, #372]	; (885c <tcp_output_segment+0x1cc>)
    86e6:	f7fb fbe7 	bl	3eb8 <htonl>
    86ea:	4602      	mov	r2, r0
    86ec:	697b      	ldr	r3, [r7, #20]
    86ee:	601a      	str	r2, [r3, #0]
    86f0:	697b      	ldr	r3, [r7, #20]
    86f2:	f103 0304 	add.w	r3, r3, #4
    86f6:	617b      	str	r3, [r7, #20]
    86f8:	683b      	ldr	r3, [r7, #0]
    86fa:	2b00      	cmp	r3, #0
    86fc:	d003      	beq.n	8706 <tcp_output_segment+0x76>
    86fe:	683b      	ldr	r3, [r7, #0]
    8700:	681b      	ldr	r3, [r3, #0]
    8702:	2b00      	cmp	r3, #0
    8704:	d116      	bne.n	8734 <tcp_output_segment+0xa4>
    8706:	683b      	ldr	r3, [r7, #0]
    8708:	f103 0304 	add.w	r3, r3, #4
    870c:	4618      	mov	r0, r3
    870e:	f7fe fb6d 	bl	6dec <ip_route>
    8712:	6138      	str	r0, [r7, #16]
    8714:	693b      	ldr	r3, [r7, #16]
    8716:	2b00      	cmp	r3, #0
    8718:	f000 809a 	beq.w	8850 <tcp_output_segment+0x1c0>
    871c:	693b      	ldr	r3, [r7, #16]
    871e:	f103 0304 	add.w	r3, r3, #4
    8722:	2b00      	cmp	r3, #0
    8724:	d002      	beq.n	872c <tcp_output_segment+0x9c>
    8726:	693b      	ldr	r3, [r7, #16]
    8728:	685b      	ldr	r3, [r3, #4]
    872a:	e001      	b.n	8730 <tcp_output_segment+0xa0>
    872c:	f04f 0300 	mov.w	r3, #0
    8730:	683a      	ldr	r2, [r7, #0]
    8732:	6013      	str	r3, [r2, #0]
    8734:	683b      	ldr	r3, [r7, #0]
    8736:	8edb      	ldrh	r3, [r3, #54]	; 0x36
    8738:	b21b      	sxth	r3, r3
    873a:	f1b3 3fff 	cmp.w	r3, #4294967295
    873e:	d103      	bne.n	8748 <tcp_output_segment+0xb8>
    8740:	683b      	ldr	r3, [r7, #0]
    8742:	f04f 0200 	mov.w	r2, #0
    8746:	86da      	strh	r2, [r3, #54]	; 0x36
    8748:	683b      	ldr	r3, [r7, #0]
    874a:	6bdb      	ldr	r3, [r3, #60]	; 0x3c
    874c:	2b00      	cmp	r3, #0
    874e:	d112      	bne.n	8776 <tcp_output_segment+0xe6>
    8750:	4b43      	ldr	r3, [pc, #268]	; (8860 <tcp_output_segment+0x1d0>)
    8752:	681a      	ldr	r2, [r3, #0]
    8754:	683b      	ldr	r3, [r7, #0]
    8756:	63da      	str	r2, [r3, #60]	; 0x3c
    8758:	687b      	ldr	r3, [r7, #4]
    875a:	691b      	ldr	r3, [r3, #16]
    875c:	685b      	ldr	r3, [r3, #4]
    875e:	4618      	mov	r0, r3
    8760:	f7fb fbc8 	bl	3ef4 <ntohl>
    8764:	4602      	mov	r2, r0
    8766:	683b      	ldr	r3, [r7, #0]
    8768:	641a      	str	r2, [r3, #64]	; 0x40
    876a:	683b      	ldr	r3, [r7, #0]
    876c:	6c1b      	ldr	r3, [r3, #64]	; 0x40
    876e:	483d      	ldr	r0, [pc, #244]	; (8864 <tcp_output_segment+0x1d4>)
    8770:	4619      	mov	r1, r3
    8772:	f7fd f8c3 	bl	58fc <DebugPrintf>
    8776:	687b      	ldr	r3, [r7, #4]
    8778:	691b      	ldr	r3, [r3, #16]
    877a:	685b      	ldr	r3, [r3, #4]
    877c:	4618      	mov	r0, r3
    877e:	f7fb fb9b 	bl	3eb8 <htonl>
    8782:	4604      	mov	r4, r0
    8784:	687b      	ldr	r3, [r7, #4]
    8786:	691b      	ldr	r3, [r3, #16]
    8788:	685b      	ldr	r3, [r3, #4]
    878a:	4618      	mov	r0, r3
    878c:	f7fb fb94 	bl	3eb8 <htonl>
    8790:	4602      	mov	r2, r0
    8792:	687b      	ldr	r3, [r7, #4]
    8794:	899b      	ldrh	r3, [r3, #12]
    8796:	18d3      	adds	r3, r2, r3
    8798:	4833      	ldr	r0, [pc, #204]	; (8868 <tcp_output_segment+0x1d8>)
    879a:	4621      	mov	r1, r4
    879c:	461a      	mov	r2, r3
    879e:	f7fd f8ad 	bl	58fc <DebugPrintf>
    87a2:	687b      	ldr	r3, [r7, #4]
    87a4:	691b      	ldr	r3, [r3, #16]
    87a6:	b29a      	uxth	r2, r3
    87a8:	687b      	ldr	r3, [r7, #4]
    87aa:	685b      	ldr	r3, [r3, #4]
    87ac:	685b      	ldr	r3, [r3, #4]
    87ae:	b29b      	uxth	r3, r3
    87b0:	1ad3      	subs	r3, r2, r3
    87b2:	81fb      	strh	r3, [r7, #14]
    87b4:	687b      	ldr	r3, [r7, #4]
    87b6:	685b      	ldr	r3, [r3, #4]
    87b8:	687a      	ldr	r2, [r7, #4]
    87ba:	6852      	ldr	r2, [r2, #4]
    87bc:	8951      	ldrh	r1, [r2, #10]
    87be:	89fa      	ldrh	r2, [r7, #14]
    87c0:	1a8a      	subs	r2, r1, r2
    87c2:	b292      	uxth	r2, r2
    87c4:	815a      	strh	r2, [r3, #10]
    87c6:	687b      	ldr	r3, [r7, #4]
    87c8:	685b      	ldr	r3, [r3, #4]
    87ca:	687a      	ldr	r2, [r7, #4]
    87cc:	6852      	ldr	r2, [r2, #4]
    87ce:	8911      	ldrh	r1, [r2, #8]
    87d0:	89fa      	ldrh	r2, [r7, #14]
    87d2:	1a8a      	subs	r2, r1, r2
    87d4:	b292      	uxth	r2, r2
    87d6:	811a      	strh	r2, [r3, #8]
    87d8:	687b      	ldr	r3, [r7, #4]
    87da:	685b      	ldr	r3, [r3, #4]
    87dc:	687a      	ldr	r2, [r7, #4]
    87de:	6912      	ldr	r2, [r2, #16]
    87e0:	605a      	str	r2, [r3, #4]
    87e2:	687b      	ldr	r3, [r7, #4]
    87e4:	691b      	ldr	r3, [r3, #16]
    87e6:	f04f 0200 	mov.w	r2, #0
    87ea:	741a      	strb	r2, [r3, #16]
    87ec:	f04f 0200 	mov.w	r2, #0
    87f0:	745a      	strb	r2, [r3, #17]
    87f2:	687b      	ldr	r3, [r7, #4]
    87f4:	691c      	ldr	r4, [r3, #16]
    87f6:	687b      	ldr	r3, [r7, #4]
    87f8:	6859      	ldr	r1, [r3, #4]
    87fa:	683a      	ldr	r2, [r7, #0]
    87fc:	683b      	ldr	r3, [r7, #0]
    87fe:	f103 0304 	add.w	r3, r3, #4
    8802:	6878      	ldr	r0, [r7, #4]
    8804:	6840      	ldr	r0, [r0, #4]
    8806:	8900      	ldrh	r0, [r0, #8]
    8808:	9000      	str	r0, [sp, #0]
    880a:	4608      	mov	r0, r1
    880c:	4611      	mov	r1, r2
    880e:	461a      	mov	r2, r3
    8810:	f04f 0306 	mov.w	r3, #6
    8814:	f7fa fc06 	bl	3024 <inet_chksum_pseudo>
    8818:	4603      	mov	r3, r0
    881a:	8223      	strh	r3, [r4, #16]
    881c:	4b13      	ldr	r3, [pc, #76]	; (886c <tcp_output_segment+0x1dc>)
    881e:	f8b3 3078 	ldrh.w	r3, [r3, #120]	; 0x78
    8822:	f103 0301 	add.w	r3, r3, #1
    8826:	b29a      	uxth	r2, r3
    8828:	4b10      	ldr	r3, [pc, #64]	; (886c <tcp_output_segment+0x1dc>)
    882a:	f8a3 2078 	strh.w	r2, [r3, #120]	; 0x78
    882e:	687b      	ldr	r3, [r7, #4]
    8830:	6858      	ldr	r0, [r3, #4]
    8832:	6839      	ldr	r1, [r7, #0]
    8834:	683b      	ldr	r3, [r7, #0]
    8836:	f103 0204 	add.w	r2, r3, #4
    883a:	683b      	ldr	r3, [r7, #0]
    883c:	7adb      	ldrb	r3, [r3, #11]
    883e:	683c      	ldr	r4, [r7, #0]
    8840:	7aa4      	ldrb	r4, [r4, #10]
    8842:	9400      	str	r4, [sp, #0]
    8844:	f04f 0406 	mov.w	r4, #6
    8848:	9401      	str	r4, [sp, #4]
    884a:	f7fe fbff 	bl	704c <ip_output>
    884e:	e000      	b.n	8852 <tcp_output_segment+0x1c2>
    8850:	bf00      	nop
    8852:	f107 071c 	add.w	r7, r7, #28
    8856:	46bd      	mov	sp, r7
    8858:	bd90      	pop	{r4, r7, pc}
    885a:	bf00      	nop
    885c:	020405dc 	.word	0x020405dc
    8860:	20003dd8 	.word	0x20003dd8
    8864:	0000a5dc 	.word	0x0000a5dc
    8868:	0000a5fc 	.word	0x0000a5fc
    886c:	20004128 	.word	0x20004128

00008870 <tcp_rst>:
    8870:	b590      	push	{r4, r7, lr}
    8872:	b089      	sub	sp, #36	; 0x24
    8874:	af02      	add	r7, sp, #8
    8876:	60f8      	str	r0, [r7, #12]
    8878:	60b9      	str	r1, [r7, #8]
    887a:	607a      	str	r2, [r7, #4]
    887c:	603b      	str	r3, [r7, #0]
    887e:	f04f 0001 	mov.w	r0, #1
    8882:	f04f 0114 	mov.w	r1, #20
    8886:	f04f 0200 	mov.w	r2, #0
    888a:	f7fa ffc5 	bl	3818 <pbuf_alloc>
    888e:	6178      	str	r0, [r7, #20]
    8890:	697b      	ldr	r3, [r7, #20]
    8892:	2b00      	cmp	r3, #0
    8894:	d103      	bne.n	889e <tcp_rst+0x2e>
    8896:	4849      	ldr	r0, [pc, #292]	; (89bc <tcp_rst+0x14c>)
    8898:	f7fd f830 	bl	58fc <DebugPrintf>
    889c:	e089      	b.n	89b2 <tcp_rst+0x142>
    889e:	697b      	ldr	r3, [r7, #20]
    88a0:	685b      	ldr	r3, [r3, #4]
    88a2:	613b      	str	r3, [r7, #16]
    88a4:	8d3b      	ldrh	r3, [r7, #40]	; 0x28
    88a6:	4618      	mov	r0, r3
    88a8:	f7fb fade 	bl	3e68 <htons>
    88ac:	4603      	mov	r3, r0
    88ae:	461a      	mov	r2, r3
    88b0:	693b      	ldr	r3, [r7, #16]
    88b2:	801a      	strh	r2, [r3, #0]
    88b4:	8dbb      	ldrh	r3, [r7, #44]	; 0x2c
    88b6:	4618      	mov	r0, r3
    88b8:	f7fb fad6 	bl	3e68 <htons>
    88bc:	4603      	mov	r3, r0
    88be:	461a      	mov	r2, r3
    88c0:	693b      	ldr	r3, [r7, #16]
    88c2:	805a      	strh	r2, [r3, #2]
    88c4:	68f8      	ldr	r0, [r7, #12]
    88c6:	f7fb faf7 	bl	3eb8 <htonl>
    88ca:	4602      	mov	r2, r0
    88cc:	693b      	ldr	r3, [r7, #16]
    88ce:	605a      	str	r2, [r3, #4]
    88d0:	68b8      	ldr	r0, [r7, #8]
    88d2:	f7fb faf1 	bl	3eb8 <htonl>
    88d6:	4602      	mov	r2, r0
    88d8:	693b      	ldr	r3, [r7, #16]
    88da:	609a      	str	r2, [r3, #8]
    88dc:	693b      	ldr	r3, [r7, #16]
    88de:	899b      	ldrh	r3, [r3, #12]
    88e0:	b29c      	uxth	r4, r3
    88e2:	f64f 70c0 	movw	r0, #65472	; 0xffc0
    88e6:	f7fb fabf 	bl	3e68 <htons>
    88ea:	4603      	mov	r3, r0
    88ec:	ea04 0303 	and.w	r3, r4, r3
    88f0:	b29c      	uxth	r4, r3
    88f2:	f04f 0014 	mov.w	r0, #20
    88f6:	f7fb fab7 	bl	3e68 <htons>
    88fa:	4603      	mov	r3, r0
    88fc:	ea44 0303 	orr.w	r3, r4, r3
    8900:	b29a      	uxth	r2, r3
    8902:	693b      	ldr	r3, [r7, #16]
    8904:	819a      	strh	r2, [r3, #12]
    8906:	f44f 5080 	mov.w	r0, #4096	; 0x1000
    890a:	f7fb faad 	bl	3e68 <htons>
    890e:	4603      	mov	r3, r0
    8910:	461a      	mov	r2, r3
    8912:	693b      	ldr	r3, [r7, #16]
    8914:	81da      	strh	r2, [r3, #14]
    8916:	693b      	ldr	r3, [r7, #16]
    8918:	f04f 0200 	mov.w	r2, #0
    891c:	749a      	strb	r2, [r3, #18]
    891e:	f04f 0200 	mov.w	r2, #0
    8922:	74da      	strb	r2, [r3, #19]
    8924:	693b      	ldr	r3, [r7, #16]
    8926:	899b      	ldrh	r3, [r3, #12]
    8928:	b29b      	uxth	r3, r3
    892a:	4618      	mov	r0, r3
    892c:	f7fb fab4 	bl	3e98 <ntohs>
    8930:	4603      	mov	r3, r0
    8932:	f003 033f 	and.w	r3, r3, #63	; 0x3f
    8936:	b29b      	uxth	r3, r3
    8938:	f443 43a0 	orr.w	r3, r3, #20480	; 0x5000
    893c:	b29b      	uxth	r3, r3
    893e:	4618      	mov	r0, r3
    8940:	f7fb fa92 	bl	3e68 <htons>
    8944:	4603      	mov	r3, r0
    8946:	461a      	mov	r2, r3
    8948:	693b      	ldr	r3, [r7, #16]
    894a:	819a      	strh	r2, [r3, #12]
    894c:	693b      	ldr	r3, [r7, #16]
    894e:	f04f 0200 	mov.w	r2, #0
    8952:	741a      	strb	r2, [r3, #16]
    8954:	f04f 0200 	mov.w	r2, #0
    8958:	745a      	strb	r2, [r3, #17]
    895a:	697b      	ldr	r3, [r7, #20]
    895c:	891b      	ldrh	r3, [r3, #8]
    895e:	9300      	str	r3, [sp, #0]
    8960:	6978      	ldr	r0, [r7, #20]
    8962:	6879      	ldr	r1, [r7, #4]
    8964:	683a      	ldr	r2, [r7, #0]
    8966:	f04f 0306 	mov.w	r3, #6
    896a:	f7fa fb5b 	bl	3024 <inet_chksum_pseudo>
    896e:	4603      	mov	r3, r0
    8970:	461a      	mov	r2, r3
    8972:	693b      	ldr	r3, [r7, #16]
    8974:	821a      	strh	r2, [r3, #16]
    8976:	4b12      	ldr	r3, [pc, #72]	; (89c0 <tcp_rst+0x150>)
    8978:	f8b3 3078 	ldrh.w	r3, [r3, #120]	; 0x78
    897c:	f103 0301 	add.w	r3, r3, #1
    8980:	b29a      	uxth	r2, r3
    8982:	4b0f      	ldr	r3, [pc, #60]	; (89c0 <tcp_rst+0x150>)
    8984:	f8a3 2078 	strh.w	r2, [r3, #120]	; 0x78
    8988:	f04f 0300 	mov.w	r3, #0
    898c:	9300      	str	r3, [sp, #0]
    898e:	f04f 0306 	mov.w	r3, #6
    8992:	9301      	str	r3, [sp, #4]
    8994:	6978      	ldr	r0, [r7, #20]
    8996:	6879      	ldr	r1, [r7, #4]
    8998:	683a      	ldr	r2, [r7, #0]
    899a:	f04f 03ff 	mov.w	r3, #255	; 0xff
    899e:	f7fe fb55 	bl	704c <ip_output>
    89a2:	6978      	ldr	r0, [r7, #20]
    89a4:	f7fb f90e 	bl	3bc4 <pbuf_free>
    89a8:	4806      	ldr	r0, [pc, #24]	; (89c4 <tcp_rst+0x154>)
    89aa:	68f9      	ldr	r1, [r7, #12]
    89ac:	68ba      	ldr	r2, [r7, #8]
    89ae:	f7fc ffa5 	bl	58fc <DebugPrintf>
    89b2:	f107 071c 	add.w	r7, r7, #28
    89b6:	46bd      	mov	sp, r7
    89b8:	bd90      	pop	{r4, r7, pc}
    89ba:	bf00      	nop
    89bc:	0000a618 	.word	0x0000a618
    89c0:	20004128 	.word	0x20004128
    89c4:	0000a648 	.word	0x0000a648

000089c8 <tcp_rexmit_rto>:
    89c8:	b580      	push	{r7, lr}
    89ca:	b084      	sub	sp, #16
    89cc:	af00      	add	r7, sp, #0
    89ce:	6078      	str	r0, [r7, #4]
    89d0:	687b      	ldr	r3, [r7, #4]
    89d2:	6f9b      	ldr	r3, [r3, #120]	; 0x78
    89d4:	2b00      	cmp	r3, #0
    89d6:	d027      	beq.n	8a28 <tcp_rexmit_rto+0x60>
    89d8:	687b      	ldr	r3, [r7, #4]
    89da:	6f9b      	ldr	r3, [r3, #120]	; 0x78
    89dc:	60fb      	str	r3, [r7, #12]
    89de:	e002      	b.n	89e6 <tcp_rexmit_rto+0x1e>
    89e0:	68fb      	ldr	r3, [r7, #12]
    89e2:	681b      	ldr	r3, [r3, #0]
    89e4:	60fb      	str	r3, [r7, #12]
    89e6:	68fb      	ldr	r3, [r7, #12]
    89e8:	681b      	ldr	r3, [r3, #0]
    89ea:	2b00      	cmp	r3, #0
    89ec:	d1f8      	bne.n	89e0 <tcp_rexmit_rto+0x18>
    89ee:	687b      	ldr	r3, [r7, #4]
    89f0:	6f5a      	ldr	r2, [r3, #116]	; 0x74
    89f2:	68fb      	ldr	r3, [r7, #12]
    89f4:	601a      	str	r2, [r3, #0]
    89f6:	687b      	ldr	r3, [r7, #4]
    89f8:	6f9a      	ldr	r2, [r3, #120]	; 0x78
    89fa:	687b      	ldr	r3, [r7, #4]
    89fc:	675a      	str	r2, [r3, #116]	; 0x74
    89fe:	687b      	ldr	r3, [r7, #4]
    8a00:	f04f 0200 	mov.w	r2, #0
    8a04:	679a      	str	r2, [r3, #120]	; 0x78
    8a06:	687b      	ldr	r3, [r7, #4]
    8a08:	f893 304a 	ldrb.w	r3, [r3, #74]	; 0x4a
    8a0c:	f103 0301 	add.w	r3, r3, #1
    8a10:	b2da      	uxtb	r2, r3
    8a12:	687b      	ldr	r3, [r7, #4]
    8a14:	f883 204a 	strb.w	r2, [r3, #74]	; 0x4a
    8a18:	687b      	ldr	r3, [r7, #4]
    8a1a:	f04f 0200 	mov.w	r2, #0
    8a1e:	63da      	str	r2, [r3, #60]	; 0x3c
    8a20:	6878      	ldr	r0, [r7, #4]
    8a22:	f7ff fc43 	bl	82ac <tcp_output>
    8a26:	e000      	b.n	8a2a <tcp_rexmit_rto+0x62>
    8a28:	bf00      	nop
    8a2a:	f107 0710 	add.w	r7, r7, #16
    8a2e:	46bd      	mov	sp, r7
    8a30:	bd80      	pop	{r7, pc}
    8a32:	bf00      	nop

00008a34 <tcp_keepalive>:
    8a34:	b5f0      	push	{r4, r5, r6, r7, lr}
    8a36:	b087      	sub	sp, #28
    8a38:	af02      	add	r7, sp, #8
    8a3a:	6078      	str	r0, [r7, #4]
    8a3c:	687b      	ldr	r3, [r7, #4]
    8a3e:	685b      	ldr	r3, [r3, #4]
    8a40:	4618      	mov	r0, r3
    8a42:	f7fb fa57 	bl	3ef4 <ntohl>
    8a46:	4603      	mov	r3, r0
    8a48:	ea4f 6313 	mov.w	r3, r3, lsr #24
    8a4c:	b29b      	uxth	r3, r3
    8a4e:	f003 06ff 	and.w	r6, r3, #255	; 0xff
    8a52:	687b      	ldr	r3, [r7, #4]
    8a54:	685b      	ldr	r3, [r3, #4]
    8a56:	4618      	mov	r0, r3
    8a58:	f7fb fa4c 	bl	3ef4 <ntohl>
    8a5c:	4603      	mov	r3, r0
    8a5e:	ea4f 4313 	mov.w	r3, r3, lsr #16
    8a62:	b29b      	uxth	r3, r3
    8a64:	f003 05ff 	and.w	r5, r3, #255	; 0xff
    8a68:	687b      	ldr	r3, [r7, #4]
    8a6a:	685b      	ldr	r3, [r3, #4]
    8a6c:	4618      	mov	r0, r3
    8a6e:	f7fb fa41 	bl	3ef4 <ntohl>
    8a72:	4603      	mov	r3, r0
    8a74:	ea4f 2313 	mov.w	r3, r3, lsr #8
    8a78:	b29b      	uxth	r3, r3
    8a7a:	f003 04ff 	and.w	r4, r3, #255	; 0xff
    8a7e:	687b      	ldr	r3, [r7, #4]
    8a80:	685b      	ldr	r3, [r3, #4]
    8a82:	4618      	mov	r0, r3
    8a84:	f7fb fa36 	bl	3ef4 <ntohl>
    8a88:	4603      	mov	r3, r0
    8a8a:	b29b      	uxth	r3, r3
    8a8c:	f003 03ff 	and.w	r3, r3, #255	; 0xff
    8a90:	9300      	str	r3, [sp, #0]
    8a92:	4835      	ldr	r0, [pc, #212]	; (8b68 <tcp_keepalive+0x134>)
    8a94:	4631      	mov	r1, r6
    8a96:	462a      	mov	r2, r5
    8a98:	4623      	mov	r3, r4
    8a9a:	f7fc ff2f 	bl	58fc <DebugPrintf>
    8a9e:	4b33      	ldr	r3, [pc, #204]	; (8b6c <tcp_keepalive+0x138>)
    8aa0:	6819      	ldr	r1, [r3, #0]
    8aa2:	687b      	ldr	r3, [r7, #4]
    8aa4:	6b1a      	ldr	r2, [r3, #48]	; 0x30
    8aa6:	687b      	ldr	r3, [r7, #4]
    8aa8:	f893 30a1 	ldrb.w	r3, [r3, #161]	; 0xa1
    8aac:	4830      	ldr	r0, [pc, #192]	; (8b70 <tcp_keepalive+0x13c>)
    8aae:	f7fc ff25 	bl	58fc <DebugPrintf>
    8ab2:	f04f 0001 	mov.w	r0, #1
    8ab6:	f04f 0114 	mov.w	r1, #20
    8aba:	f04f 0200 	mov.w	r2, #0
    8abe:	f7fa feab 	bl	3818 <pbuf_alloc>
    8ac2:	60f8      	str	r0, [r7, #12]
    8ac4:	68fb      	ldr	r3, [r7, #12]
    8ac6:	2b00      	cmp	r3, #0
    8ac8:	d103      	bne.n	8ad2 <tcp_keepalive+0x9e>
    8aca:	482a      	ldr	r0, [pc, #168]	; (8b74 <tcp_keepalive+0x140>)
    8acc:	f7fc ff16 	bl	58fc <DebugPrintf>
    8ad0:	e046      	b.n	8b60 <tcp_keepalive+0x12c>
    8ad2:	687b      	ldr	r3, [r7, #4]
    8ad4:	6d9b      	ldr	r3, [r3, #88]	; 0x58
    8ad6:	f103 33ff 	add.w	r3, r3, #4294967295
    8ada:	4618      	mov	r0, r3
    8adc:	f7fb f9ec 	bl	3eb8 <htonl>
    8ae0:	4603      	mov	r3, r0
    8ae2:	6878      	ldr	r0, [r7, #4]
    8ae4:	68f9      	ldr	r1, [r7, #12]
    8ae6:	f04f 0200 	mov.w	r2, #0
    8aea:	f7fe fed3 	bl	7894 <tcp_output_set_header>
    8aee:	60b8      	str	r0, [r7, #8]
    8af0:	687a      	ldr	r2, [r7, #4]
    8af2:	687b      	ldr	r3, [r7, #4]
    8af4:	f103 0304 	add.w	r3, r3, #4
    8af8:	68f9      	ldr	r1, [r7, #12]
    8afa:	8909      	ldrh	r1, [r1, #8]
    8afc:	9100      	str	r1, [sp, #0]
    8afe:	68f8      	ldr	r0, [r7, #12]
    8b00:	4611      	mov	r1, r2
    8b02:	461a      	mov	r2, r3
    8b04:	f04f 0306 	mov.w	r3, #6
    8b08:	f7fa fa8c 	bl	3024 <inet_chksum_pseudo>
    8b0c:	4603      	mov	r3, r0
    8b0e:	461a      	mov	r2, r3
    8b10:	68bb      	ldr	r3, [r7, #8]
    8b12:	821a      	strh	r2, [r3, #16]
    8b14:	4b18      	ldr	r3, [pc, #96]	; (8b78 <tcp_keepalive+0x144>)
    8b16:	f8b3 3078 	ldrh.w	r3, [r3, #120]	; 0x78
    8b1a:	f103 0301 	add.w	r3, r3, #1
    8b1e:	b29a      	uxth	r2, r3
    8b20:	4b15      	ldr	r3, [pc, #84]	; (8b78 <tcp_keepalive+0x144>)
    8b22:	f8a3 2078 	strh.w	r2, [r3, #120]	; 0x78
    8b26:	6879      	ldr	r1, [r7, #4]
    8b28:	687b      	ldr	r3, [r7, #4]
    8b2a:	f103 0204 	add.w	r2, r3, #4
    8b2e:	687b      	ldr	r3, [r7, #4]
    8b30:	7adb      	ldrb	r3, [r3, #11]
    8b32:	f04f 0000 	mov.w	r0, #0
    8b36:	9000      	str	r0, [sp, #0]
    8b38:	f04f 0006 	mov.w	r0, #6
    8b3c:	9001      	str	r0, [sp, #4]
    8b3e:	68f8      	ldr	r0, [r7, #12]
    8b40:	f7fe fa84 	bl	704c <ip_output>
    8b44:	68f8      	ldr	r0, [r7, #12]
    8b46:	f7fb f83d 	bl	3bc4 <pbuf_free>
    8b4a:	687b      	ldr	r3, [r7, #4]
    8b4c:	6d9b      	ldr	r3, [r3, #88]	; 0x58
    8b4e:	f103 32ff 	add.w	r2, r3, #4294967295
    8b52:	687b      	ldr	r3, [r7, #4]
    8b54:	6a5b      	ldr	r3, [r3, #36]	; 0x24
    8b56:	4809      	ldr	r0, [pc, #36]	; (8b7c <tcp_keepalive+0x148>)
    8b58:	4611      	mov	r1, r2
    8b5a:	461a      	mov	r2, r3
    8b5c:	f7fc fece 	bl	58fc <DebugPrintf>
    8b60:	f107 0714 	add.w	r7, r7, #20
    8b64:	46bd      	mov	sp, r7
    8b66:	bdf0      	pop	{r4, r5, r6, r7, pc}
    8b68:	0000a6e8 	.word	0x0000a6e8
    8b6c:	20003dd8 	.word	0x20003dd8
    8b70:	0000a720 	.word	0x0000a720
    8b74:	0000a764 	.word	0x0000a764
    8b78:	20004128 	.word	0x20004128
    8b7c:	0000a798 	.word	0x0000a798

00008b80 <tcp_zero_window_probe>:
    8b80:	b5f0      	push	{r4, r5, r6, r7, lr}
    8b82:	b089      	sub	sp, #36	; 0x24
    8b84:	af02      	add	r7, sp, #8
    8b86:	6078      	str	r0, [r7, #4]
    8b88:	687b      	ldr	r3, [r7, #4]
    8b8a:	685b      	ldr	r3, [r3, #4]
    8b8c:	4618      	mov	r0, r3
    8b8e:	f7fb f9b1 	bl	3ef4 <ntohl>
    8b92:	4603      	mov	r3, r0
    8b94:	ea4f 6313 	mov.w	r3, r3, lsr #24
    8b98:	b29b      	uxth	r3, r3
    8b9a:	f003 06ff 	and.w	r6, r3, #255	; 0xff
    8b9e:	687b      	ldr	r3, [r7, #4]
    8ba0:	685b      	ldr	r3, [r3, #4]
    8ba2:	4618      	mov	r0, r3
    8ba4:	f7fb f9a6 	bl	3ef4 <ntohl>
    8ba8:	4603      	mov	r3, r0
    8baa:	ea4f 4313 	mov.w	r3, r3, lsr #16
    8bae:	b29b      	uxth	r3, r3
    8bb0:	f003 05ff 	and.w	r5, r3, #255	; 0xff
    8bb4:	687b      	ldr	r3, [r7, #4]
    8bb6:	685b      	ldr	r3, [r3, #4]
    8bb8:	4618      	mov	r0, r3
    8bba:	f7fb f99b 	bl	3ef4 <ntohl>
    8bbe:	4603      	mov	r3, r0
    8bc0:	ea4f 2313 	mov.w	r3, r3, lsr #8
    8bc4:	b29b      	uxth	r3, r3
    8bc6:	f003 04ff 	and.w	r4, r3, #255	; 0xff
    8bca:	687b      	ldr	r3, [r7, #4]
    8bcc:	685b      	ldr	r3, [r3, #4]
    8bce:	4618      	mov	r0, r3
    8bd0:	f7fb f990 	bl	3ef4 <ntohl>
    8bd4:	4603      	mov	r3, r0
    8bd6:	b29b      	uxth	r3, r3
    8bd8:	f003 03ff 	and.w	r3, r3, #255	; 0xff
    8bdc:	9300      	str	r3, [sp, #0]
    8bde:	485b      	ldr	r0, [pc, #364]	; (8d4c <tcp_zero_window_probe+0x1cc>)
    8be0:	4631      	mov	r1, r6
    8be2:	462a      	mov	r2, r5
    8be4:	4623      	mov	r3, r4
    8be6:	f7fc fe89 	bl	58fc <DebugPrintf>
    8bea:	4b59      	ldr	r3, [pc, #356]	; (8d50 <tcp_zero_window_probe+0x1d0>)
    8bec:	6819      	ldr	r1, [r3, #0]
    8bee:	687b      	ldr	r3, [r7, #4]
    8bf0:	6b1a      	ldr	r2, [r3, #48]	; 0x30
    8bf2:	687b      	ldr	r3, [r7, #4]
    8bf4:	f893 30a1 	ldrb.w	r3, [r3, #161]	; 0xa1
    8bf8:	4856      	ldr	r0, [pc, #344]	; (8d54 <tcp_zero_window_probe+0x1d4>)
    8bfa:	f7fc fe7f 	bl	58fc <DebugPrintf>
    8bfe:	687b      	ldr	r3, [r7, #4]
    8c00:	6f9b      	ldr	r3, [r3, #120]	; 0x78
    8c02:	617b      	str	r3, [r7, #20]
    8c04:	697b      	ldr	r3, [r7, #20]
    8c06:	2b00      	cmp	r3, #0
    8c08:	d102      	bne.n	8c10 <tcp_zero_window_probe+0x90>
    8c0a:	687b      	ldr	r3, [r7, #4]
    8c0c:	6f5b      	ldr	r3, [r3, #116]	; 0x74
    8c0e:	617b      	str	r3, [r7, #20]
    8c10:	697b      	ldr	r3, [r7, #20]
    8c12:	2b00      	cmp	r3, #0
    8c14:	f000 8094 	beq.w	8d40 <tcp_zero_window_probe+0x1c0>
    8c18:	697b      	ldr	r3, [r7, #20]
    8c1a:	691b      	ldr	r3, [r3, #16]
    8c1c:	899b      	ldrh	r3, [r3, #12]
    8c1e:	b29b      	uxth	r3, r3
    8c20:	4618      	mov	r0, r3
    8c22:	f7fb f939 	bl	3e98 <ntohs>
    8c26:	4603      	mov	r3, r0
    8c28:	f003 0301 	and.w	r3, r3, #1
    8c2c:	b2db      	uxtb	r3, r3
    8c2e:	2b00      	cmp	r3, #0
    8c30:	d006      	beq.n	8c40 <tcp_zero_window_probe+0xc0>
    8c32:	697b      	ldr	r3, [r7, #20]
    8c34:	899b      	ldrh	r3, [r3, #12]
    8c36:	2b00      	cmp	r3, #0
    8c38:	d102      	bne.n	8c40 <tcp_zero_window_probe+0xc0>
    8c3a:	f04f 0301 	mov.w	r3, #1
    8c3e:	e001      	b.n	8c44 <tcp_zero_window_probe+0xc4>
    8c40:	f04f 0300 	mov.w	r3, #0
    8c44:	74fb      	strb	r3, [r7, #19]
    8c46:	7cfb      	ldrb	r3, [r7, #19]
    8c48:	2b00      	cmp	r3, #0
    8c4a:	d002      	beq.n	8c52 <tcp_zero_window_probe+0xd2>
    8c4c:	f04f 0314 	mov.w	r3, #20
    8c50:	e001      	b.n	8c56 <tcp_zero_window_probe+0xd6>
    8c52:	f04f 0315 	mov.w	r3, #21
    8c56:	823b      	strh	r3, [r7, #16]
    8c58:	8a3b      	ldrh	r3, [r7, #16]
    8c5a:	f04f 0001 	mov.w	r0, #1
    8c5e:	4619      	mov	r1, r3
    8c60:	f04f 0200 	mov.w	r2, #0
    8c64:	f7fa fdd8 	bl	3818 <pbuf_alloc>
    8c68:	60f8      	str	r0, [r7, #12]
    8c6a:	68fb      	ldr	r3, [r7, #12]
    8c6c:	2b00      	cmp	r3, #0
    8c6e:	d103      	bne.n	8c78 <tcp_zero_window_probe+0xf8>
    8c70:	4839      	ldr	r0, [pc, #228]	; (8d58 <tcp_zero_window_probe+0x1d8>)
    8c72:	f7fc fe43 	bl	58fc <DebugPrintf>
    8c76:	e064      	b.n	8d42 <tcp_zero_window_probe+0x1c2>
    8c78:	697b      	ldr	r3, [r7, #20]
    8c7a:	691b      	ldr	r3, [r3, #16]
    8c7c:	685b      	ldr	r3, [r3, #4]
    8c7e:	6878      	ldr	r0, [r7, #4]
    8c80:	68f9      	ldr	r1, [r7, #12]
    8c82:	f04f 0200 	mov.w	r2, #0
    8c86:	f7fe fe05 	bl	7894 <tcp_output_set_header>
    8c8a:	60b8      	str	r0, [r7, #8]
    8c8c:	7cfb      	ldrb	r3, [r7, #19]
    8c8e:	2b00      	cmp	r3, #0
    8c90:	d015      	beq.n	8cbe <tcp_zero_window_probe+0x13e>
    8c92:	68bb      	ldr	r3, [r7, #8]
    8c94:	899b      	ldrh	r3, [r3, #12]
    8c96:	b29c      	uxth	r4, r3
    8c98:	f64f 70c0 	movw	r0, #65472	; 0xffc0
    8c9c:	f7fb f8e4 	bl	3e68 <htons>
    8ca0:	4603      	mov	r3, r0
    8ca2:	ea04 0303 	and.w	r3, r4, r3
    8ca6:	b29c      	uxth	r4, r3
    8ca8:	f04f 0011 	mov.w	r0, #17
    8cac:	f7fb f8dc 	bl	3e68 <htons>
    8cb0:	4603      	mov	r3, r0
    8cb2:	ea44 0303 	orr.w	r3, r4, r3
    8cb6:	b29a      	uxth	r2, r3
    8cb8:	68bb      	ldr	r3, [r7, #8]
    8cba:	819a      	strh	r2, [r3, #12]
    8cbc:	e007      	b.n	8cce <tcp_zero_window_probe+0x14e>
    8cbe:	68fb      	ldr	r3, [r7, #12]
    8cc0:	685b      	ldr	r3, [r3, #4]
    8cc2:	f103 0314 	add.w	r3, r3, #20
    8cc6:	697a      	ldr	r2, [r7, #20]
    8cc8:	6892      	ldr	r2, [r2, #8]
    8cca:	7812      	ldrb	r2, [r2, #0]
    8ccc:	701a      	strb	r2, [r3, #0]
    8cce:	687a      	ldr	r2, [r7, #4]
    8cd0:	687b      	ldr	r3, [r7, #4]
    8cd2:	f103 0304 	add.w	r3, r3, #4
    8cd6:	68f9      	ldr	r1, [r7, #12]
    8cd8:	8909      	ldrh	r1, [r1, #8]
    8cda:	9100      	str	r1, [sp, #0]
    8cdc:	68f8      	ldr	r0, [r7, #12]
    8cde:	4611      	mov	r1, r2
    8ce0:	461a      	mov	r2, r3
    8ce2:	f04f 0306 	mov.w	r3, #6
    8ce6:	f7fa f99d 	bl	3024 <inet_chksum_pseudo>
    8cea:	4603      	mov	r3, r0
    8cec:	461a      	mov	r2, r3
    8cee:	68bb      	ldr	r3, [r7, #8]
    8cf0:	821a      	strh	r2, [r3, #16]
    8cf2:	4b1a      	ldr	r3, [pc, #104]	; (8d5c <tcp_zero_window_probe+0x1dc>)
    8cf4:	f8b3 3078 	ldrh.w	r3, [r3, #120]	; 0x78
    8cf8:	f103 0301 	add.w	r3, r3, #1
    8cfc:	b29a      	uxth	r2, r3
    8cfe:	4b17      	ldr	r3, [pc, #92]	; (8d5c <tcp_zero_window_probe+0x1dc>)
    8d00:	f8a3 2078 	strh.w	r2, [r3, #120]	; 0x78
    8d04:	6879      	ldr	r1, [r7, #4]
    8d06:	687b      	ldr	r3, [r7, #4]
    8d08:	f103 0204 	add.w	r2, r3, #4
    8d0c:	687b      	ldr	r3, [r7, #4]
    8d0e:	7adb      	ldrb	r3, [r3, #11]
    8d10:	f04f 0000 	mov.w	r0, #0
    8d14:	9000      	str	r0, [sp, #0]
    8d16:	f04f 0006 	mov.w	r0, #6
    8d1a:	9001      	str	r0, [sp, #4]
    8d1c:	68f8      	ldr	r0, [r7, #12]
    8d1e:	f7fe f995 	bl	704c <ip_output>
    8d22:	68f8      	ldr	r0, [r7, #12]
    8d24:	f7fa ff4e 	bl	3bc4 <pbuf_free>
    8d28:	687b      	ldr	r3, [r7, #4]
    8d2a:	6d9b      	ldr	r3, [r3, #88]	; 0x58
    8d2c:	f103 32ff 	add.w	r2, r3, #4294967295
    8d30:	687b      	ldr	r3, [r7, #4]
    8d32:	6a5b      	ldr	r3, [r3, #36]	; 0x24
    8d34:	480a      	ldr	r0, [pc, #40]	; (8d60 <tcp_zero_window_probe+0x1e0>)
    8d36:	4611      	mov	r1, r2
    8d38:	461a      	mov	r2, r3
    8d3a:	f7fc fddf 	bl	58fc <DebugPrintf>
    8d3e:	e000      	b.n	8d42 <tcp_zero_window_probe+0x1c2>
    8d40:	bf00      	nop
    8d42:	f107 071c 	add.w	r7, r7, #28
    8d46:	46bd      	mov	sp, r7
    8d48:	bdf0      	pop	{r4, r5, r6, r7, pc}
    8d4a:	bf00      	nop
    8d4c:	0000a7bc 	.word	0x0000a7bc
    8d50:	20003dd8 	.word	0x20003dd8
    8d54:	0000a800 	.word	0x0000a800
    8d58:	0000a84c 	.word	0x0000a84c
    8d5c:	20004128 	.word	0x20004128
    8d60:	0000a878 	.word	0x0000a878

00008d64 <raw_bind>:
    8d64:	b480      	push	{r7}
    8d66:	b083      	sub	sp, #12
    8d68:	af00      	add	r7, sp, #0
    8d6a:	6078      	str	r0, [r7, #4]
    8d6c:	6039      	str	r1, [r7, #0]
    8d6e:	683b      	ldr	r3, [r7, #0]
    8d70:	2b00      	cmp	r3, #0
    8d72:	d002      	beq.n	8d7a <raw_bind+0x16>
    8d74:	683b      	ldr	r3, [r7, #0]
    8d76:	681b      	ldr	r3, [r3, #0]
    8d78:	e001      	b.n	8d7e <raw_bind+0x1a>
    8d7a:	f04f 0300 	mov.w	r3, #0
    8d7e:	687a      	ldr	r2, [r7, #4]
    8d80:	6013      	str	r3, [r2, #0]
    8d82:	f04f 0300 	mov.w	r3, #0
    8d86:	b25b      	sxtb	r3, r3
    8d88:	4618      	mov	r0, r3
    8d8a:	f107 070c 	add.w	r7, r7, #12
    8d8e:	46bd      	mov	sp, r7
    8d90:	bc80      	pop	{r7}
    8d92:	4770      	bx	lr

00008d94 <raw_recv>:
    8d94:	b480      	push	{r7}
    8d96:	b085      	sub	sp, #20
    8d98:	af00      	add	r7, sp, #0
    8d9a:	60f8      	str	r0, [r7, #12]
    8d9c:	60b9      	str	r1, [r7, #8]
    8d9e:	607a      	str	r2, [r7, #4]
    8da0:	68fb      	ldr	r3, [r7, #12]
    8da2:	68ba      	ldr	r2, [r7, #8]
    8da4:	615a      	str	r2, [r3, #20]
    8da6:	68fb      	ldr	r3, [r7, #12]
    8da8:	687a      	ldr	r2, [r7, #4]
    8daa:	619a      	str	r2, [r3, #24]
    8dac:	f107 0714 	add.w	r7, r7, #20
    8db0:	46bd      	mov	sp, r7
    8db2:	bc80      	pop	{r7}
    8db4:	4770      	bx	lr
    8db6:	bf00      	nop

00008db8 <raw_remove>:
    8db8:	b580      	push	{r7, lr}
    8dba:	b084      	sub	sp, #16
    8dbc:	af00      	add	r7, sp, #0
    8dbe:	6078      	str	r0, [r7, #4]
    8dc0:	4b15      	ldr	r3, [pc, #84]	; (8e18 <raw_remove+0x60>)
    8dc2:	681a      	ldr	r2, [r3, #0]
    8dc4:	687b      	ldr	r3, [r7, #4]
    8dc6:	429a      	cmp	r2, r3
    8dc8:	d105      	bne.n	8dd6 <raw_remove+0x1e>
    8dca:	4b13      	ldr	r3, [pc, #76]	; (8e18 <raw_remove+0x60>)
    8dcc:	681b      	ldr	r3, [r3, #0]
    8dce:	68da      	ldr	r2, [r3, #12]
    8dd0:	4b11      	ldr	r3, [pc, #68]	; (8e18 <raw_remove+0x60>)
    8dd2:	601a      	str	r2, [r3, #0]
    8dd4:	e016      	b.n	8e04 <raw_remove+0x4c>
    8dd6:	4b10      	ldr	r3, [pc, #64]	; (8e18 <raw_remove+0x60>)
    8dd8:	681b      	ldr	r3, [r3, #0]
    8dda:	60fb      	str	r3, [r7, #12]
    8ddc:	e00f      	b.n	8dfe <raw_remove+0x46>
    8dde:	68fb      	ldr	r3, [r7, #12]
    8de0:	68db      	ldr	r3, [r3, #12]
    8de2:	2b00      	cmp	r3, #0
    8de4:	d008      	beq.n	8df8 <raw_remove+0x40>
    8de6:	68fb      	ldr	r3, [r7, #12]
    8de8:	68da      	ldr	r2, [r3, #12]
    8dea:	687b      	ldr	r3, [r7, #4]
    8dec:	429a      	cmp	r2, r3
    8dee:	d103      	bne.n	8df8 <raw_remove+0x40>
    8df0:	687b      	ldr	r3, [r7, #4]
    8df2:	68da      	ldr	r2, [r3, #12]
    8df4:	68fb      	ldr	r3, [r7, #12]
    8df6:	60da      	str	r2, [r3, #12]
    8df8:	68fb      	ldr	r3, [r7, #12]
    8dfa:	68db      	ldr	r3, [r3, #12]
    8dfc:	60fb      	str	r3, [r7, #12]
    8dfe:	68fb      	ldr	r3, [r7, #12]
    8e00:	2b00      	cmp	r3, #0
    8e02:	d1ec      	bne.n	8dde <raw_remove+0x26>
    8e04:	f04f 0000 	mov.w	r0, #0
    8e08:	6879      	ldr	r1, [r7, #4]
    8e0a:	f7f9 fa73 	bl	22f4 <memp_free>
    8e0e:	f107 0710 	add.w	r7, r7, #16
    8e12:	46bd      	mov	sp, r7
    8e14:	bd80      	pop	{r7, pc}
    8e16:	bf00      	nop
    8e18:	20003dd0 	.word	0x20003dd0

00008e1c <raw_new>:
    8e1c:	b580      	push	{r7, lr}
    8e1e:	b084      	sub	sp, #16
    8e20:	af00      	add	r7, sp, #0
    8e22:	4603      	mov	r3, r0
    8e24:	71fb      	strb	r3, [r7, #7]
    8e26:	4813      	ldr	r0, [pc, #76]	; (8e74 <raw_new+0x58>)
    8e28:	f7fc fd68 	bl	58fc <DebugPrintf>
    8e2c:	f04f 0000 	mov.w	r0, #0
    8e30:	f7f9 f9be 	bl	21b0 <memp_malloc>
    8e34:	4603      	mov	r3, r0
    8e36:	60fb      	str	r3, [r7, #12]
    8e38:	68fb      	ldr	r3, [r7, #12]
    8e3a:	2b00      	cmp	r3, #0
    8e3c:	d014      	beq.n	8e68 <raw_new+0x4c>
    8e3e:	68f8      	ldr	r0, [r7, #12]
    8e40:	f04f 0100 	mov.w	r1, #0
    8e44:	f04f 021c 	mov.w	r2, #28
    8e48:	f000 f8c0 	bl	8fcc <memset>
    8e4c:	68fb      	ldr	r3, [r7, #12]
    8e4e:	79fa      	ldrb	r2, [r7, #7]
    8e50:	741a      	strb	r2, [r3, #16]
    8e52:	68fb      	ldr	r3, [r7, #12]
    8e54:	f04f 02ff 	mov.w	r2, #255	; 0xff
    8e58:	72da      	strb	r2, [r3, #11]
    8e5a:	4b07      	ldr	r3, [pc, #28]	; (8e78 <raw_new+0x5c>)
    8e5c:	681a      	ldr	r2, [r3, #0]
    8e5e:	68fb      	ldr	r3, [r7, #12]
    8e60:	60da      	str	r2, [r3, #12]
    8e62:	4b05      	ldr	r3, [pc, #20]	; (8e78 <raw_new+0x5c>)
    8e64:	68fa      	ldr	r2, [r7, #12]
    8e66:	601a      	str	r2, [r3, #0]
    8e68:	68fb      	ldr	r3, [r7, #12]
    8e6a:	4618      	mov	r0, r3
    8e6c:	f107 0710 	add.w	r7, r7, #16
    8e70:	46bd      	mov	sp, r7
    8e72:	bd80      	pop	{r7, pc}
    8e74:	0000a930 	.word	0x0000a930
    8e78:	20003dd0 	.word	0x20003dd0

00008e7c <memcpy>:
    8e7c:	2a03      	cmp	r2, #3
    8e7e:	e92d 01f0 	stmdb	sp!, {r4, r5, r6, r7, r8}
    8e82:	d809      	bhi.n	8e98 <memcpy+0x1c>
    8e84:	b12a      	cbz	r2, 8e92 <memcpy+0x16>
    8e86:	2300      	movs	r3, #0
    8e88:	5ccc      	ldrb	r4, [r1, r3]
    8e8a:	54c4      	strb	r4, [r0, r3]
    8e8c:	3301      	adds	r3, #1
    8e8e:	4293      	cmp	r3, r2
    8e90:	d1fa      	bne.n	8e88 <memcpy+0xc>
    8e92:	e8bd 01f0 	ldmia.w	sp!, {r4, r5, r6, r7, r8}
    8e96:	4770      	bx	lr
    8e98:	460b      	mov	r3, r1
    8e9a:	1882      	adds	r2, r0, r2
    8e9c:	4601      	mov	r1, r0
    8e9e:	e003      	b.n	8ea8 <memcpy+0x2c>
    8ea0:	7824      	ldrb	r4, [r4, #0]
    8ea2:	3301      	adds	r3, #1
    8ea4:	f801 4b01 	strb.w	r4, [r1], #1
    8ea8:	f011 0f03 	tst.w	r1, #3
    8eac:	461c      	mov	r4, r3
    8eae:	d1f7      	bne.n	8ea0 <memcpy+0x24>
    8eb0:	f013 0503 	ands.w	r5, r3, #3
    8eb4:	d05d      	beq.n	8f72 <memcpy+0xf6>
    8eb6:	426e      	negs	r6, r5
    8eb8:	f1c5 0c04 	rsb	ip, r5, #4
    8ebc:	00ed      	lsls	r5, r5, #3
    8ebe:	599b      	ldr	r3, [r3, r6]
    8ec0:	ea4f 0ccc 	mov.w	ip, ip, lsl #3
    8ec4:	e008      	b.n	8ed8 <memcpy+0x5c>
    8ec6:	3404      	adds	r4, #4
    8ec8:	59a7      	ldr	r7, [r4, r6]
    8eca:	463b      	mov	r3, r7
    8ecc:	fa07 f70c 	lsl.w	r7, r7, ip
    8ed0:	ea48 0707 	orr.w	r7, r8, r7
    8ed4:	f841 7b04 	str.w	r7, [r1], #4
    8ed8:	1a57      	subs	r7, r2, r1
    8eda:	fa23 f805 	lsr.w	r8, r3, r5
    8ede:	2f03      	cmp	r7, #3
    8ee0:	dcf1      	bgt.n	8ec6 <memcpy+0x4a>
    8ee2:	e003      	b.n	8eec <memcpy+0x70>
    8ee4:	f814 3b01 	ldrb.w	r3, [r4], #1
    8ee8:	f801 3b01 	strb.w	r3, [r1], #1
    8eec:	428a      	cmp	r2, r1
    8eee:	d8f9      	bhi.n	8ee4 <memcpy+0x68>
    8ef0:	e7cf      	b.n	8e92 <memcpy+0x16>
    8ef2:	f853 4c40 	ldr.w	r4, [r3, #-64]
    8ef6:	f841 4c40 	str.w	r4, [r1, #-64]
    8efa:	f853 4c3c 	ldr.w	r4, [r3, #-60]
    8efe:	f841 4c3c 	str.w	r4, [r1, #-60]
    8f02:	f853 4c38 	ldr.w	r4, [r3, #-56]
    8f06:	f841 4c38 	str.w	r4, [r1, #-56]
    8f0a:	f853 4c34 	ldr.w	r4, [r3, #-52]
    8f0e:	f841 4c34 	str.w	r4, [r1, #-52]
    8f12:	f853 4c30 	ldr.w	r4, [r3, #-48]
    8f16:	f841 4c30 	str.w	r4, [r1, #-48]
    8f1a:	f853 4c2c 	ldr.w	r4, [r3, #-44]
    8f1e:	f841 4c2c 	str.w	r4, [r1, #-44]
    8f22:	f853 4c28 	ldr.w	r4, [r3, #-40]
    8f26:	f841 4c28 	str.w	r4, [r1, #-40]
    8f2a:	f853 4c24 	ldr.w	r4, [r3, #-36]
    8f2e:	f841 4c24 	str.w	r4, [r1, #-36]
    8f32:	f853 4c20 	ldr.w	r4, [r3, #-32]
    8f36:	f841 4c20 	str.w	r4, [r1, #-32]
    8f3a:	f853 4c1c 	ldr.w	r4, [r3, #-28]
    8f3e:	f841 4c1c 	str.w	r4, [r1, #-28]
    8f42:	f853 4c18 	ldr.w	r4, [r3, #-24]
    8f46:	f841 4c18 	str.w	r4, [r1, #-24]
    8f4a:	f853 4c14 	ldr.w	r4, [r3, #-20]
    8f4e:	f841 4c14 	str.w	r4, [r1, #-20]
    8f52:	f853 4c10 	ldr.w	r4, [r3, #-16]
    8f56:	f841 4c10 	str.w	r4, [r1, #-16]
    8f5a:	f853 4c0c 	ldr.w	r4, [r3, #-12]
    8f5e:	f841 4c0c 	str.w	r4, [r1, #-12]
    8f62:	f853 4c08 	ldr.w	r4, [r3, #-8]
    8f66:	f841 4c08 	str.w	r4, [r1, #-8]
    8f6a:	f853 4c04 	ldr.w	r4, [r3, #-4]
    8f6e:	f841 4c04 	str.w	r4, [r1, #-4]
    8f72:	1a56      	subs	r6, r2, r1
    8f74:	461d      	mov	r5, r3
    8f76:	460c      	mov	r4, r1
    8f78:	3340      	adds	r3, #64	; 0x40
    8f7a:	3140      	adds	r1, #64	; 0x40
    8f7c:	2e3f      	cmp	r6, #63	; 0x3f
    8f7e:	dcb8      	bgt.n	8ef2 <memcpy+0x76>
    8f80:	462b      	mov	r3, r5
    8f82:	e00f      	b.n	8fa4 <memcpy+0x128>
    8f84:	f853 1c10 	ldr.w	r1, [r3, #-16]
    8f88:	f844 1c10 	str.w	r1, [r4, #-16]
    8f8c:	f853 1c0c 	ldr.w	r1, [r3, #-12]
    8f90:	f844 1c0c 	str.w	r1, [r4, #-12]
    8f94:	f853 1c08 	ldr.w	r1, [r3, #-8]
    8f98:	f844 1c08 	str.w	r1, [r4, #-8]
    8f9c:	f853 1c04 	ldr.w	r1, [r3, #-4]
    8fa0:	f844 1c04 	str.w	r1, [r4, #-4]
    8fa4:	1b16      	subs	r6, r2, r4
    8fa6:	4621      	mov	r1, r4
    8fa8:	461d      	mov	r5, r3
    8faa:	3410      	adds	r4, #16
    8fac:	3310      	adds	r3, #16
    8fae:	2e0f      	cmp	r6, #15
    8fb0:	dce8      	bgt.n	8f84 <memcpy+0x108>
    8fb2:	462b      	mov	r3, r5
    8fb4:	e002      	b.n	8fbc <memcpy+0x140>
    8fb6:	6824      	ldr	r4, [r4, #0]
    8fb8:	f841 4b04 	str.w	r4, [r1], #4
    8fbc:	1a55      	subs	r5, r2, r1
    8fbe:	461c      	mov	r4, r3
    8fc0:	2d03      	cmp	r5, #3
    8fc2:	f103 0304 	add.w	r3, r3, #4
    8fc6:	dcf6      	bgt.n	8fb6 <memcpy+0x13a>
    8fc8:	e790      	b.n	8eec <memcpy+0x70>
    8fca:	bf00      	nop

00008fcc <memset>:
    8fcc:	2a03      	cmp	r2, #3
    8fce:	b2c9      	uxtb	r1, r1
    8fd0:	b470      	push	{r4, r5, r6}
    8fd2:	d808      	bhi.n	8fe6 <memset+0x1a>
    8fd4:	b12a      	cbz	r2, 8fe2 <memset+0x16>
    8fd6:	4603      	mov	r3, r0
    8fd8:	1812      	adds	r2, r2, r0
    8fda:	f803 1b01 	strb.w	r1, [r3], #1
    8fde:	4293      	cmp	r3, r2
    8fe0:	d1fb      	bne.n	8fda <memset+0xe>
    8fe2:	bc70      	pop	{r4, r5, r6}
    8fe4:	4770      	bx	lr
    8fe6:	1882      	adds	r2, r0, r2
    8fe8:	4604      	mov	r4, r0
    8fea:	e001      	b.n	8ff0 <memset+0x24>
    8fec:	f804 1b01 	strb.w	r1, [r4], #1
    8ff0:	f014 0f03 	tst.w	r4, #3
    8ff4:	d1fa      	bne.n	8fec <memset+0x20>
    8ff6:	f04f 3301 	mov.w	r3, #16843009	; 0x1010101
    8ffa:	fb03 f301 	mul.w	r3, r3, r1
    8ffe:	e01f      	b.n	9040 <memset+0x74>
    9000:	f844 3c40 	str.w	r3, [r4, #-64]
    9004:	f844 3c3c 	str.w	r3, [r4, #-60]
    9008:	f844 3c38 	str.w	r3, [r4, #-56]
    900c:	f844 3c34 	str.w	r3, [r4, #-52]
    9010:	f844 3c30 	str.w	r3, [r4, #-48]
    9014:	f844 3c2c 	str.w	r3, [r4, #-44]
    9018:	f844 3c28 	str.w	r3, [r4, #-40]
    901c:	f844 3c24 	str.w	r3, [r4, #-36]
    9020:	f844 3c20 	str.w	r3, [r4, #-32]
    9024:	f844 3c1c 	str.w	r3, [r4, #-28]
    9028:	f844 3c18 	str.w	r3, [r4, #-24]
    902c:	f844 3c14 	str.w	r3, [r4, #-20]
    9030:	f844 3c10 	str.w	r3, [r4, #-16]
    9034:	f844 3c0c 	str.w	r3, [r4, #-12]
    9038:	f844 3c08 	str.w	r3, [r4, #-8]
    903c:	f844 3c04 	str.w	r3, [r4, #-4]
    9040:	1b16      	subs	r6, r2, r4
    9042:	4625      	mov	r5, r4
    9044:	3440      	adds	r4, #64	; 0x40
    9046:	2e3f      	cmp	r6, #63	; 0x3f
    9048:	dcda      	bgt.n	9000 <memset+0x34>
    904a:	462c      	mov	r4, r5
    904c:	e007      	b.n	905e <memset+0x92>
    904e:	f844 3c10 	str.w	r3, [r4, #-16]
    9052:	f844 3c0c 	str.w	r3, [r4, #-12]
    9056:	f844 3c08 	str.w	r3, [r4, #-8]
    905a:	f844 3c04 	str.w	r3, [r4, #-4]
    905e:	1b16      	subs	r6, r2, r4
    9060:	4625      	mov	r5, r4
    9062:	3410      	adds	r4, #16
    9064:	2e0f      	cmp	r6, #15
    9066:	dcf2      	bgt.n	904e <memset+0x82>
    9068:	e001      	b.n	906e <memset+0xa2>
    906a:	f845 3b04 	str.w	r3, [r5], #4
    906e:	1b54      	subs	r4, r2, r5
    9070:	2c03      	cmp	r4, #3
    9072:	dcfa      	bgt.n	906a <memset+0x9e>
    9074:	e001      	b.n	907a <memset+0xae>
    9076:	f805 1b01 	strb.w	r1, [r5], #1
    907a:	4295      	cmp	r5, r2
    907c:	d3fb      	bcc.n	9076 <memset+0xaa>
    907e:	e7b0      	b.n	8fe2 <memset+0x16>
    9080:	5f6d656d 	.word	0x5f6d656d
    9084:	65657266 	.word	0x65657266
    9088:	3d207028 	.word	0x3d207028
    908c:	554e203d 	.word	0x554e203d
    9090:	20294c4c 	.word	0x20294c4c
    9094:	20736177 	.word	0x20736177
    9098:	6c6c6163 	.word	0x6c6c6163
    909c:	0a2e6465 	.word	0x0a2e6465
    90a0:	00000000 	.word	0x00000000
    90a4:	5f6d656d 	.word	0x5f6d656d
    90a8:	65657266 	.word	0x65657266
    90ac:	6c69203a 	.word	0x6c69203a
    90b0:	6167656c 	.word	0x6167656c
    90b4:	656d206c 	.word	0x656d206c
    90b8:	79726f6d 	.word	0x79726f6d
    90bc:	0000000a 	.word	0x0000000a
    90c0:	5f6d656d 	.word	0x5f6d656d
    90c4:	6c616572 	.word	0x6c616572
    90c8:	3a636f6c 	.word	0x3a636f6c
    90cc:	6c6c6920 	.word	0x6c6c6920
    90d0:	6c616765 	.word	0x6c616765
    90d4:	6d656d20 	.word	0x6d656d20
    90d8:	0a79726f 	.word	0x0a79726f
    90dc:	00000000 	.word	0x00000000
    90e0:	5f6d656d 	.word	0x5f6d656d
    90e4:	6c6c616d 	.word	0x6c6c616d
    90e8:	203a636f 	.word	0x203a636f
    90ec:	6c756f63 	.word	0x6c756f63
    90f0:	6f6e2064 	.word	0x6f6e2064
    90f4:	6c612074 	.word	0x6c612074
    90f8:	61636f6c 	.word	0x61636f6c
    90fc:	25206574 	.word	0x25206574
    9100:	79622064 	.word	0x79622064
    9104:	0a736574 	.word	0x0a736574
    9108:	00000000 	.word	0x00000000
    910c:	534f4c43 	.word	0x534f4c43
    9110:	00004445 	.word	0x00004445
    9114:	5453494c 	.word	0x5453494c
    9118:	00004e45 	.word	0x00004e45
    911c:	5f4e5953 	.word	0x5f4e5953
    9120:	544e4553 	.word	0x544e4553
    9124:	00000000 	.word	0x00000000
    9128:	5f4e5953 	.word	0x5f4e5953
    912c:	44564352 	.word	0x44564352
    9130:	00000000 	.word	0x00000000
    9134:	41545345 	.word	0x41545345
    9138:	53494c42 	.word	0x53494c42
    913c:	00444548 	.word	0x00444548
    9140:	5f4e4946 	.word	0x5f4e4946
    9144:	54494157 	.word	0x54494157
    9148:	0000315f 	.word	0x0000315f
    914c:	5f4e4946 	.word	0x5f4e4946
    9150:	54494157 	.word	0x54494157
    9154:	0000325f 	.word	0x0000325f
    9158:	534f4c43 	.word	0x534f4c43
    915c:	41575f45 	.word	0x41575f45
    9160:	00005449 	.word	0x00005449
    9164:	534f4c43 	.word	0x534f4c43
    9168:	00474e49 	.word	0x00474e49
    916c:	5453414c 	.word	0x5453414c
    9170:	4b43415f 	.word	0x4b43415f
    9174:	00000000 	.word	0x00000000
    9178:	454d4954 	.word	0x454d4954
    917c:	4941575f 	.word	0x4941575f
    9180:	00000054 	.word	0x00000054

00009184 <tcp_backoff>:
    9184:	04030201 07070605 07070707 00000007     ................

00009194 <tcp_persist_backoff>:
    9194:	180c0603 00786030 5f706374 736f6c63     ....0`x.tcp_clos
    91a4:	63203a65 69736f6c 6920676e 0000206e     e: closing in ..
    91b4:	5f706374 6e616261 3a6e6f64 6e657320     tcp_abandon: sen
    91c4:	676e6964 54535220 0000000a 5f706374     ding RST....tcp_
    91d4:	646e6962 6962203a 7420646e 6f70206f     bind: bind to po
    91e4:	25207472 00000a75 5f706374 76636572     rt %u...tcp_recv
    91f4:	203a6465 76636572 65766965 75252064     ed: recveived %u
    9204:	74796220 202c7365 20646e77 28207525      bytes, wnd %u (
    9214:	2e297525 0000000a 5f706374 6e6e6f63     %u).....tcp_conn
    9224:	20746365 70206f74 2074726f 000a7525     ect to port %u..
    9234:	5f706374 776f6c73 3a726d74 206f6e20     tcp_slowtmr: no 
    9244:	69746361 70206576 0a736263 00000000     active pcbs.....
    9254:	5f706374 776f6c73 3a726d74 6f727020     tcp_slowtmr: pro
    9264:	73736563 20676e69 69746361 70206576     cessing active p
    9274:	000a6263 5f706374 776f6c73 3a726d74     cb..tcp_slowtmr:
    9284:	78616d20 4e595320 74657220 73656972      max SYN retries
    9294:	61657220 64656863 0000000a 5f706374      reached....tcp_
    92a4:	776f6c73 3a726d74 78616d20 54414420     slowtmr: max DAT
    92b4:	65722041 65697274 65722073 65686361     A retries reache
    92c4:	00000a64 5f706374 776f6c73 3a726d74     d...tcp_slowtmr:
    92d4:	69747220 2520656d 63702064 723e2d62      rtime %d pcb->r
    92e4:	25206f74 00000a64 5f706374 776f6c73     to %d...tcp_slow
    92f4:	3a726d74 6e776320 75252064 74737320     tmr: cwnd %u sst
    9304:	73657268 75252068 0000000a 5f706374     hresh %u....tcp_
    9314:	776f6c73 3a726d74 6d657220 6e69766f     slowtmr: removin
    9324:	63702067 74732062 206b6375 46206e69     g pcb stuck in F
    9334:	572d4e49 2d544941 00000a32 5f706374     IN-WAIT-2...tcp_
    9344:	776f6c73 3a726d74 45454b20 494c4150     slowtmr: KEEPALI
    9354:	74204556 6f656d69 202e7475 726f6241     VE timeout. Abor
    9364:	676e6974 6e6f6320 7463656e 206e6f69     ting connection 
    9374:	25206f74 75252e75 2e75252e 0a2e7525     to %u.%u.%u.%u..
    9384:	00000000 5f706374 776f6c73 3a726d74     ....tcp_slowtmr:
    9394:	6f726420 6e697070 4f4f2067 20514553      dropping OOSEQ 
    93a4:	75657571 64206465 0a617461 00000000     queued data.....
    93b4:	5f706374 776f6c73 3a726d74 6d657220     tcp_slowtmr: rem
    93c4:	6e69766f 63702067 74732062 206b6375     oving pcb stuck 
    93d4:	53206e69 522d4e59 0a445643 00000000     in SYN-RCVD.....
    93e4:	5f706374 776f6c73 3a726d74 6d657220     tcp_slowtmr: rem
    93f4:	6e69766f 63702067 74732062 206b6375     oving pcb stuck 
    9404:	4c206e69 2d545341 0a4b4341 00000000     in LAST-ACK.....
    9414:	5f706374 776f6c73 3a726d74 6c6f7020     tcp_slowtmr: pol
    9424:	676e696c 70706120 6163696c 6e6f6974     ling application
    9434:	0000000a 5f706374 74736166 3a726d74     ....tcp_fasttmr:
    9444:	6c656420 64657961 4b434120 0000000a      delayed ACK....
    9454:	5f706374 6c6c696b 6972705f 6b203a6f     tcp_kill_prio: k
    9464:	696c6c69 6f20676e 7365646c 43502074     illing oldest PC
    9474:	70252042 64252820 00000a29 5f706374     B %p (%d)...tcp_
    9484:	6c6c696b 6d69745f 69617765 6b203a74     kill_timewait: k
    9494:	696c6c69 6f20676e 7365646c 49542074     illing oldest TI
    94a4:	572d454d 20544941 20424350 28207025     ME-WAIT PCB %p (
    94b4:	0a296425 00000000 5f706374 6f6c6c61     %d).....tcp_allo
    94c4:	6b203a63 696c6c69 6f20676e 6f206666     c: killing off o
    94d4:	7365646c 49542074 572d454d 20544941     ldest TIME-WAIT 
    94e4:	6e6e6f63 69746365 000a6e6f 5f706374     connection..tcp_
    94f4:	6f6c6c61 6b203a63 696c6c69 6320676e     alloc: killing c
    9504:	656e6e6f 6f697463 6977206e 70206874     onnection with p
    9514:	206f6972 65776f6c 68742072 25206e61     rio lower than %
    9524:	00000a64 5f706374 5f626370 67727570     d...tcp_pcb_purg
    9534:	00000a65 5f706374 5f626370 67727570     e...tcp_pcb_purg
    9544:	64203a65 20617461 7466656c 206e6f20     e: data left on 
    9554:	65723e2d 65737566 61645f64 000a6174     ->refused_data..
    9564:	5f706374 5f626370 67727570 6e203a65     tcp_pcb_purge: n
    9574:	6120746f 64206c6c 20617461 746e6573     ot all data sent
    9584:	0000000a 5f706374 5f626370 67727570     ....tcp_pcb_purg
    9594:	64203a65 20617461 7466656c 206e6f20     e: data left on 
    95a4:	6e753e2d 656b6361 00000a64 5f706374     ->unacked...tcp_
    95b4:	5f626370 67727570 64203a65 20617461     pcb_purge: data 
    95c4:	7466656c 206e6f20 6f6f3e2d 0a716573     left on ->ooseq.
    95d4:	00000000 20504354 64616568 0a3a7265     ....TCP header:.
    95e4:	00000000 2d2d2d2b 2d2d2d2d 2d2d2d2d     ....+-----------
    95f4:	2d2d2d2d 2d2d2d2d 2d2d2d2d 2d2d2d2d     ----------------
    9604:	2d2d2d2d 00000a2b 2020207c 75352520     ----+...|    %5u
    9614:	20202020 207c2020 25202020 20207535           |    %5u  
    9624:	20202020 7328207c 70206372 2c74726f         | (src port,
    9634:	73656420 6f702074 0a297472 00000000      dest port).....
    9644:	2020207c 20202020 20202020 30313025     |           %010
    9654:	20202075 20202020 7c202020 65732820     u          | (se
    9664:	6f6e2071 00000a29 2020207c 20202020     q no)...|       
    9674:	20202020 30313025 20202075 20202020         %010u       
    9684:	7c202020 63612820 6f6e206b 00000a29        | (ack no)...
    9694:	3225207c 207c2075 257c2020 25752575     | %2u |   |%u%u%
    96a4:	25752575 7c752575 20202020 75352520     u%u%u%u|     %5u
    96b4:	20202020 28207c20 6c726468 202c6e65          | (hdrlen, 
    96c4:	67616c66 00282073 77202c29 0a296e69     flags (.), win).
    96d4:	00000000 2020207c 25783020 20783430     ....|    0x%04x 
    96e4:	20202020 2020207c 35252020 20202075         |     %5u   
    96f4:	207c2020 6b686328 2c6d7573 67727520       | (chksum, urg
    9704:	000a2970 74617453 25203a65 00000a73     p)..State: %s...
    9714:	204e4946 00000000 204e5953 00000000     FIN ....SYN ....
    9724:	20545352 00000000 20485350 00000000     RST ....PSH ....
    9734:	204b4341 00000000 20475255 00000000     ACK ....URG ....
    9744:	20454345 00000000 20525743 00000000     ECE ....CWR ....
    9754:	0000000a 69746341 50206576 73204243     ....Active PCB s
    9764:	65746174 000a3a73 61636f4c 6f70206c     tates:..Local po
    9774:	25207472 66202c75 6965726f 70206e67     rt %u, foreign p
    9784:	2074726f 73207525 6e5f646e 25207478     ort %u snd_nxt %
    9794:	63722075 786e5f76 75252074 00000020     u rcv_nxt %u ...
    97a4:	7473694c 50206e65 73204243 65746174     Listen PCB state
    97b4:	000a3a73 454d4954 4941572d 43502054     s:..TIME-WAIT PC
    97c4:	74732042 73657461 00000a3a              B states:...

000097d0 <memp_sizes>:
    97d0:	0020001c 002000a4 00100014 00140020     .. ... ..... ...
    97e0:	00080014 00100010 00000110              ............

000097ec <memp_num>:
    97ec:	00040004 00080010 00020010 00080004     ................
    97fc:	001e0008 0018000a 00000018 5f574152     ............RAW_
    980c:	00424350 5f504455 00424350 5f504354     PCB.UDP_PCB.TCP_
    981c:	00424350 5f504354 5f424350 5453494c     PCB.TCP_PCB_LIST
    982c:	00004e45 5f504354 00474553 4254454e     EN..TCP_SEG.NETB
    983c:	00004655 4354454e 004e4e4f 49504354     UF..NETCONN.TCPI
    984c:	534d5f50 50415f47 00000049 49504354     P_MSG_API...TCPI
    985c:	534d5f50 4e495f47 00544b50 5f505241     P_MSG_INPKT.ARP_
    986c:	55455551 00000045 5f535953 454d4954     QUEUE...SYS_TIME
    987c:	0054554f 46554250 4645525f 4d4f522f     OUT.PBUF_REF/ROM
    988c:	00000000 46554250 4f4f505f 0000004c     ....PBUF_POOL...
    989c:	706d656d 6c616d5f 3a636f6c 74756f20     memp_malloc: out
    98ac:	20666f20 6f6d656d 69207972 6f70206e      of memory in po
    98bc:	25206c6f 00000a73 20666d73 6c6c6163     ol %s...smf call
    98cc:	20676e69 70253d68 29702528 0000000a     ing h=%p(%p)....
    98dc:	20777373 70253d68 29702528 0000000a     ssw h=%p(%p)....
    98ec:	5f737973 656d6974 3a74756f 20702520     sys_timeout: %p 
    98fc:	6365736d 75253d73 253d6820 72612070     msecs=%u h=%p ar
    990c:	70253d67 0000000a 74656e69 6b68635f     g=%p....inet_chk
    991c:	5f6d7573 75657370 29286f64 6863203a     sum_pseudo(): ch
    992c:	736b6365 696d6d75 7020676e 20667562     ecksumming pbuf 
    993c:	28207025 20736168 7478656e 29702520     %p (has next %p)
    994c:	00000a20 74656e69 6b68635f 5f6d7573      ...inet_chksum_
    995c:	75657370 29286f64 6270203a 63206675     pseudo(): pbuf c
    996c:	6e696168 69776c20 68635f70 6d75736b     hain lwip_chksum
    997c:	253d2928 00000a78                       ()=%x...

00009984 <abDescriptors>:
    9984:	01010112 40000002 014effff 02010100     .......@..N.....
    9994:	02090103 01020093 0932c000 01000004     ..........2.....
    99a4:	00010202 10002405 01240501 24040101     .....$....$....$
    99b4:	24050202 07010006 08038105 04090a00     ...$............
    99c4:	0a020001 07000000 40020505 05070000     ...........@....
    99d4:	00400282 09030400 62030e04 74006900     ..@........b.i.t
    99e4:	4f004200 3a005800 32005203 32004300     .B.O.X.:.R.2.C.2
    99f4:	2d002000 33002000 20004400 72005000     . .-. .3.D. .P.r
    9a04:	6e006900 65007400 20007200 6f004300     .i.n.t.e.r. .C.o
    9a14:	74006e00 6f007200 6c006c00 72006500     .n.t.r.o.l.l.e.r
    9a24:	31030400 00000000                       ...1....

00009a2c <http_html_hdr>:
    9a2c:	50545448 312e312f 30303220 0d4b4f20     HTTP/1.1 200 OK.
    9a3c:	6e6f430a 746e6574 7079742d 74203a65     .Content-type: t
    9a4c:	2f747865 6c6d7468 0a0d0a0d 00000000     ext/html........

00009a5c <http_index_html>:
    9a5c:	6d74683c 683c3e6c 3e646165 7469743c     <html><head><tit
    9a6c:	433e656c 72676e6f 21737461 69742f3c     le>Congrats!</ti
    9a7c:	3e656c74 65682f3c 3c3e6461 79646f62     tle></head><body
    9a8c:	31683c3e 6968543e 73692073 6f6f4320     ><h1>This is Coo
    9a9c:	20786f63 4c20534f 20504977 6f6d6564     cox OS LwIP demo
    9aac:	2f3c2120 3c3e3168 6f4d3e70 69206572      !</h1><p>More i
    9abc:	726f666e 6974616d 61206e6f 77772074     nformation at ww
    9acc:	6f632e77 786f636f 67726f2e 6f622f3c     w.coocox.org</bo
    9adc:	3c3e7964 6d74682f 00003e6c 66756270     dy></html>..pbuf
    9aec:	6572665f 6f6f5f65 3a716573 65726620     _free_ooseq: fre
    9afc:	676e6965 74756f20 2d666f2d 75716573     eing out-of-sequ
    9b0c:	65636e65 75627020 000a7366 66756270     ence pbufs..pbuf
    9b1c:	6c6c615f 6c28636f 74676e65 75253d68     _alloc(length=%u
    9b2c:	00000a29 66756270 6c6c615f 203a636f     )...pbuf_alloc: 
    9b3c:	6f6c6c61 65746163 62702064 25206675     allocated pbuf %
    9b4c:	00000a70 004d4f52 00464552 66756270     p...ROM.REF.pbuf
    9b5c:	6c6c615f 203a636f 6c756f43 6f6e2064     _alloc: Could no
    9b6c:	6c612074 61636f6c 4d206574 5f504d45     t allocate MEMP_
    9b7c:	46554250 726f6620 55425020 73255f46     PBUF for PBUF_%s
    9b8c:	00000a2e 66756270 6c6c615f 6c28636f     ....pbuf_alloc(l
    9b9c:	74676e65 75253d68 3d3d2029 0a702520     ength=%u) == %p.
    9bac:	00000000 66756270 6165685f 3a726564     ....pbuf_header:
    9bbc:	69616620 2064656c 25207361 203c2070      failed as %p < 
    9bcc:	28207025 20746f6e 756f6e65 73206867     %p (not enough s
    9bdc:	65636170 726f6620 77656e20 61656820     pace for new hea
    9bec:	20726564 657a6973 00000a29 66756270     der size)...pbuf
    9bfc:	6165685f 3a726564 646c6f20 20702520     _header: old %p 
    9c0c:	2077656e 28207025 0a296425 00000000     new %p (%d).....
    9c1c:	66756270 6572665f 20702865 4e203d3d     pbuf_free(p == N
    9c2c:	294c4c55 73617720 6c616320 2e64656c     ULL) was called.
    9c3c:	0000000a 66756270 6572665f 70252865     ....pbuf_free(%p
    9c4c:	00000a29 66756270 6572665f 64203a65     )...pbuf_free: d
    9c5c:	6c6c6165 7461636f 20676e69 000a7025     eallocating %p..
    9c6c:	66756270 6572665f 25203a65 61682070     pbuf_free: %p ha
    9c7c:	65722073 75252066 6e65202c 676e6964     s ref %u, ending
    9c8c:	72656820 000a2e65 66756270 6168635f      here...pbuf_cha
    9c9c:	203a6e69 72207025 72656665 65636e65     in: %p reference
    9cac:	70252073 0000000a 66756270 6365645f     s %p....pbuf_dec
    9cbc:	6e696168 6e75203a 65666572 636e6572     hain: unreferenc
    9ccc:	20676e69 000a7025 66756270 6365645f     ing %p..pbuf_dec
    9cdc:	6e696168 6564203a 6f6c6c61 65746163     hain: deallocate
    9cec:	70252064 73612820 20746920 6e207369     d %p (as it is n
    9cfc:	6f6c206f 7265676e 66657220 6e657265     o longer referen
    9d0c:	29646563 0000000a 66756270 706f635f     ced)....pbuf_cop
    9d1c:	70252879 7025202c 00000a29 66756270     y(%p, %p)...pbuf
    9d2c:	706f635f 65203a79 6f20646e 68632066     _copy: end of ch
    9d3c:	206e6961 63616572 2e646568 0000000a     ain reached.....
    9d4c:	5f706475 75706e69 73203a74 74726f68     udp_input: short
    9d5c:	50445520 74616420 61726761 2528206d      UDP datagram (%
    9d6c:	79622075 29736574 73696420 64726163     u bytes) discard
    9d7c:	000a6465 5f706475 75706e69 72203a74     ed..udp_input: r
    9d8c:	69656365 20646576 61746164 6d617267     eceived datagram
    9d9c:	20666f20 676e656c 25206874 00000a75      of length %u...
    9dac:	20706475 2e752528 252e7525 75252e75     udp (%u.%u.%u.%u
    9dbc:	7525202c 2d3c2029 2528202d 75252e75     , %u) <-- (%u.%u
    9dcc:	2e75252e 202c7525 0a297525 00000000     .%u.%u, %u).....
    9ddc:	20626370 2e752528 252e7525 75252e75     pcb (%u.%u.%u.%u
    9dec:	7525202c 2d2d2029 2528202d 75252e75     , %u) --- (%u.%u
    9dfc:	2e75252e 202c7525 0a297525 00000000     .%u.%u, %u).....
    9e0c:	5f706475 75706e69 63203a74 75636c61     udp_input: calcu
    9e1c:	6974616c 6320676e 6b636568 0a6d7573     lating checksum.
    9e2c:	00000000 5f706475 75706e69 55203a74     ....udp_input: U
    9e3c:	64205044 67617461 206d6172 63736964     DP datagram disc
    9e4c:	65647261 75642064 6f742065 69616620     arded due to fai
    9e5c:	676e696c 65686320 75736b63 00000a6d     ling checksum...
    9e6c:	5f706475 75706e69 6e203a74 6620746f     udp_input: not f
    9e7c:	7520726f 000a2e73 5f706475 646e6573     or us...udp_send
    9e8c:	0000000a 5f706475 646e6573 6f4e203a     ....udp_send: No
    9e9c:	756f7220 74206574 7830206f 000a7825      route to 0x%x..
    9eac:	5f706475 646e6573 6f6e203a 65792074     udp_send: not ye
    9ebc:	6f622074 20646e75 61206f74 726f7020     t bound to a por
    9ecc:	62202c74 69646e69 6e20676e 000a776f     t, binding now..
    9edc:	5f706475 646e6573 6f66203a 64656372     udp_send: forced
    9eec:	726f7020 69622074 6620646e 656c6961      port bind faile
    9efc:	00000a64 5f706475 646e6573 6f63203a     d...udp_send: co
    9f0c:	20646c75 20746f6e 6f6c6c61 65746163     uld not allocate
    9f1c:	61656820 0a726564 00000000 5f706475      header.....udp_
    9f2c:	646e6573 6461203a 20646564 64616568     send: added head
    9f3c:	70207265 20667562 62207025 726f6665     er pbuf %p befor
    9f4c:	69672065 206e6576 66756270 0a702520     e given pbuf %p.
    9f5c:	00000000 5f706475 646e6573 6461203a     ....udp_send: ad
    9f6c:	20646564 64616568 69207265 6967206e     ded header in gi
    9f7c:	206e6576 66756270 0a702520 00000000     ven pbuf %p.....
    9f8c:	5f706475 646e6573 6573203a 6e69646e     udp_send: sendin
    9f9c:	61642067 72676174 6f206d61 656c2066     g datagram of le
    9fac:	6874676e 0a752520 00000000 5f706475     ngth %u.....udp_
    9fbc:	646e6573 4455203a 61702050 74656b63     send: UDP packet
    9fcc:	6e656c20 20687467 000a7525 5f706475      length %u..udp_
    9fdc:	646e6573 4455203a 68632050 736b6365     send: UDP checks
    9fec:	30206d75 34302578 00000a78 5f706475     um 0x%04x...udp_
    9ffc:	646e6573 7069203a 74756f5f 5f747570     send: ip_output_
    a00c:	28206669 2c2c2c2c 505f5049 4f544f52     if (,,,,IP_PROTO
    a01c:	5044555f 000a292c 5f706475 646e6962     _UDP,)..udp_bind
    a02c:	61706928 20726464 0000203d 252e7525     (ipaddr = ..%u.%
    a03c:	75252e75 0075252e 6f70202c 3d207472     u.%u.%u., port =
    a04c:	29752520 0000000a 5f706475 646e6962      %u)....udp_bind
    a05c:	756f203a 666f2074 65726620 44552065     : out of free UD
    a06c:	6f702050 0a737472 00000000 5f706475     P ports.....udp_
    a07c:	646e6962 6f62203a 20646e75 25206f74     bind: bound to %
    a08c:	75252e75 2e75252e 202c7525 74726f70     u.%u.%u.%u, port
    a09c:	0a752520 00000000 5f706475 6e6e6f63      %u.....udp_conn
    a0ac:	3a746365 6e6f6320 7463656e 74206465     ect: connected t
    a0bc:	7525206f 2e75252e 252e7525 6f702c75     o %u.%u.%u.%u,po
    a0cc:	25207472 00000a75 20504455 64616568     rt %u...UDP head
    a0dc:	0a3a7265 00000000 2d2d2d2b 2d2d2d2d     er:.....+-------
    a0ec:	2d2d2d2d 2d2d2d2d 2d2d2d2d 2d2d2d2d     ----------------
    a0fc:	2d2d2d2d 2d2d2d2d 00000a2b 2020207c     --------+...|   
    a10c:	35252020 20202075 207c2020 20202020       %5u     |     
    a11c:	20753525 20202020 7328207c 70206372     %5u     | (src p
    a12c:	2c74726f 73656420 6f702074 0a297472     ort, dest port).
    a13c:	00000000 2020207c 35252020 20202075     ....|     %5u   
    a14c:	207c2020 20202020 30257830 20207834       |     0x%04x  
    a15c:	207c2020 6e656c28 6863202c 6d75736b       | (len, chksum
    a16c:	00000a29 6374656e 5f6e6e6f 76636572     )...netconn_recv
    a17c:	6572203a 76696563 25206465 65282070     : received %p (e
    a18c:	25207272 000a2964 6374656e 5f6e6e6f     rr %d)..netconn_
    a19c:	646e6573 6573203a 6e69646e 75252067     send: sending %u
    a1ac:	74796220 000a7365 5f706374 74697277      bytes..tcp_writ
    a1bc:	63702865 70253d62 6164202c 253d6174     e(pcb=%p, data=%
    a1cc:	6c202c70 253d6e65 61202c75 6c666970     p, len=%u, apifl
    a1dc:	3d736761 0a297525 00000000 5f706374     ags=%u).....tcp_
    a1ec:	74697277 20292865 6c6c6163 69206465     write() called i
    a1fc:	6e69206e 696c6176 74732064 0a657461     n invalid state.
    a20c:	00000000 5f706374 75716e65 28657565     ....tcp_enqueue(
    a21c:	3d626370 202c7025 3d677261 202c7025     pcb=%p, arg=%p, 
    a22c:	3d6e656c 202c7525 67616c66 78253d73     len=%u, flags=%x
    a23c:	7061202c 616c6669 253d7367 000a2975     , apiflags=%u)..
    a24c:	5f706374 75716e65 3a657565 6f6f7420     tcp_enqueue: too
    a25c:	63756d20 61642068 28206174 3d6e656c      much data (len=
    a26c:	3e207525 646e7320 6675625f 2975253d     %u > snd_buf=%u)
    a27c:	0000000a 5f706374 75716e65 3a657565     ....tcp_enqueue:
    a28c:	65757120 656c6575 25203a6e 00000a75      queuelen: %u...
    a29c:	5f706374 75716e65 3a657565 6f6f7420     tcp_enqueue: too
    a2ac:	6e6f6c20 75712067 20657565 28207525      long queue %u (
    a2bc:	2078616d 0a297525 00000000 5f706374     max %u).....tcp_
    a2cc:	75716e65 3a657565 756f6320 6e20646c     enqueue: could n
    a2dc:	6120746f 636f6c6c 20657461 6f6d656d     ot allocate memo
    a2ec:	66207972 7420726f 735f7063 000a6765     ry for tcp_seg..
    a2fc:	5f706374 75716e65 20657565 6f63203a     tcp_enqueue : co
    a30c:	20646c75 20746f6e 6f6c6c61 65746163     uld not allocate
    a31c:	6d656d20 2079726f 20726f66 66756270      memory for pbuf
    a32c:	706f6320 69732079 2520657a 00000a75      copy size %u...
    a33c:	5f706374 75716e65 3a657565 756f6320     tcp_enqueue: cou
    a34c:	6e20646c 6120746f 636f6c6c 20657461     ld not allocate 
    a35c:	6f6d656d 66207972 6820726f 65646165     memory for heade
    a36c:	62702072 000a6675 5f706374 75716e65     r pbuf..tcp_enqu
    a37c:	3a657565 756f6320 6e20646c 6120746f     eue: could not a
    a38c:	636f6c6c 20657461 6f6d656d 66207972     llocate memory f
    a39c:	7a20726f 2d6f7265 79706f63 75627020     or zero-copy pbu
    a3ac:	00000a66 5f706374 75716e65 3a657565     f...tcp_enqueue:
    a3bc:	65757120 74206575 6c206f6f 20676e6f      queue too long 
    a3cc:	28207525 0a297525 00000000 5f706374     %u (%u).....tcp_
    a3dc:	75716e65 3a657565 206f6e20 6d6f6f72     enqueue: no room
    a3ec:	726f6620 50435420 61656820 20726564      for TCP header 
    a3fc:	70206e69 2e667562 0000000a 5f706374     in pbuf.....tcp_
    a40c:	75716e65 3a657565 65757120 6e696575     enqueue: queuein
    a41c:	75252067 2075253a 25783028 000a2978     g %u:%u (0x%x)..
    a42c:	5f706374 75716e65 3a657565 61686320     tcp_enqueue: cha
    a43c:	6e696e69 65732067 6e656d67 202c7374     ining segments, 
    a44c:	2077656e 206e656c 000a7525 5f706374     new len %u..tcp_
    a45c:	75716e65 3a657565 20642520 74666128     enqueue: %d (aft
    a46c:	65207265 6575716e 29646575 0000000a     er enqueued)....
    a47c:	5f706374 75716e65 3a657565 20642520     tcp_enqueue: %d 
    a48c:	74697728 656d2068 7265206d 000a2972     (with mem err)..
    a49c:	5f706374 7074756f 203a7475 4b434128     tcp_output: (ACK
    a4ac:	6f632029 20646c75 20746f6e 6f6c6c61     ) could not allo
    a4bc:	65746163 75627020 00000a66 5f706374     cate pbuf...tcp_
    a4cc:	7074756f 203a7475 646e6573 20676e69     output: sending 
    a4dc:	204b4341 20726f66 000a7525 5f706374     ACK for %u..tcp_
    a4ec:	7074756f 203a7475 68746f6e 20676e69     output: nothing 
    a4fc:	73206f74 20646e65 29702528 0000000a     to send (%p)....
    a50c:	5f706374 7074756f 203a7475 5f646e73     tcp_output: snd_
    a51c:	20646e77 202c7525 646e7763 2c752520     wnd %u, cwnd %u,
    a52c:	646e7720 2c752520 67657320 203d3d20      wnd %u, seg == 
    a53c:	4c4c554e 6361202c 7525206b 0000000a     NULL, ack %u....
    a54c:	5f706374 7074756f 203a7475 5f646e73     tcp_output: snd_
    a55c:	20646e77 202c7525 646e7763 2c752520     wnd %u, cwnd %u,
    a56c:	646e7720 2c752520 66666520 20646e77      wnd %u, effwnd 
    a57c:	202c7525 20716573 202c7525 206b6361     %u, seq %u, ack 
    a58c:	000a7525 5f706374 7074756f 203a7475     %u..tcp_output: 
    a59c:	5f646e73 20646e77 202c7525 646e7763     snd_wnd %u, cwnd
    a5ac:	2c752520 646e7720 2c752520 66666520      %u, wnd %u, eff
    a5bc:	20646e77 202c7525 20716573 202c7525     wnd %u, seq %u, 
    a5cc:	206b6361 202c7525 64252069 0000000a     ack %u, i %d....
    a5dc:	5f706374 7074756f 735f7475 656d6765     tcp_output_segme
    a5ec:	203a746e 65737472 75252071 0000000a     nt: rtseq %u....
    a5fc:	5f706374 7074756f 735f7475 656d6765     tcp_output_segme
    a60c:	203a746e 253a7525 00000a75 5f706374     nt: %u:%u...tcp_
    a61c:	3a747372 756f6320 6e20646c 6120746f     rst: could not a
    a62c:	636f6c6c 20657461 6f6d656d 66207972     llocate memory f
    a63c:	7020726f 0a667562 00000000 5f706374     or pbuf.....tcp_
    a64c:	3a747372 71657320 25206f6e 63612075     rst: seqno %u ac
    a65c:	206f6e6b 0a2e7525 00000000 5f706374     kno %u......tcp_
    a66c:	65636572 3a657669 70756420 736b6361     receive: dupacks
    a67c:	20752520 29752528 6166202c 72207473      %u (%u), fast r
    a68c:	61727465 696d736e 75252074 0000000a     etransmit %u....
    a69c:	5f706374 65636572 3a657669 65685420     tcp_receive: The
    a6ac:	6e696d20 6d756d69 6c617620 66206575      minimum value f
    a6bc:	7320726f 72687473 20687365 73207525     or ssthresh %u s
    a6cc:	6c756f68 65622064 6e696d20 6d203220     hould be min 2 m
    a6dc:	25207373 2e2e2e75 0000000a 5f706374     ss %u.......tcp_
    a6ec:	7065656b 76696c61 73203a65 69646e65     keepalive: sendi
    a6fc:	4b20676e 41504545 4556494c 6f727020     ng KEEPALIVE pro
    a70c:	74206562 7525206f 2e75252e 252e7525     be to %u.%u.%u.%
    a71c:	00000a75 5f706374 7065656b 76696c61     u...tcp_keepaliv
    a72c:	74203a65 745f7063 736b6369 20752520     e: tcp_ticks %u 
    a73c:	63702020 743e2d62 2520726d 63702075       pcb->tmr %u pc
    a74c:	6b3e2d62 5f706565 5f746e63 746e6573     b->keep_cnt_sent
    a75c:	0a752520 00000000 5f706374 7065656b      %u.....tcp_keep
    a76c:	76696c61 63203a65 646c756f 746f6e20     alive: could not
    a77c:	6c6c6120 7461636f 656d2065 79726f6d      allocate memory
    a78c:	726f6620 75627020 00000a66 5f706374      for pbuf...tcp_
    a79c:	7065656b 76696c61 73203a65 6f6e7165     keepalive: seqno
    a7ac:	20752520 6e6b6361 7525206f 00000a2e      %u ackno %u....
    a7bc:	5f706374 6f72657a 6e69775f 5f776f64     tcp_zero_window_
    a7cc:	626f7270 73203a65 69646e65 5a20676e     probe: sending Z
    a7dc:	204f5245 444e4957 7020574f 65626f72     ERO WINDOW probe
    a7ec:	206f7420 252e7525 75252e75 0a75252e      to %u.%u.%u.%u.
    a7fc:	00000000 5f706374 6f72657a 6e69775f     ....tcp_zero_win
    a80c:	5f776f64 626f7270 74203a65 745f7063     dow_probe: tcp_t
    a81c:	736b6369 20752520 63702020 743e2d62     icks %u   pcb->t
    a82c:	2520726d 63702075 6b3e2d62 5f706565     mr %u pcb->keep_
    a83c:	5f746e63 746e6573 0a752520 00000000     cnt_sent %u.....
    a84c:	5f706374 6f72657a 6e69775f 5f776f64     tcp_zero_window_
    a85c:	626f7270 6e203a65 656d206f 79726f6d     probe: no memory
    a86c:	726f6620 75627020 00000a66 5f706374      for pbuf...tcp_
    a87c:	6f72657a 6e69775f 5f776f64 626f7270     zero_window_prob
    a88c:	73203a65 6f6e7165 20752520 6e6b6361     e: seqno %u ackn
    a89c:	7525206f 00000a2e 5f776172 646e6573     o %u....raw_send
    a8ac:	000a6f74 5f776172 646e6573 203a6f74     to..raw_sendto: 
    a8bc:	6c756f63 6f6e2064 6c612074 61636f6c     could not alloca
    a8cc:	68206574 65646165 00000a72 5f776172     te header...raw_
    a8dc:	646e6573 203a6f74 65646461 65682064     sendto: added he
    a8ec:	72656461 75627020 70252066 66656220     ader pbuf %p bef
    a8fc:	2065726f 65766967 6270206e 25206675     ore given pbuf %
    a90c:	00000a70 5f776172 646e6573 203a6f74     p...raw_sendto: 
    a91c:	72206f4e 6574756f 206f7420 78257830     No route to 0x%x
    a92c:	0000000a 5f776172 0a77656e 00000000     ....raw_new.....
